
WDOG_BFK.elf:     file format elf32-littlearm

Sections:
Idx Name          Size      VMA       LMA       File off  Algn
  0 .isr_vector   000000c0  08000000  08000000  00010000  2**0
                  CONTENTS, ALLOC, LOAD, READONLY, DATA
  1 .text         00006c08  080000c0  080000c0  000100c0  2**2
                  CONTENTS, ALLOC, LOAD, READONLY, CODE
  2 .rodata       000006a4  08006cc8  08006cc8  00016cc8  2**0
                  CONTENTS, ALLOC, LOAD, READONLY, DATA
  3 .ARM.extab    00000000  0800736c  0800736c  00020224  2**0
                  CONTENTS
  4 .ARM          00000000  0800736c  0800736c  00020224  2**0
                  CONTENTS
  5 .preinit_array 00000000  0800736c  0800736c  00020224  2**0
                  CONTENTS, ALLOC, LOAD, DATA
  6 .init_array   00000004  0800736c  0800736c  0001736c  2**2
                  CONTENTS, ALLOC, LOAD, DATA
  7 .fini_array   00000004  08007370  08007370  00017370  2**2
                  CONTENTS, ALLOC, LOAD, DATA
  8 .data         00000224  20000000  08007374  00020000  2**2
                  CONTENTS, ALLOC, LOAD, DATA
  9 .bss          00001098  20000228  08007598  00020228  2**3
                  ALLOC
 10 ._user_heap_stack 00000528  200012c0  08007598  000212c0  2**0
                  ALLOC
 11 .ARM.attributes 00000028  00000000  00000000  00020224  2**0
                  CONTENTS, READONLY
 12 .debug_info   0002f66f  00000000  00000000  0002024c  2**0
                  CONTENTS, READONLY, DEBUGGING, OCTETS
 13 .debug_abbrev 00006dfb  00000000  00000000  0004f8bb  2**0
                  CONTENTS, READONLY, DEBUGGING, OCTETS
 14 .debug_loc    00016af3  00000000  00000000  000566b6  2**0
                  CONTENTS, READONLY, DEBUGGING, OCTETS
 15 .debug_aranges 00001550  00000000  00000000  0006d1b0  2**3
                  CONTENTS, READONLY, DEBUGGING, OCTETS
 16 .debug_ranges 00002420  00000000  00000000  0006e700  2**3
                  CONTENTS, READONLY, DEBUGGING, OCTETS
 17 .debug_line   0001eef1  00000000  00000000  00070b20  2**0
                  CONTENTS, READONLY, DEBUGGING, OCTETS
 18 .debug_str    00006d56  00000000  00000000  0008fa11  2**0
                  CONTENTS, READONLY, DEBUGGING, OCTETS
 19 .comment      00000053  00000000  00000000  00096767  2**0
                  CONTENTS, READONLY
 20 .debug_frame  0000453c  00000000  00000000  000967bc  2**2
                  CONTENTS, READONLY, DEBUGGING, OCTETS

Disassembly of section .text:

080000c0 <__do_global_dtors_aux>:
 80000c0:	b510      	push	{r4, lr}
 80000c2:	4c06      	ldr	r4, [pc, #24]	; (80000dc <__do_global_dtors_aux+0x1c>)
 80000c4:	7823      	ldrb	r3, [r4, #0]
 80000c6:	2b00      	cmp	r3, #0
 80000c8:	d107      	bne.n	80000da <__do_global_dtors_aux+0x1a>
 80000ca:	4b05      	ldr	r3, [pc, #20]	; (80000e0 <__do_global_dtors_aux+0x20>)
 80000cc:	2b00      	cmp	r3, #0
 80000ce:	d002      	beq.n	80000d6 <__do_global_dtors_aux+0x16>
 80000d0:	4804      	ldr	r0, [pc, #16]	; (80000e4 <__do_global_dtors_aux+0x24>)
 80000d2:	e000      	b.n	80000d6 <__do_global_dtors_aux+0x16>
 80000d4:	bf00      	nop
 80000d6:	2301      	movs	r3, #1
 80000d8:	7023      	strb	r3, [r4, #0]
 80000da:	bd10      	pop	{r4, pc}
 80000dc:	20000228 	.word	0x20000228
 80000e0:	00000000 	.word	0x00000000
 80000e4:	08006cb0 	.word	0x08006cb0

080000e8 <frame_dummy>:
 80000e8:	4b04      	ldr	r3, [pc, #16]	; (80000fc <frame_dummy+0x14>)
 80000ea:	b510      	push	{r4, lr}
 80000ec:	2b00      	cmp	r3, #0
 80000ee:	d003      	beq.n	80000f8 <frame_dummy+0x10>
 80000f0:	4903      	ldr	r1, [pc, #12]	; (8000100 <frame_dummy+0x18>)
 80000f2:	4804      	ldr	r0, [pc, #16]	; (8000104 <frame_dummy+0x1c>)
 80000f4:	e000      	b.n	80000f8 <frame_dummy+0x10>
 80000f6:	bf00      	nop
 80000f8:	bd10      	pop	{r4, pc}
 80000fa:	46c0      	nop			; (mov r8, r8)
 80000fc:	00000000 	.word	0x00000000
 8000100:	2000022c 	.word	0x2000022c
 8000104:	08006cb0 	.word	0x08006cb0

08000108 <strcmp>:
 8000108:	7802      	ldrb	r2, [r0, #0]
 800010a:	780b      	ldrb	r3, [r1, #0]
 800010c:	2a00      	cmp	r2, #0
 800010e:	d003      	beq.n	8000118 <strcmp+0x10>
 8000110:	3001      	adds	r0, #1
 8000112:	3101      	adds	r1, #1
 8000114:	429a      	cmp	r2, r3
 8000116:	d0f7      	beq.n	8000108 <strcmp>
 8000118:	1ad0      	subs	r0, r2, r3
 800011a:	4770      	bx	lr

0800011c <strlen>:
 800011c:	2300      	movs	r3, #0
 800011e:	5cc2      	ldrb	r2, [r0, r3]
 8000120:	3301      	adds	r3, #1
 8000122:	2a00      	cmp	r2, #0
 8000124:	d1fb      	bne.n	800011e <strlen+0x2>
 8000126:	1e58      	subs	r0, r3, #1
 8000128:	4770      	bx	lr
	...

0800012c <__gnu_thumb1_case_uqi>:
 800012c:	b402      	push	{r1}
 800012e:	4671      	mov	r1, lr
 8000130:	0849      	lsrs	r1, r1, #1
 8000132:	0049      	lsls	r1, r1, #1
 8000134:	5c09      	ldrb	r1, [r1, r0]
 8000136:	0049      	lsls	r1, r1, #1
 8000138:	448e      	add	lr, r1
 800013a:	bc02      	pop	{r1}
 800013c:	4770      	bx	lr
 800013e:	46c0      	nop			; (mov r8, r8)

08000140 <__gnu_thumb1_case_shi>:
 8000140:	b403      	push	{r0, r1}
 8000142:	4671      	mov	r1, lr
 8000144:	0849      	lsrs	r1, r1, #1
 8000146:	0040      	lsls	r0, r0, #1
 8000148:	0049      	lsls	r1, r1, #1
 800014a:	5e09      	ldrsh	r1, [r1, r0]
 800014c:	0049      	lsls	r1, r1, #1
 800014e:	448e      	add	lr, r1
 8000150:	bc03      	pop	{r0, r1}
 8000152:	4770      	bx	lr

08000154 <__gnu_thumb1_case_uhi>:
 8000154:	b403      	push	{r0, r1}
 8000156:	4671      	mov	r1, lr
 8000158:	0849      	lsrs	r1, r1, #1
 800015a:	0040      	lsls	r0, r0, #1
 800015c:	0049      	lsls	r1, r1, #1
 800015e:	5a09      	ldrh	r1, [r1, r0]
 8000160:	0049      	lsls	r1, r1, #1
 8000162:	448e      	add	lr, r1
 8000164:	bc03      	pop	{r0, r1}
 8000166:	4770      	bx	lr

08000168 <__udivsi3>:
 8000168:	2200      	movs	r2, #0
 800016a:	0843      	lsrs	r3, r0, #1
 800016c:	428b      	cmp	r3, r1
 800016e:	d374      	bcc.n	800025a <__udivsi3+0xf2>
 8000170:	0903      	lsrs	r3, r0, #4
 8000172:	428b      	cmp	r3, r1
 8000174:	d35f      	bcc.n	8000236 <__udivsi3+0xce>
 8000176:	0a03      	lsrs	r3, r0, #8
 8000178:	428b      	cmp	r3, r1
 800017a:	d344      	bcc.n	8000206 <__udivsi3+0x9e>
 800017c:	0b03      	lsrs	r3, r0, #12
 800017e:	428b      	cmp	r3, r1
 8000180:	d328      	bcc.n	80001d4 <__udivsi3+0x6c>
 8000182:	0c03      	lsrs	r3, r0, #16
 8000184:	428b      	cmp	r3, r1
 8000186:	d30d      	bcc.n	80001a4 <__udivsi3+0x3c>
 8000188:	22ff      	movs	r2, #255	; 0xff
 800018a:	0209      	lsls	r1, r1, #8
 800018c:	ba12      	rev	r2, r2
 800018e:	0c03      	lsrs	r3, r0, #16
 8000190:	428b      	cmp	r3, r1
 8000192:	d302      	bcc.n	800019a <__udivsi3+0x32>
 8000194:	1212      	asrs	r2, r2, #8
 8000196:	0209      	lsls	r1, r1, #8
 8000198:	d065      	beq.n	8000266 <__udivsi3+0xfe>
 800019a:	0b03      	lsrs	r3, r0, #12
 800019c:	428b      	cmp	r3, r1
 800019e:	d319      	bcc.n	80001d4 <__udivsi3+0x6c>
 80001a0:	e000      	b.n	80001a4 <__udivsi3+0x3c>
 80001a2:	0a09      	lsrs	r1, r1, #8
 80001a4:	0bc3      	lsrs	r3, r0, #15
 80001a6:	428b      	cmp	r3, r1
 80001a8:	d301      	bcc.n	80001ae <__udivsi3+0x46>
 80001aa:	03cb      	lsls	r3, r1, #15
 80001ac:	1ac0      	subs	r0, r0, r3
 80001ae:	4152      	adcs	r2, r2
 80001b0:	0b83      	lsrs	r3, r0, #14
 80001b2:	428b      	cmp	r3, r1
 80001b4:	d301      	bcc.n	80001ba <__udivsi3+0x52>
 80001b6:	038b      	lsls	r3, r1, #14
 80001b8:	1ac0      	subs	r0, r0, r3
 80001ba:	4152      	adcs	r2, r2
 80001bc:	0b43      	lsrs	r3, r0, #13
 80001be:	428b      	cmp	r3, r1
 80001c0:	d301      	bcc.n	80001c6 <__udivsi3+0x5e>
 80001c2:	034b      	lsls	r3, r1, #13
 80001c4:	1ac0      	subs	r0, r0, r3
 80001c6:	4152      	adcs	r2, r2
 80001c8:	0b03      	lsrs	r3, r0, #12
 80001ca:	428b      	cmp	r3, r1
 80001cc:	d301      	bcc.n	80001d2 <__udivsi3+0x6a>
 80001ce:	030b      	lsls	r3, r1, #12
 80001d0:	1ac0      	subs	r0, r0, r3
 80001d2:	4152      	adcs	r2, r2
 80001d4:	0ac3      	lsrs	r3, r0, #11
 80001d6:	428b      	cmp	r3, r1
 80001d8:	d301      	bcc.n	80001de <__udivsi3+0x76>
 80001da:	02cb      	lsls	r3, r1, #11
 80001dc:	1ac0      	subs	r0, r0, r3
 80001de:	4152      	adcs	r2, r2
 80001e0:	0a83      	lsrs	r3, r0, #10
 80001e2:	428b      	cmp	r3, r1
 80001e4:	d301      	bcc.n	80001ea <__udivsi3+0x82>
 80001e6:	028b      	lsls	r3, r1, #10
 80001e8:	1ac0      	subs	r0, r0, r3
 80001ea:	4152      	adcs	r2, r2
 80001ec:	0a43      	lsrs	r3, r0, #9
 80001ee:	428b      	cmp	r3, r1
 80001f0:	d301      	bcc.n	80001f6 <__udivsi3+0x8e>
 80001f2:	024b      	lsls	r3, r1, #9
 80001f4:	1ac0      	subs	r0, r0, r3
 80001f6:	4152      	adcs	r2, r2
 80001f8:	0a03      	lsrs	r3, r0, #8
 80001fa:	428b      	cmp	r3, r1
 80001fc:	d301      	bcc.n	8000202 <__udivsi3+0x9a>
 80001fe:	020b      	lsls	r3, r1, #8
 8000200:	1ac0      	subs	r0, r0, r3
 8000202:	4152      	adcs	r2, r2
 8000204:	d2cd      	bcs.n	80001a2 <__udivsi3+0x3a>
 8000206:	09c3      	lsrs	r3, r0, #7
 8000208:	428b      	cmp	r3, r1
 800020a:	d301      	bcc.n	8000210 <__udivsi3+0xa8>
 800020c:	01cb      	lsls	r3, r1, #7
 800020e:	1ac0      	subs	r0, r0, r3
 8000210:	4152      	adcs	r2, r2
 8000212:	0983      	lsrs	r3, r0, #6
 8000214:	428b      	cmp	r3, r1
 8000216:	d301      	bcc.n	800021c <__udivsi3+0xb4>
 8000218:	018b      	lsls	r3, r1, #6
 800021a:	1ac0      	subs	r0, r0, r3
 800021c:	4152      	adcs	r2, r2
 800021e:	0943      	lsrs	r3, r0, #5
 8000220:	428b      	cmp	r3, r1
 8000222:	d301      	bcc.n	8000228 <__udivsi3+0xc0>
 8000224:	014b      	lsls	r3, r1, #5
 8000226:	1ac0      	subs	r0, r0, r3
 8000228:	4152      	adcs	r2, r2
 800022a:	0903      	lsrs	r3, r0, #4
 800022c:	428b      	cmp	r3, r1
 800022e:	d301      	bcc.n	8000234 <__udivsi3+0xcc>
 8000230:	010b      	lsls	r3, r1, #4
 8000232:	1ac0      	subs	r0, r0, r3
 8000234:	4152      	adcs	r2, r2
 8000236:	08c3      	lsrs	r3, r0, #3
 8000238:	428b      	cmp	r3, r1
 800023a:	d301      	bcc.n	8000240 <__udivsi3+0xd8>
 800023c:	00cb      	lsls	r3, r1, #3
 800023e:	1ac0      	subs	r0, r0, r3
 8000240:	4152      	adcs	r2, r2
 8000242:	0883      	lsrs	r3, r0, #2
 8000244:	428b      	cmp	r3, r1
 8000246:	d301      	bcc.n	800024c <__udivsi3+0xe4>
 8000248:	008b      	lsls	r3, r1, #2
 800024a:	1ac0      	subs	r0, r0, r3
 800024c:	4152      	adcs	r2, r2
 800024e:	0843      	lsrs	r3, r0, #1
 8000250:	428b      	cmp	r3, r1
 8000252:	d301      	bcc.n	8000258 <__udivsi3+0xf0>
 8000254:	004b      	lsls	r3, r1, #1
 8000256:	1ac0      	subs	r0, r0, r3
 8000258:	4152      	adcs	r2, r2
 800025a:	1a41      	subs	r1, r0, r1
 800025c:	d200      	bcs.n	8000260 <__udivsi3+0xf8>
 800025e:	4601      	mov	r1, r0
 8000260:	4152      	adcs	r2, r2
 8000262:	4610      	mov	r0, r2
 8000264:	4770      	bx	lr
 8000266:	e7ff      	b.n	8000268 <__udivsi3+0x100>
 8000268:	b501      	push	{r0, lr}
 800026a:	2000      	movs	r0, #0
 800026c:	f000 f806 	bl	800027c <__aeabi_idiv0>
 8000270:	bd02      	pop	{r1, pc}
 8000272:	46c0      	nop			; (mov r8, r8)

08000274 <__aeabi_uidivmod>:
 8000274:	2900      	cmp	r1, #0
 8000276:	d0f7      	beq.n	8000268 <__udivsi3+0x100>
 8000278:	e776      	b.n	8000168 <__udivsi3>
 800027a:	4770      	bx	lr

0800027c <__aeabi_idiv0>:
 800027c:	4770      	bx	lr
 800027e:	46c0      	nop			; (mov r8, r8)

08000280 <__aeabi_llsr>:
 8000280:	40d0      	lsrs	r0, r2
 8000282:	1c0b      	adds	r3, r1, #0
 8000284:	40d1      	lsrs	r1, r2
 8000286:	469c      	mov	ip, r3
 8000288:	3a20      	subs	r2, #32
 800028a:	40d3      	lsrs	r3, r2
 800028c:	4318      	orrs	r0, r3
 800028e:	4252      	negs	r2, r2
 8000290:	4663      	mov	r3, ip
 8000292:	4093      	lsls	r3, r2
 8000294:	4318      	orrs	r0, r3
 8000296:	4770      	bx	lr

08000298 <clearBuf>:

}

void clearBuf(char* buf){
	int j;
	for(j=0;j<BUF_LEN;j++)
 8000298:	0003      	movs	r3, r0
		buf[j] = 0;
 800029a:	2200      	movs	r2, #0
 800029c:	3328      	adds	r3, #40	; 0x28
 800029e:	7002      	strb	r2, [r0, #0]
	for(j=0;j<BUF_LEN;j++)
 80002a0:	3001      	adds	r0, #1
 80002a2:	4298      	cmp	r0, r3
 80002a4:	d1fb      	bne.n	800029e <clearBuf+0x6>
}
 80002a6:	4770      	bx	lr

080002a8 <POST>:
void POST(){
 80002a8:	b5f0      	push	{r4, r5, r6, r7, lr}
 80002aa:	b095      	sub	sp, #84	; 0x54
	EnableSPI();
 80002ac:	f000 fc1e 	bl	8000aec <EnableSPI>
 80002b0:	2400      	movs	r4, #0
 80002b2:	2501      	movs	r5, #1
		clearBuf(buf);
 80002b4:	a80a      	add	r0, sp, #40	; 0x28
 80002b6:	f7ff ffef 	bl	8000298 <clearBuf>
				abuf[j] = 0;
 80002ba:	2300      	movs	r3, #0
 80002bc:	1c66      	adds	r6, r4, #1
		sprintf(buf,"Flash %d: ",i+1);
 80002be:	4944      	ldr	r1, [pc, #272]	; (80003d0 <POST+0x128>)
 80002c0:	0032      	movs	r2, r6
 80002c2:	a80a      	add	r0, sp, #40	; 0x28
				abuf[j] = 0;
 80002c4:	9306      	str	r3, [sp, #24]
				bbuf[j] = 0;
 80002c6:	9308      	str	r3, [sp, #32]
		sprintf(buf,"Flash %d: ",i+1);
 80002c8:	f006 f834 	bl	8006334 <siprintf>
		UART_putstr(buf);
 80002cc:	a80a      	add	r0, sp, #40	; 0x28
 80002ce:	f000 fafd 	bl	80008cc <UART_putstr>
		if(SPI_ReadID(i,&conf) == HAL_OK){
 80002d2:	b2e0      	uxtb	r0, r4
 80002d4:	a904      	add	r1, sp, #16
 80002d6:	f000 ff97 	bl	8001208 <SPI_ReadID>
 80002da:	2800      	cmp	r0, #0
 80002dc:	d000      	beq.n	80002e0 <POST+0x38>
 80002de:	e071      	b.n	80003c4 <POST+0x11c>
			switch(conf.MemoryType){
 80002e0:	466b      	mov	r3, sp
 80002e2:	7c5b      	ldrb	r3, [r3, #17]
				sprintf(abuf,"3");
 80002e4:	493b      	ldr	r1, [pc, #236]	; (80003d4 <POST+0x12c>)
			switch(conf.MemoryType){
 80002e6:	2bba      	cmp	r3, #186	; 0xba
 80002e8:	d005      	beq.n	80002f6 <POST+0x4e>
 80002ea:	2bbb      	cmp	r3, #187	; 0xbb
 80002ec:	d002      	beq.n	80002f4 <POST+0x4c>
				sprintf(abuf,"?");
 80002ee:	493a      	ldr	r1, [pc, #232]	; (80003d8 <POST+0x130>)
			switch(conf.MemoryType){
 80002f0:	2b60      	cmp	r3, #96	; 0x60
 80002f2:	d100      	bne.n	80002f6 <POST+0x4e>
				sprintf(abuf,"1.8");
 80002f4:	4939      	ldr	r1, [pc, #228]	; (80003dc <POST+0x134>)
				sprintf(abuf,"?");
 80002f6:	a806      	add	r0, sp, #24
 80002f8:	f006 f83c 	bl	8006374 <strcpy>
			switch(conf.MemoryCapacity){
 80002fc:	466b      	mov	r3, sp
 80002fe:	7c98      	ldrb	r0, [r3, #18]
 8000300:	3817      	subs	r0, #23
 8000302:	280b      	cmp	r0, #11
 8000304:	d85c      	bhi.n	80003c0 <POST+0x118>
 8000306:	f7ff ff11 	bl	800012c <__gnu_thumb1_case_uqi>
 800030a:	5759      	.short	0x5759
 800030c:	5b5b5b55 	.word	0x5b5b5b55
 8000310:	535b5b5b 	.word	0x535b5b5b
 8000314:	0651      	.short	0x0651
				sprintf(bbuf,"2Gb");
 8000316:	4932      	ldr	r1, [pc, #200]	; (80003e0 <POST+0x138>)
				sprintf(bbuf,"?");
 8000318:	a808      	add	r0, sp, #32
 800031a:	f006 f82b 	bl	8006374 <strcpy>
		sprintf(buf,"%sV %s\r\n",abuf, bbuf);
 800031e:	4931      	ldr	r1, [pc, #196]	; (80003e4 <POST+0x13c>)
 8000320:	ab08      	add	r3, sp, #32
 8000322:	aa06      	add	r2, sp, #24
 8000324:	a80a      	add	r0, sp, #40	; 0x28
 8000326:	f006 f805 	bl	8006334 <siprintf>
		UART_putstr(buf);
 800032a:	a80a      	add	r0, sp, #40	; 0x28
 800032c:	f000 face 	bl	80008cc <UART_putstr>
	for(i=0;i<2;i++){
 8000330:	002c      	movs	r4, r5
 8000332:	2e02      	cmp	r6, #2
 8000334:	d1be      	bne.n	80002b4 <POST+0xc>
	clearBuf(buf);
 8000336:	a80a      	add	r0, sp, #40	; 0x28
 8000338:	f7ff ffae 	bl	8000298 <clearBuf>
	abuf[0] = 0x03;
 800033c:	466a      	mov	r2, sp
	SFT_I2C_Master_Transmit(&si2c1,GPIO_EXPANDER_ADDR,abuf,2,1);
 800033e:	4f2a      	ldr	r7, [pc, #168]	; (80003e8 <POST+0x140>)
	abuf[0] = 0x03;
 8000340:	4b2a      	ldr	r3, [pc, #168]	; (80003ec <POST+0x144>)
	SFT_I2C_Master_Transmit(&si2c1,GPIO_EXPANDER_ADDR,abuf,2,1);
 8000342:	2140      	movs	r1, #64	; 0x40
	abuf[0] = 0x03;
 8000344:	8313      	strh	r3, [r2, #24]
	SFT_I2C_Master_Transmit(&si2c1,GPIO_EXPANDER_ADDR,abuf,2,1);
 8000346:	0038      	movs	r0, r7
 8000348:	aa06      	add	r2, sp, #24
 800034a:	0033      	movs	r3, r6
	uint8_t tester = 0x03;
 800034c:	240f      	movs	r4, #15
	SFT_I2C_Master_Transmit(&si2c1,GPIO_EXPANDER_ADDR,abuf,2,1);
 800034e:	9500      	str	r5, [sp, #0]
 8000350:	f000 f968 	bl	8000624 <SFT_I2C_Master_Transmit>
	uint8_t tester = 0x03;
 8000354:	2303      	movs	r3, #3
 8000356:	446c      	add	r4, sp
	UART_putstr("I/O Expander: ");
 8000358:	4825      	ldr	r0, [pc, #148]	; (80003f0 <POST+0x148>)
	uint8_t tester = 0x03;
 800035a:	7023      	strb	r3, [r4, #0]
	UART_putstr("I/O Expander: ");
 800035c:	f000 fab6 	bl	80008cc <UART_putstr>
	SFT_I2C_Master_Transmit(&si2c1,GPIO_EXPANDER_ADDR,&tester,1,1);
 8000360:	2301      	movs	r3, #1
 8000362:	0022      	movs	r2, r4
 8000364:	2140      	movs	r1, #64	; 0x40
 8000366:	0038      	movs	r0, r7
 8000368:	9500      	str	r5, [sp, #0]
 800036a:	f000 f95b 	bl	8000624 <SFT_I2C_Master_Transmit>
	tester = 0;
 800036e:	2300      	movs	r3, #0
	SFT_I2C_Master_Receive(&si2c1,GPIO_EXPANDER_ADDR,&tester,1,1);
 8000370:	0038      	movs	r0, r7
	tester = 0;
 8000372:	7023      	strb	r3, [r4, #0]
	SFT_I2C_Master_Receive(&si2c1,GPIO_EXPANDER_ADDR,&tester,1,1);
 8000374:	0022      	movs	r2, r4
 8000376:	3301      	adds	r3, #1
 8000378:	2140      	movs	r1, #64	; 0x40
 800037a:	9500      	str	r5, [sp, #0]
 800037c:	f000 f96f 	bl	800065e <SFT_I2C_Master_Receive>
	if(tester==0b01010101)
 8000380:	7823      	ldrb	r3, [r4, #0]
		UART_putstr("OK\r\n");
 8000382:	481c      	ldr	r0, [pc, #112]	; (80003f4 <POST+0x14c>)
	if(tester==0b01010101)
 8000384:	2b55      	cmp	r3, #85	; 0x55
 8000386:	d000      	beq.n	800038a <POST+0xe2>
		UART_putstr("FAILED\r\n");
 8000388:	481b      	ldr	r0, [pc, #108]	; (80003f8 <POST+0x150>)
 800038a:	f000 fa9f 	bl	80008cc <UART_putstr>
	abuf[1] = 0;
 800038e:	466a      	mov	r2, sp
 8000390:	2300      	movs	r3, #0
 8000392:	7653      	strb	r3, [r2, #25]
	SFT_I2C_Master_Transmit(&si2c1,GPIO_EXPANDER_ADDR,abuf,2,1);
 8000394:	3301      	adds	r3, #1
 8000396:	2140      	movs	r1, #64	; 0x40
 8000398:	0038      	movs	r0, r7
 800039a:	9300      	str	r3, [sp, #0]
 800039c:	aa06      	add	r2, sp, #24
 800039e:	3301      	adds	r3, #1
 80003a0:	f000 f940 	bl	8000624 <SFT_I2C_Master_Transmit>
	DisableSPI();
 80003a4:	f000 fa1a 	bl	80007dc <DisableSPI>
}
 80003a8:	b015      	add	sp, #84	; 0x54
 80003aa:	bdf0      	pop	{r4, r5, r6, r7, pc}
				sprintf(bbuf,"1Gb");
 80003ac:	4913      	ldr	r1, [pc, #76]	; (80003fc <POST+0x154>)
 80003ae:	e7b3      	b.n	8000318 <POST+0x70>
				sprintf(bbuf,"512Mb");
 80003b0:	4913      	ldr	r1, [pc, #76]	; (8000400 <POST+0x158>)
 80003b2:	e7b1      	b.n	8000318 <POST+0x70>
				sprintf(bbuf,"256Mb");
 80003b4:	4913      	ldr	r1, [pc, #76]	; (8000404 <POST+0x15c>)
 80003b6:	e7af      	b.n	8000318 <POST+0x70>
				sprintf(bbuf,"128Mb");
 80003b8:	4913      	ldr	r1, [pc, #76]	; (8000408 <POST+0x160>)
 80003ba:	e7ad      	b.n	8000318 <POST+0x70>
				sprintf(bbuf,"64Mb");
 80003bc:	4913      	ldr	r1, [pc, #76]	; (800040c <POST+0x164>)
 80003be:	e7ab      	b.n	8000318 <POST+0x70>
				sprintf(bbuf,"?");
 80003c0:	4905      	ldr	r1, [pc, #20]	; (80003d8 <POST+0x130>)
 80003c2:	e7a9      	b.n	8000318 <POST+0x70>
			sprintf(buf,"FAILED\r\n");
 80003c4:	490c      	ldr	r1, [pc, #48]	; (80003f8 <POST+0x150>)
 80003c6:	a80a      	add	r0, sp, #40	; 0x28
 80003c8:	f005 ffd4 	bl	8006374 <strcpy>
 80003cc:	e7ad      	b.n	800032a <POST+0x82>
 80003ce:	46c0      	nop			; (mov r8, r8)
 80003d0:	08006cc8 	.word	0x08006cc8
 80003d4:	08006cd3 	.word	0x08006cd3
 80003d8:	08006cd9 	.word	0x08006cd9
 80003dc:	08006cd5 	.word	0x08006cd5
 80003e0:	08006cdb 	.word	0x08006cdb
 80003e4:	08006cfa 	.word	0x08006cfa
 80003e8:	20000780 	.word	0x20000780
 80003ec:	00005503 	.word	0x00005503
 80003f0:	08006d0c 	.word	0x08006d0c
 80003f4:	08006d1b 	.word	0x08006d1b
 80003f8:	08006d03 	.word	0x08006d03
 80003fc:	08006cdf 	.word	0x08006cdf
 8000400:	08006ce3 	.word	0x08006ce3
 8000404:	08006ce9 	.word	0x08006ce9
 8000408:	08006cef 	.word	0x08006cef
 800040c:	08006cf5 	.word	0x08006cf5

08000410 <setLineDirection>:
	}
	setLineDirection(&(hi2c->scl),I2C_OUTPUT|((params)&(I2C_PULLUP)));
	setLineDirection(&(hi2c->sda),I2C_OUTPUT|((params)&(I2C_PULLUP)));
}

void setLineDirection(struct sPinPack *line,uint8_t params){
 8000410:	b530      	push	{r4, r5, lr}
 8000412:	0004      	movs	r4, r0
 8000414:	000d      	movs	r5, r1
 8000416:	b087      	sub	sp, #28
	// 1 - output
	// 0 - input
	GPIO_InitTypeDef GPIO_InitStruct = {0};
 8000418:	2208      	movs	r2, #8
 800041a:	2100      	movs	r1, #0
 800041c:	a804      	add	r0, sp, #16
 800041e:	f005 ff80 	bl	8006322 <memset>
	GPIO_InitStruct.Pin = line->GPIO_pin;
 8000422:	6863      	ldr	r3, [r4, #4]
 8000424:	9301      	str	r3, [sp, #4]
	GPIO_InitStruct.Mode = (params & I2C_INPUT)? GPIO_MODE_INPUT : GPIO_MODE_OUTPUT_OD;
 8000426:	2300      	movs	r3, #0
 8000428:	07aa      	lsls	r2, r5, #30
 800042a:	d400      	bmi.n	800042e <setLineDirection+0x1e>
 800042c:	3311      	adds	r3, #17
 800042e:	9302      	str	r3, [sp, #8]
	GPIO_InitStruct.Pull = (params & I2C_PULLUP)? GPIO_PULLUP : GPIO_NOPULL;
 8000430:	2301      	movs	r3, #1
	HAL_GPIO_Init(line->GPIOx, &GPIO_InitStruct);
 8000432:	6820      	ldr	r0, [r4, #0]
	GPIO_InitStruct.Pull = (params & I2C_PULLUP)? GPIO_PULLUP : GPIO_NOPULL;
 8000434:	402b      	ands	r3, r5
	HAL_GPIO_Init(line->GPIOx, &GPIO_InitStruct);
 8000436:	a901      	add	r1, sp, #4
	GPIO_InitStruct.Pull = (params & I2C_PULLUP)? GPIO_PULLUP : GPIO_NOPULL;
 8000438:	9303      	str	r3, [sp, #12]
	HAL_GPIO_Init(line->GPIOx, &GPIO_InitStruct);
 800043a:	f001 ff89 	bl	8002350 <HAL_GPIO_Init>
	line->params = params;
 800043e:	7225      	strb	r5, [r4, #8]
}
 8000440:	b007      	add	sp, #28
 8000442:	bd30      	pop	{r4, r5, pc}

08000444 <SFT_I2C_Init>:
void SFT_I2C_Init(GPIO_TypeDef *SCL_GPIOx, uint16_t *SCL_GPIO_pin,GPIO_TypeDef *SDA_GPIOx, uint16_t *SDA_GPIO_pin,I2C_handler *hi2c,uint8_t params){
 8000444:	b510      	push	{r4, lr}
 8000446:	9c02      	ldr	r4, [sp, #8]
	if(hi2c!=NULL){
 8000448:	2c00      	cmp	r4, #0
 800044a:	d003      	beq.n	8000454 <SFT_I2C_Init+0x10>
		hi2c->scl.GPIO_pin = SCL_GPIO_pin;
 800044c:	6061      	str	r1, [r4, #4]
		hi2c->scl.GPIOx = SCL_GPIOx;
 800044e:	6020      	str	r0, [r4, #0]
		hi2c->sda.GPIO_pin = SDA_GPIO_pin;
 8000450:	6123      	str	r3, [r4, #16]
		hi2c->sda.GPIOx = SDA_GPIOx;
 8000452:	60e2      	str	r2, [r4, #12]
	setLineDirection(&(hi2c->scl),I2C_OUTPUT|((params)&(I2C_PULLUP)));
 8000454:	2103      	movs	r1, #3
 8000456:	0020      	movs	r0, r4
 8000458:	4249      	negs	r1, r1
 800045a:	f7ff ffd9 	bl	8000410 <setLineDirection>
	setLineDirection(&(hi2c->sda),I2C_OUTPUT|((params)&(I2C_PULLUP)));
 800045e:	0020      	movs	r0, r4
 8000460:	2103      	movs	r1, #3
 8000462:	300c      	adds	r0, #12
 8000464:	4249      	negs	r1, r1
 8000466:	f7ff ffd3 	bl	8000410 <setLineDirection>
}
 800046a:	bd10      	pop	{r4, pc}

0800046c <startCondition>:

void startCondition(struct Shandler *si2c){
 800046c:	b510      	push	{r4, lr}
 800046e:	0004      	movs	r4, r0
	HAL_GPIO_WritePin(si2c->sda.GPIOx,si2c->sda.GPIO_pin,1);
 8000470:	6903      	ldr	r3, [r0, #16]
 8000472:	2201      	movs	r2, #1
 8000474:	b299      	uxth	r1, r3
 8000476:	68c0      	ldr	r0, [r0, #12]
 8000478:	f002 f888 	bl	800258c <HAL_GPIO_WritePin>
	HAL_GPIO_WritePin(si2c->scl.GPIOx,si2c->scl.GPIO_pin,1);
 800047c:	6863      	ldr	r3, [r4, #4]
 800047e:	2201      	movs	r2, #1
 8000480:	b299      	uxth	r1, r3
 8000482:	6820      	ldr	r0, [r4, #0]
 8000484:	f002 f882 	bl	800258c <HAL_GPIO_WritePin>
	uint32_t value = HAL_RCC_GetSysClockFreq();
 8000488:	f003 fa46 	bl	8003918 <HAL_RCC_GetSysClockFreq>
	I2C_Delay(I2C_DELAY_US);
	HAL_GPIO_WritePin(si2c->sda.GPIOx,si2c->sda.GPIO_pin,0);
 800048c:	6923      	ldr	r3, [r4, #16]
 800048e:	2200      	movs	r2, #0
 8000490:	b299      	uxth	r1, r3
 8000492:	68e0      	ldr	r0, [r4, #12]
 8000494:	f002 f87a 	bl	800258c <HAL_GPIO_WritePin>
	uint32_t value = HAL_RCC_GetSysClockFreq();
 8000498:	f003 fa3e 	bl	8003918 <HAL_RCC_GetSysClockFreq>
	I2C_Delay(I2C_DELAY_US);
	HAL_GPIO_WritePin(si2c->scl.GPIOx,si2c->scl.GPIO_pin,0);
 800049c:	6863      	ldr	r3, [r4, #4]
 800049e:	2200      	movs	r2, #0
 80004a0:	b299      	uxth	r1, r3
 80004a2:	6820      	ldr	r0, [r4, #0]
 80004a4:	f002 f872 	bl	800258c <HAL_GPIO_WritePin>
	uint32_t value = HAL_RCC_GetSysClockFreq();
 80004a8:	f003 fa36 	bl	8003918 <HAL_RCC_GetSysClockFreq>
	I2C_Delay(I2C_DELAY_US);
	HAL_GPIO_WritePin(si2c->sda.GPIOx,si2c->sda.GPIO_pin,1);
 80004ac:	6923      	ldr	r3, [r4, #16]
 80004ae:	2201      	movs	r2, #1
 80004b0:	68e0      	ldr	r0, [r4, #12]
 80004b2:	b299      	uxth	r1, r3
 80004b4:	f002 f86a 	bl	800258c <HAL_GPIO_WritePin>
}
 80004b8:	bd10      	pop	{r4, pc}

080004ba <stopCondition>:

void stopCondition(struct Shandler *si2c){
 80004ba:	b510      	push	{r4, lr}
 80004bc:	0004      	movs	r4, r0
	HAL_GPIO_WritePin(si2c->sda.GPIOx,si2c->sda.GPIO_pin,0);
 80004be:	6903      	ldr	r3, [r0, #16]
 80004c0:	2200      	movs	r2, #0
 80004c2:	b299      	uxth	r1, r3
 80004c4:	68c0      	ldr	r0, [r0, #12]
 80004c6:	f002 f861 	bl	800258c <HAL_GPIO_WritePin>
	uint32_t value = HAL_RCC_GetSysClockFreq();
 80004ca:	f003 fa25 	bl	8003918 <HAL_RCC_GetSysClockFreq>
	I2C_Delay(I2C_DELAY_US);
	HAL_GPIO_WritePin(si2c->scl.GPIOx,si2c->scl.GPIO_pin,1);
 80004ce:	6863      	ldr	r3, [r4, #4]
 80004d0:	2201      	movs	r2, #1
 80004d2:	b299      	uxth	r1, r3
 80004d4:	6820      	ldr	r0, [r4, #0]
 80004d6:	f002 f859 	bl	800258c <HAL_GPIO_WritePin>
	uint32_t value = HAL_RCC_GetSysClockFreq();
 80004da:	f003 fa1d 	bl	8003918 <HAL_RCC_GetSysClockFreq>
	I2C_Delay(I2C_DELAY_US);
	HAL_GPIO_WritePin(si2c->sda.GPIOx,si2c->sda.GPIO_pin,1);
 80004de:	6923      	ldr	r3, [r4, #16]
 80004e0:	2201      	movs	r2, #1
 80004e2:	68e0      	ldr	r0, [r4, #12]
 80004e4:	b299      	uxth	r1, r3
 80004e6:	f002 f851 	bl	800258c <HAL_GPIO_WritePin>

}
 80004ea:	bd10      	pop	{r4, pc}

080004ec <sendByte>:

void sendByte(struct Shandler *si2c,uint8_t byte){
 80004ec:	b5f8      	push	{r3, r4, r5, r6, r7, lr}
 80004ee:	0004      	movs	r4, r0
 80004f0:	000e      	movs	r6, r1
	int i;
	for(i=7;i>=0;i--){
 80004f2:	2507      	movs	r5, #7
		HAL_GPIO_WritePin(si2c->sda.GPIOx,si2c->sda.GPIO_pin,byte&(1<<i));
 80004f4:	2701      	movs	r7, #1
 80004f6:	003a      	movs	r2, r7
 80004f8:	40aa      	lsls	r2, r5
 80004fa:	6923      	ldr	r3, [r4, #16]
 80004fc:	4032      	ands	r2, r6
 80004fe:	b299      	uxth	r1, r3
 8000500:	68e0      	ldr	r0, [r4, #12]
 8000502:	f002 f843 	bl	800258c <HAL_GPIO_WritePin>
	uint32_t value = HAL_RCC_GetSysClockFreq();
 8000506:	f003 fa07 	bl	8003918 <HAL_RCC_GetSysClockFreq>
		I2C_Delay(I2C_DELAY_US);
		HAL_GPIO_WritePin(si2c->scl.GPIOx,si2c->scl.GPIO_pin,1);
 800050a:	6863      	ldr	r3, [r4, #4]
 800050c:	2201      	movs	r2, #1
 800050e:	b299      	uxth	r1, r3
 8000510:	6820      	ldr	r0, [r4, #0]
 8000512:	f002 f83b 	bl	800258c <HAL_GPIO_WritePin>
	uint32_t value = HAL_RCC_GetSysClockFreq();
 8000516:	f003 f9ff 	bl	8003918 <HAL_RCC_GetSysClockFreq>
		I2C_Delay(I2C_DELAY_US);
		HAL_GPIO_WritePin(si2c->scl.GPIOx,si2c->scl.GPIO_pin,0);
 800051a:	6863      	ldr	r3, [r4, #4]
 800051c:	2200      	movs	r2, #0
 800051e:	6820      	ldr	r0, [r4, #0]
 8000520:	b299      	uxth	r1, r3
 8000522:	f002 f833 	bl	800258c <HAL_GPIO_WritePin>
	for(i=7;i>=0;i--){
 8000526:	3d01      	subs	r5, #1
 8000528:	d2e5      	bcs.n	80004f6 <sendByte+0xa>
	}
	HAL_GPIO_WritePin(si2c->sda.GPIOx,si2c->sda.GPIO_pin,1);
 800052a:	6923      	ldr	r3, [r4, #16]
 800052c:	2201      	movs	r2, #1
 800052e:	68e0      	ldr	r0, [r4, #12]
 8000530:	b299      	uxth	r1, r3
 8000532:	f002 f82b 	bl	800258c <HAL_GPIO_WritePin>
	uint32_t value = HAL_RCC_GetSysClockFreq();
 8000536:	f003 f9ef 	bl	8003918 <HAL_RCC_GetSysClockFreq>
	I2C_Delay(I2C_DELAY_US);

}
 800053a:	bdf8      	pop	{r3, r4, r5, r6, r7, pc}

0800053c <recvByte>:

uint8_t recvByte(struct Shandler *si2c,uint8_t lastByte){
 800053c:	b5f7      	push	{r0, r1, r2, r4, r5, r6, r7, lr}
	int i;
	uint8_t byte = 0;
	setLineDirection(&si2c->sda,I2C_INPUT|I2C_PULLUP);
 800053e:	0007      	movs	r7, r0
 8000540:	370c      	adds	r7, #12
uint8_t recvByte(struct Shandler *si2c,uint8_t lastByte){
 8000542:	9101      	str	r1, [sp, #4]
 8000544:	0004      	movs	r4, r0
	setLineDirection(&si2c->sda,I2C_INPUT|I2C_PULLUP);
 8000546:	2103      	movs	r1, #3
 8000548:	0038      	movs	r0, r7
 800054a:	f7ff ff61 	bl	8000410 <setLineDirection>
	uint8_t byte = 0;
 800054e:	2600      	movs	r6, #0
	for(i=7;i>=0;i--){
 8000550:	2507      	movs	r5, #7
		CLOCK_UP;
 8000552:	6863      	ldr	r3, [r4, #4]
 8000554:	2201      	movs	r2, #1
 8000556:	b299      	uxth	r1, r3
 8000558:	6820      	ldr	r0, [r4, #0]
 800055a:	f002 f817 	bl	800258c <HAL_GPIO_WritePin>
	uint32_t value = HAL_RCC_GetSysClockFreq();
 800055e:	f003 f9db 	bl	8003918 <HAL_RCC_GetSysClockFreq>
		I2C_Delay(I2C_DELAY_US);
		byte|=(HAL_GPIO_ReadPin(si2c->sda.GPIOx,si2c->sda.GPIO_pin))<<i;
 8000562:	6923      	ldr	r3, [r4, #16]
 8000564:	68e0      	ldr	r0, [r4, #12]
 8000566:	b299      	uxth	r1, r3
 8000568:	f002 f80a 	bl	8002580 <HAL_GPIO_ReadPin>
 800056c:	40a8      	lsls	r0, r5
		CLOCK_DOWN;
 800056e:	6863      	ldr	r3, [r4, #4]
		byte|=(HAL_GPIO_ReadPin(si2c->sda.GPIOx,si2c->sda.GPIO_pin))<<i;
 8000570:	4306      	orrs	r6, r0
		CLOCK_DOWN;
 8000572:	2200      	movs	r2, #0
 8000574:	6820      	ldr	r0, [r4, #0]
 8000576:	b299      	uxth	r1, r3
		byte|=(HAL_GPIO_ReadPin(si2c->sda.GPIOx,si2c->sda.GPIO_pin))<<i;
 8000578:	b2f6      	uxtb	r6, r6
		CLOCK_DOWN;
 800057a:	f002 f807 	bl	800258c <HAL_GPIO_WritePin>
	uint32_t value = HAL_RCC_GetSysClockFreq();
 800057e:	f003 f9cb 	bl	8003918 <HAL_RCC_GetSysClockFreq>
	for(i=7;i>=0;i--){
 8000582:	3d01      	subs	r5, #1
 8000584:	d2e5      	bcs.n	8000552 <recvByte+0x16>
		I2C_Delay(I2C_DELAY_US);
	}
	setLineDirection(&si2c->sda,I2C_OUTPUT|I2C_PULLUP);
 8000586:	21fd      	movs	r1, #253	; 0xfd
 8000588:	0038      	movs	r0, r7
 800058a:	f7ff ff41 	bl	8000410 <setLineDirection>
	if(!lastByte)
 800058e:	9b01      	ldr	r3, [sp, #4]
 8000590:	2b00      	cmp	r3, #0
 8000592:	d105      	bne.n	80005a0 <recvByte+0x64>
		HAL_GPIO_WritePin(si2c->sda.GPIOx,si2c->sda.GPIO_pin,ACK);
 8000594:	6923      	ldr	r3, [r4, #16]
 8000596:	9a01      	ldr	r2, [sp, #4]
 8000598:	68e0      	ldr	r0, [r4, #12]
 800059a:	b299      	uxth	r1, r3
 800059c:	f001 fff6 	bl	800258c <HAL_GPIO_WritePin>
	CLOCK_UP;
 80005a0:	6863      	ldr	r3, [r4, #4]
 80005a2:	2201      	movs	r2, #1
 80005a4:	b299      	uxth	r1, r3
 80005a6:	6820      	ldr	r0, [r4, #0]
 80005a8:	f001 fff0 	bl	800258c <HAL_GPIO_WritePin>
	uint32_t value = HAL_RCC_GetSysClockFreq();
 80005ac:	f003 f9b4 	bl	8003918 <HAL_RCC_GetSysClockFreq>
	I2C_Delay(I2C_DELAY_US);
	CLOCK_DOWN;
 80005b0:	6863      	ldr	r3, [r4, #4]
 80005b2:	6820      	ldr	r0, [r4, #0]
 80005b4:	b299      	uxth	r1, r3
 80005b6:	2200      	movs	r2, #0
 80005b8:	f001 ffe8 	bl	800258c <HAL_GPIO_WritePin>
	HAL_GPIO_WritePin(si2c->sda.GPIOx,si2c->sda.GPIO_pin,1);
 80005bc:	6923      	ldr	r3, [r4, #16]
 80005be:	2201      	movs	r2, #1
 80005c0:	68e0      	ldr	r0, [r4, #12]
 80005c2:	b299      	uxth	r1, r3
 80005c4:	f001 ffe2 	bl	800258c <HAL_GPIO_WritePin>
	uint32_t value = HAL_RCC_GetSysClockFreq();
 80005c8:	f003 f9a6 	bl	8003918 <HAL_RCC_GetSysClockFreq>
	I2C_Delay(I2C_DELAY_US);
	return byte;
}
 80005cc:	0030      	movs	r0, r6
 80005ce:	bdfe      	pop	{r1, r2, r3, r4, r5, r6, r7, pc}

080005d0 <readReceipt>:

uint8_t readReceipt(struct Shandler *si2c){
 80005d0:	b570      	push	{r4, r5, r6, lr}
 80005d2:	0004      	movs	r4, r0
	uint8_t result;
	HAL_GPIO_WritePin(si2c->scl.GPIOx,si2c->scl.GPIO_pin,1);
	setLineDirection(&si2c->sda,I2C_INPUT|I2C_PULLUP);
 80005d4:	0026      	movs	r6, r4
	HAL_GPIO_WritePin(si2c->scl.GPIOx,si2c->scl.GPIO_pin,1);
 80005d6:	6843      	ldr	r3, [r0, #4]
 80005d8:	2201      	movs	r2, #1
 80005da:	b299      	uxth	r1, r3
	setLineDirection(&si2c->sda,I2C_INPUT|I2C_PULLUP);
 80005dc:	360c      	adds	r6, #12
	HAL_GPIO_WritePin(si2c->scl.GPIOx,si2c->scl.GPIO_pin,1);
 80005de:	6800      	ldr	r0, [r0, #0]
 80005e0:	f001 ffd4 	bl	800258c <HAL_GPIO_WritePin>
	setLineDirection(&si2c->sda,I2C_INPUT|I2C_PULLUP);
 80005e4:	0030      	movs	r0, r6
 80005e6:	2103      	movs	r1, #3
 80005e8:	f7ff ff12 	bl	8000410 <setLineDirection>
	uint32_t value = HAL_RCC_GetSysClockFreq();
 80005ec:	f003 f994 	bl	8003918 <HAL_RCC_GetSysClockFreq>
	I2C_Delay(I2C_DELAY_US);
	result = HAL_GPIO_ReadPin(si2c->sda.GPIOx,si2c->sda.GPIO_pin);
 80005f0:	6923      	ldr	r3, [r4, #16]
 80005f2:	68e0      	ldr	r0, [r4, #12]
 80005f4:	b299      	uxth	r1, r3
 80005f6:	f001 ffc3 	bl	8002580 <HAL_GPIO_ReadPin>
 80005fa:	0005      	movs	r5, r0
	setLineDirection(&si2c->sda,I2C_OUTPUT|I2C_PULLUP);
 80005fc:	21fd      	movs	r1, #253	; 0xfd
 80005fe:	0030      	movs	r0, r6
 8000600:	f7ff ff06 	bl	8000410 <setLineDirection>
	HAL_GPIO_WritePin(si2c->scl.GPIOx,si2c->scl.GPIO_pin,0);
 8000604:	6863      	ldr	r3, [r4, #4]
 8000606:	6820      	ldr	r0, [r4, #0]
 8000608:	b299      	uxth	r1, r3
 800060a:	2200      	movs	r2, #0
 800060c:	f001 ffbe 	bl	800258c <HAL_GPIO_WritePin>
	HAL_GPIO_WritePin(si2c->sda.GPIOx,si2c->sda.GPIO_pin,1);
 8000610:	6923      	ldr	r3, [r4, #16]
 8000612:	2201      	movs	r2, #1
 8000614:	68e0      	ldr	r0, [r4, #12]
 8000616:	b299      	uxth	r1, r3
 8000618:	f001 ffb8 	bl	800258c <HAL_GPIO_WritePin>
	uint32_t value = HAL_RCC_GetSysClockFreq();
 800061c:	f003 f97c 	bl	8003918 <HAL_RCC_GetSysClockFreq>
	I2C_Delay(I2C_DELAY_US);
	return result;
}
 8000620:	0028      	movs	r0, r5
 8000622:	bd70      	pop	{r4, r5, r6, pc}

08000624 <SFT_I2C_Master_Transmit>:

void SFT_I2C_Master_Transmit(struct Shandler *si2c, uint8_t DevAddress, uint8_t *pData,uint16_t Size, uint8_t timeout){
 8000624:	b5f8      	push	{r3, r4, r5, r6, r7, lr}
 8000626:	0005      	movs	r5, r0
 8000628:	000f      	movs	r7, r1
 800062a:	0014      	movs	r4, r2
 800062c:	001e      	movs	r6, r3
	uint16_t i = -1;
	startCondition(si2c);
 800062e:	f7ff ff1d 	bl	800046c <startCondition>
	// address
	sendByte(si2c,DevAddress);
 8000632:	0039      	movs	r1, r7
 8000634:	0028      	movs	r0, r5
 8000636:	f7ff ff59 	bl	80004ec <sendByte>
	// data
	while((readReceipt(si2c) == ACK) && ++i<Size)
 800063a:	19a6      	adds	r6, r4, r6
 800063c:	0028      	movs	r0, r5
 800063e:	f7ff ffc7 	bl	80005d0 <readReceipt>
 8000642:	2800      	cmp	r0, #0
 8000644:	d101      	bne.n	800064a <SFT_I2C_Master_Transmit+0x26>
 8000646:	42b4      	cmp	r4, r6
 8000648:	d103      	bne.n	8000652 <SFT_I2C_Master_Transmit+0x2e>
		sendByte(si2c,pData[i]);
	stopCondition(si2c);
 800064a:	0028      	movs	r0, r5
 800064c:	f7ff ff35 	bl	80004ba <stopCondition>
}
 8000650:	bdf8      	pop	{r3, r4, r5, r6, r7, pc}
		sendByte(si2c,pData[i]);
 8000652:	7821      	ldrb	r1, [r4, #0]
 8000654:	0028      	movs	r0, r5
 8000656:	f7ff ff49 	bl	80004ec <sendByte>
 800065a:	3401      	adds	r4, #1
 800065c:	e7ee      	b.n	800063c <SFT_I2C_Master_Transmit+0x18>

0800065e <SFT_I2C_Master_Receive>:

void SFT_I2C_Master_Receive (struct Shandler *si2c, uint8_t DevAddress, uint8_t *pData,uint16_t Size, uint8_t timeout){
 800065e:	b5f7      	push	{r0, r1, r2, r4, r5, r6, r7, lr}
 8000660:	000e      	movs	r6, r1
 8000662:	0004      	movs	r4, r0
 8000664:	001d      	movs	r5, r3
 8000666:	9201      	str	r2, [sp, #4]
	uint16_t i = -1;
	startCondition(si2c);
 8000668:	f7ff ff00 	bl	800046c <startCondition>
	// address
	sendByte(si2c,DevAddress|1);
 800066c:	2101      	movs	r1, #1
 800066e:	0020      	movs	r0, r4
 8000670:	4331      	orrs	r1, r6
 8000672:	f7ff ff3b 	bl	80004ec <sendByte>
	readReceipt(si2c);
 8000676:	0020      	movs	r0, r4
 8000678:	f7ff ffaa 	bl	80005d0 <readReceipt>
	// data
	while(++i<Size)
 800067c:	2600      	movs	r6, #0
 800067e:	42ae      	cmp	r6, r5
 8000680:	d103      	bne.n	800068a <SFT_I2C_Master_Receive+0x2c>
		pData[i] = recvByte(si2c,(i+1==Size));
	stopCondition(si2c);
 8000682:	0020      	movs	r0, r4
 8000684:	f7ff ff19 	bl	80004ba <stopCondition>
}
 8000688:	bdf7      	pop	{r0, r1, r2, r4, r5, r6, r7, pc}
		pData[i] = recvByte(si2c,(i+1==Size));
 800068a:	1c77      	adds	r7, r6, #1
 800068c:	1be9      	subs	r1, r5, r7
 800068e:	424b      	negs	r3, r1
 8000690:	4159      	adcs	r1, r3
 8000692:	0020      	movs	r0, r4
 8000694:	b2c9      	uxtb	r1, r1
 8000696:	f7ff ff51 	bl	800053c <recvByte>
 800069a:	9b01      	ldr	r3, [sp, #4]
 800069c:	5598      	strb	r0, [r3, r6]
 800069e:	003e      	movs	r6, r7
 80006a0:	e7ed      	b.n	800067e <SFT_I2C_Master_Receive+0x20>
	...

080006a4 <readWord>:
	}
}

uint16_t readWord(){
	uint16_t word = 0;
  if ((I2C1->ISR & I2C_ISR_RXNE) == I2C_ISR_RXNE)
 80006a4:	4b03      	ldr	r3, [pc, #12]	; (80006b4 <readWord+0x10>)
	uint16_t word = 0;
 80006a6:	2000      	movs	r0, #0
  if ((I2C1->ISR & I2C_ISR_RXNE) == I2C_ISR_RXNE)
 80006a8:	699a      	ldr	r2, [r3, #24]
 80006aa:	0752      	lsls	r2, r2, #29
 80006ac:	d501      	bpl.n	80006b2 <readWord+0xe>
	  word = I2C1->RXDR;
 80006ae:	6a58      	ldr	r0, [r3, #36]	; 0x24
 80006b0:	b280      	uxth	r0, r0
  return word;
}
 80006b2:	4770      	bx	lr
 80006b4:	40005400 	.word	0x40005400

080006b8 <writeWord>:
void writeWord(uint16_t word){
  if ((I2C1->ISR & I2C_ISR_TXIS) == I2C_ISR_TXIS){
 80006b8:	2102      	movs	r1, #2
 80006ba:	4b04      	ldr	r3, [pc, #16]	; (80006cc <writeWord+0x14>)
 80006bc:	699a      	ldr	r2, [r3, #24]
 80006be:	420a      	tst	r2, r1
 80006c0:	d003      	beq.n	80006ca <writeWord+0x12>
	I2C1->CR1 &=~ I2C_CR1_TXIE;
 80006c2:	681a      	ldr	r2, [r3, #0]
 80006c4:	438a      	bics	r2, r1
 80006c6:	601a      	str	r2, [r3, #0]
	I2C1->TXDR = word;
 80006c8:	6298      	str	r0, [r3, #40]	; 0x28
  }
}
 80006ca:	4770      	bx	lr
 80006cc:	40005400 	.word	0x40005400

080006d0 <clearHi2c>:


void clearHi2c(){
	hi2c.bufIdx = 0;
 80006d0:	21e7      	movs	r1, #231	; 0xe7
 80006d2:	4a07      	ldr	r2, [pc, #28]	; (80006f0 <clearHi2c+0x20>)
 80006d4:	8813      	ldrh	r3, [r2, #0]
 80006d6:	400b      	ands	r3, r1
 80006d8:	8013      	strh	r3, [r2, #0]
	hi2c.address = 0;

	I2C1->CR1 &= ~I2C_CR1_PE;
 80006da:	2201      	movs	r2, #1
 80006dc:	4b05      	ldr	r3, [pc, #20]	; (80006f4 <clearHi2c+0x24>)
 80006de:	6819      	ldr	r1, [r3, #0]
 80006e0:	4391      	bics	r1, r2
 80006e2:	6019      	str	r1, [r3, #0]
	asm("nop");
 80006e4:	46c0      	nop			; (mov r8, r8)
	asm("nop");
 80006e6:	46c0      	nop			; (mov r8, r8)
	I2C1->CR1 |= I2C_CR1_PE;
 80006e8:	6819      	ldr	r1, [r3, #0]
 80006ea:	430a      	orrs	r2, r1
 80006ec:	601a      	str	r2, [r3, #0]
}
 80006ee:	4770      	bx	lr
 80006f0:	20000778 	.word	0x20000778
 80006f4:	40005400 	.word	0x40005400

080006f8 <i2cSM>:
	if ((I2C1->ISR & I2C_ISR_ADDR) == I2C_ISR_ADDR){
 80006f8:	2208      	movs	r2, #8
 80006fa:	4b32      	ldr	r3, [pc, #200]	; (80007c4 <i2cSM+0xcc>)
void i2cSM(){
 80006fc:	b570      	push	{r4, r5, r6, lr}
	if ((I2C1->ISR & I2C_ISR_ADDR) == I2C_ISR_ADDR){
 80006fe:	6999      	ldr	r1, [r3, #24]
 8000700:	4c31      	ldr	r4, [pc, #196]	; (80007c8 <i2cSM+0xd0>)
 8000702:	4211      	tst	r1, r2
 8000704:	d01f      	beq.n	8000746 <i2cSM+0x4e>
	   I2C1->ICR |= I2C_ICR_ADDRCF;
 8000706:	69d9      	ldr	r1, [r3, #28]
 8000708:	430a      	orrs	r2, r1
 800070a:	61da      	str	r2, [r3, #28]
	   if ((I2C1->ISR & I2C_ISR_DIR) == I2C_ISR_DIR){
 800070c:	699a      	ldr	r2, [r3, #24]
 800070e:	03d2      	lsls	r2, r2, #15
 8000710:	d50e      	bpl.n	8000730 <i2cSM+0x38>
		   I2C1->CR1 |= I2C_CR1_TXIE;
 8000712:	2202      	movs	r2, #2
 8000714:	6819      	ldr	r1, [r3, #0]
 8000716:	430a      	orrs	r2, r1
 8000718:	601a      	str	r2, [r3, #0]
		   hi2c.state=1;
 800071a:	2207      	movs	r2, #7
 800071c:	7823      	ldrb	r3, [r4, #0]
 800071e:	4393      	bics	r3, r2
 8000720:	001a      	movs	r2, r3
 8000722:	2301      	movs	r3, #1
 8000724:	4313      	orrs	r3, r2
 8000726:	7023      	strb	r3, [r4, #0]
		   hi2c.address = readWord();
 8000728:	f7ff ffbc 	bl	80006a4 <readWord>
 800072c:	7060      	strb	r0, [r4, #1]
}
 800072e:	bd70      	pop	{r4, r5, r6, pc}
		   if(hi2c.state == 1)
 8000730:	7823      	ldrb	r3, [r4, #0]
 8000732:	2207      	movs	r2, #7
 8000734:	0019      	movs	r1, r3
 8000736:	4011      	ands	r1, r2
 8000738:	2901      	cmp	r1, #1
 800073a:	d1f8      	bne.n	800072e <i2cSM+0x36>
			   hi2c.state = 3;
 800073c:	4393      	bics	r3, r2
 800073e:	3a04      	subs	r2, #4
			hi2c.state = 4;
 8000740:	4313      	orrs	r3, r2
			hi2c.state = 0;
 8000742:	7023      	strb	r3, [r4, #0]
}
 8000744:	e7f3      	b.n	800072e <i2cSM+0x36>
		switch(hi2c.state){
 8000746:	7820      	ldrb	r0, [r4, #0]
 8000748:	0740      	lsls	r0, r0, #29
 800074a:	0f40      	lsrs	r0, r0, #29
 800074c:	3801      	subs	r0, #1
 800074e:	2804      	cmp	r0, #4
 8000750:	d8ed      	bhi.n	800072e <i2cSM+0x36>
 8000752:	f7ff fceb 	bl	800012c <__gnu_thumb1_case_uqi>
 8000756:	0c03      	.short	0x0c03
 8000758:	2017      	.short	0x2017
 800075a:	31          	.byte	0x31
 800075b:	00          	.byte	0x00
			UART_putstrln("STM->Baikal");
 800075c:	481b      	ldr	r0, [pc, #108]	; (80007cc <i2cSM+0xd4>)
 800075e:	f000 f8c1 	bl	80008e4 <UART_putstrln>
			hi2c.state = 2;
 8000762:	2207      	movs	r2, #7
 8000764:	7823      	ldrb	r3, [r4, #0]
 8000766:	4393      	bics	r3, r2
 8000768:	001a      	movs	r2, r3
 800076a:	2302      	movs	r3, #2
 800076c:	e7e8      	b.n	8000740 <i2cSM+0x48>
			writeWord(MazzyStar[hi2c.address]);
 800076e:	7863      	ldrb	r3, [r4, #1]
 8000770:	4a17      	ldr	r2, [pc, #92]	; (80007d0 <i2cSM+0xd8>)
 8000772:	5cd0      	ldrb	r0, [r2, r3]
 8000774:	f7ff ffa0 	bl	80006b8 <writeWord>
			hi2c.state = 5;
 8000778:	2207      	movs	r2, #7
 800077a:	7823      	ldrb	r3, [r4, #0]
 800077c:	4393      	bics	r3, r2
 800077e:	001a      	movs	r2, r3
 8000780:	2305      	movs	r3, #5
 8000782:	e7dd      	b.n	8000740 <i2cSM+0x48>
			UART_putstrln("Baikal->STM");
 8000784:	4813      	ldr	r0, [pc, #76]	; (80007d4 <i2cSM+0xdc>)
 8000786:	f000 f8ad 	bl	80008e4 <UART_putstrln>
			hi2c.state = 4;
 800078a:	2207      	movs	r2, #7
 800078c:	7823      	ldrb	r3, [r4, #0]
 800078e:	4393      	bics	r3, r2
 8000790:	001a      	movs	r2, r3
 8000792:	2304      	movs	r3, #4
 8000794:	e7d4      	b.n	8000740 <i2cSM+0x48>
			hi2c.registers[hi2c.address] = readWord();
 8000796:	7865      	ldrb	r5, [r4, #1]
 8000798:	f7ff ff84 	bl	80006a4 <readWord>
			hi2c.state = 5;
 800079c:	2207      	movs	r2, #7
 800079e:	7823      	ldrb	r3, [r4, #0]
			hi2c.registers[hi2c.address] = readWord();
 80007a0:	006d      	lsls	r5, r5, #1
			hi2c.state = 5;
 80007a2:	4393      	bics	r3, r2
 80007a4:	001a      	movs	r2, r3
 80007a6:	2305      	movs	r3, #5
			hi2c.registers[hi2c.address] = readWord();
 80007a8:	1965      	adds	r5, r4, r5
 80007aa:	8068      	strh	r0, [r5, #2]
			hi2c.state = 5;
 80007ac:	4313      	orrs	r3, r2
		  UART_putstrln("Gotcha");
 80007ae:	480a      	ldr	r0, [pc, #40]	; (80007d8 <i2cSM+0xe0>)
			hi2c.state = 5;
 80007b0:	7023      	strb	r3, [r4, #0]
		  UART_putstrln("Gotcha");
 80007b2:	f000 f897 	bl	80008e4 <UART_putstrln>
		break;
 80007b6:	e7ba      	b.n	800072e <i2cSM+0x36>
			clearHi2c();
 80007b8:	f7ff ff8a 	bl	80006d0 <clearHi2c>
			hi2c.state = 0;
 80007bc:	2207      	movs	r2, #7
 80007be:	7823      	ldrb	r3, [r4, #0]
 80007c0:	4393      	bics	r3, r2
 80007c2:	e7be      	b.n	8000742 <i2cSM+0x4a>
 80007c4:	40005400 	.word	0x40005400
 80007c8:	20000778 	.word	0x20000778
 80007cc:	08006d20 	.word	0x08006d20
 80007d0:	08006d2c 	.word	0x08006d2c
 80007d4:	08006e50 	.word	0x08006e50
 80007d8:	08006e5c 	.word	0x08006e5c

080007dc <DisableSPI>:
	Set_CS(0);
	Set_CS(1);

}

void DisableSPI() {
 80007dc:	b57f      	push	{r0, r1, r2, r3, r4, r5, r6, lr}

	GPIO_InitTypeDef GPIO_InitStruct = {0};
 80007de:	2214      	movs	r2, #20
 80007e0:	2100      	movs	r1, #0
 80007e2:	a801      	add	r0, sp, #4
 80007e4:	f005 fd9d 	bl	8006322 <memset>

	HAL_SPI_DeInit(&hspi1);
 80007e8:	4806      	ldr	r0, [pc, #24]	; (8000804 <DisableSPI+0x28>)
 80007ea:	f003 fbc7 	bl	8003f7c <HAL_SPI_DeInit>
	GPIO_InitStruct.Pin = GPIO_PIN_0|GPIO_PIN_3;
 80007ee:	2309      	movs	r3, #9
 80007f0:	9301      	str	r3, [sp, #4]
  	GPIO_InitStruct.Mode = GPIO_MODE_INPUT;
 80007f2:	2300      	movs	r3, #0
  	GPIO_InitStruct.Pull = GPIO_NOPULL;
  	HAL_GPIO_Init(GPIOB, &GPIO_InitStruct);
 80007f4:	4804      	ldr	r0, [pc, #16]	; (8000808 <DisableSPI+0x2c>)
 80007f6:	a901      	add	r1, sp, #4
  	GPIO_InitStruct.Mode = GPIO_MODE_INPUT;
 80007f8:	9302      	str	r3, [sp, #8]
  	GPIO_InitStruct.Pull = GPIO_NOPULL;
 80007fa:	9303      	str	r3, [sp, #12]
  	HAL_GPIO_Init(GPIOB, &GPIO_InitStruct);
 80007fc:	f001 fda8 	bl	8002350 <HAL_GPIO_Init>

}
 8000800:	b007      	add	sp, #28
 8000802:	bd00      	pop	{pc}
 8000804:	200007e4 	.word	0x200007e4
 8000808:	48000400 	.word	0x48000400

0800080c <SetI2C_Mask>:

/* Private user code ---------------------------------------------------------*/
/* USER CODE BEGIN 0 */


void SetI2C_Mask(uint8_t mask) {
 800080c:	b507      	push	{r0, r1, r2, lr}
	SysCntrl.i2c_bt[1] |= mask;
 800080e:	4b06      	ldr	r3, [pc, #24]	; (8000828 <SetI2C_Mask+0x1c>)
	SFT_I2C_Master_Transmit(&si2c1,GPIO_EXPANDER_ADDR, SysCntrl.i2c_bt,2,1);
 8000810:	2140      	movs	r1, #64	; 0x40
	SysCntrl.i2c_bt[1] |= mask;
 8000812:	795a      	ldrb	r2, [r3, #5]
 8000814:	4310      	orrs	r0, r2
 8000816:	7158      	strb	r0, [r3, #5]
	SFT_I2C_Master_Transmit(&si2c1,GPIO_EXPANDER_ADDR, SysCntrl.i2c_bt,2,1);
 8000818:	2301      	movs	r3, #1
 800081a:	4a04      	ldr	r2, [pc, #16]	; (800082c <SetI2C_Mask+0x20>)
 800081c:	9300      	str	r3, [sp, #0]
 800081e:	4804      	ldr	r0, [pc, #16]	; (8000830 <SetI2C_Mask+0x24>)
 8000820:	18db      	adds	r3, r3, r3
 8000822:	f7ff feff 	bl	8000624 <SFT_I2C_Master_Transmit>
}
 8000826:	bd07      	pop	{r0, r1, r2, pc}
 8000828:	2000049c 	.word	0x2000049c
 800082c:	200004a0 	.word	0x200004a0
 8000830:	20000780 	.word	0x20000780

08000834 <ClrI2C_Mask>:
void ClrI2C_Mask(uint8_t mask) {
 8000834:	b507      	push	{r0, r1, r2, lr}
	SysCntrl.i2c_bt[1] &= ~mask;
 8000836:	4a06      	ldr	r2, [pc, #24]	; (8000850 <ClrI2C_Mask+0x1c>)
	SFT_I2C_Master_Transmit(&si2c1,GPIO_EXPANDER_ADDR, SysCntrl.i2c_bt,2,1);
 8000838:	2140      	movs	r1, #64	; 0x40
	SysCntrl.i2c_bt[1] &= ~mask;
 800083a:	7953      	ldrb	r3, [r2, #5]
 800083c:	4383      	bics	r3, r0
 800083e:	7153      	strb	r3, [r2, #5]
	SFT_I2C_Master_Transmit(&si2c1,GPIO_EXPANDER_ADDR, SysCntrl.i2c_bt,2,1);
 8000840:	2301      	movs	r3, #1
 8000842:	4a04      	ldr	r2, [pc, #16]	; (8000854 <ClrI2C_Mask+0x20>)
 8000844:	9300      	str	r3, [sp, #0]
 8000846:	4804      	ldr	r0, [pc, #16]	; (8000858 <ClrI2C_Mask+0x24>)
 8000848:	18db      	adds	r3, r3, r3
 800084a:	f7ff feeb 	bl	8000624 <SFT_I2C_Master_Transmit>
}
 800084e:	bd07      	pop	{r0, r1, r2, pc}
 8000850:	2000049c 	.word	0x2000049c
 8000854:	200004a0 	.word	0x200004a0
 8000858:	20000780 	.word	0x20000780

0800085c <Set_CS>:

void Set_CS(uint8_t cs) {
 800085c:	0002      	movs	r2, r0
 800085e:	b510      	push	{r4, lr}
	if(cs == 0)
 8000860:	2800      	cmp	r0, #0
 8000862:	d105      	bne.n	8000870 <Set_CS+0x14>
		HAL_GPIO_WritePin(GPIOB,GPIO_PIN_0,GPIO_PIN_SET);
 8000864:	3201      	adds	r2, #1
 8000866:	0011      	movs	r1, r2
	if(cs == 1)
		HAL_GPIO_WritePin(GPIOB,GPIO_PIN_3,GPIO_PIN_SET);
 8000868:	4803      	ldr	r0, [pc, #12]	; (8000878 <Set_CS+0x1c>)
 800086a:	f001 fe8f 	bl	800258c <HAL_GPIO_WritePin>

}
 800086e:	bd10      	pop	{r4, pc}
	if(cs == 1)
 8000870:	2801      	cmp	r0, #1
 8000872:	d1fc      	bne.n	800086e <Set_CS+0x12>
		HAL_GPIO_WritePin(GPIOB,GPIO_PIN_3,GPIO_PIN_SET);
 8000874:	2108      	movs	r1, #8
 8000876:	e7f7      	b.n	8000868 <Set_CS+0xc>
 8000878:	48000400 	.word	0x48000400

0800087c <Clr_CS>:
void Clr_CS(uint8_t cs) {
 800087c:	0002      	movs	r2, r0
	if(cs == 0)
		HAL_GPIO_WritePin(GPIOB,GPIO_PIN_0,GPIO_PIN_RESET);
 800087e:	2101      	movs	r1, #1
void Clr_CS(uint8_t cs) {
 8000880:	b510      	push	{r4, lr}
	if(cs == 0)
 8000882:	2800      	cmp	r0, #0
 8000884:	d003      	beq.n	800088e <Clr_CS+0x12>
	if(cs == 1)
 8000886:	2801      	cmp	r0, #1
 8000888:	d104      	bne.n	8000894 <Clr_CS+0x18>
		HAL_GPIO_WritePin(GPIOB,GPIO_PIN_3,GPIO_PIN_RESET);
 800088a:	2200      	movs	r2, #0
 800088c:	2108      	movs	r1, #8
 800088e:	4802      	ldr	r0, [pc, #8]	; (8000898 <Clr_CS+0x1c>)
 8000890:	f001 fe7c 	bl	800258c <HAL_GPIO_WritePin>

}
 8000894:	bd10      	pop	{r4, pc}
 8000896:	46c0      	nop			; (mov r8, r8)
 8000898:	48000400 	.word	0x48000400

0800089c <Test_RxPacket>:


void Test_RxPacket(uint8_t *Buf,uint32_t Len) {
 800089c:	b5f0      	push	{r4, r5, r6, r7, lr}
	uint32_t idx;
	idx = 0;
	while(Len!=0) {
		SysCntrl.uart_rx_buf[SysCntrl.rx_head++] = Buf[idx++];
 800089e:	4d0a      	ldr	r5, [pc, #40]	; (80008c8 <Test_RxPacket+0x2c>)
		SysCntrl.rx_head &= RX_BUF_SIZE-1;
 80008a0:	26ff      	movs	r6, #255	; 0xff
		SysCntrl.uart_rx_buf[SysCntrl.rx_head++] = Buf[idx++];
 80008a2:	002c      	movs	r4, r5
 80008a4:	1841      	adds	r1, r0, r1
 80008a6:	34fe      	adds	r4, #254	; 0xfe
	while(Len!=0) {
 80008a8:	4288      	cmp	r0, r1
 80008aa:	d100      	bne.n	80008ae <Test_RxPacket+0x12>
		Len--;
	}
}
 80008ac:	bdf0      	pop	{r4, r5, r6, r7, pc}
		SysCntrl.uart_rx_buf[SysCntrl.rx_head++] = Buf[idx++];
 80008ae:	8d62      	ldrh	r2, [r4, #42]	; 0x2a
 80008b0:	1c53      	adds	r3, r2, #1
 80008b2:	b29b      	uxth	r3, r3
 80008b4:	8563      	strh	r3, [r4, #42]	; 0x2a
 80008b6:	7807      	ldrb	r7, [r0, #0]
 80008b8:	18aa      	adds	r2, r5, r2
 80008ba:	3208      	adds	r2, #8
		SysCntrl.rx_head &= RX_BUF_SIZE-1;
 80008bc:	4033      	ands	r3, r6
		SysCntrl.uart_rx_buf[SysCntrl.rx_head++] = Buf[idx++];
 80008be:	77d7      	strb	r7, [r2, #31]
		SysCntrl.rx_head &= RX_BUF_SIZE-1;
 80008c0:	8563      	strh	r3, [r4, #42]	; 0x2a
		Len--;
 80008c2:	3001      	adds	r0, #1
 80008c4:	e7f0      	b.n	80008a8 <Test_RxPacket+0xc>
 80008c6:	46c0      	nop			; (mov r8, r8)
 80008c8:	2000049c 	.word	0x2000049c

080008cc <UART_putstr>:

void UART_putstr(char *str){
 80008cc:	b510      	push	{r4, lr}
 80008ce:	0004      	movs	r4, r0
	while(CDC_Transmit_FS((uint8_t*)str,strlen(str)) != USBD_OK);
 80008d0:	0020      	movs	r0, r4
 80008d2:	f7ff fc23 	bl	800011c <strlen>
 80008d6:	b281      	uxth	r1, r0
 80008d8:	0020      	movs	r0, r4
 80008da:	f005 faf9 	bl	8005ed0 <CDC_Transmit_FS>
 80008de:	2800      	cmp	r0, #0
 80008e0:	d1f6      	bne.n	80008d0 <UART_putstr+0x4>
}
 80008e2:	bd10      	pop	{r4, pc}

080008e4 <UART_putstrln>:


// 
void UART_putstrln(char *str){
 80008e4:	b510      	push	{r4, lr}
 80008e6:	0004      	movs	r4, r0
	HAL_Delay(1);
 80008e8:	2001      	movs	r0, #1
 80008ea:	f001 fa71 	bl	8001dd0 <HAL_Delay>
	if(str!=0)
 80008ee:	2c00      	cmp	r4, #0
 80008f0:	d008      	beq.n	8000904 <UART_putstrln+0x20>
		while(CDC_Transmit_FS((uint8_t*)str,strlen(str)) != USBD_OK);
 80008f2:	0020      	movs	r0, r4
 80008f4:	f7ff fc12 	bl	800011c <strlen>
 80008f8:	b281      	uxth	r1, r0
 80008fa:	0020      	movs	r0, r4
 80008fc:	f005 fae8 	bl	8005ed0 <CDC_Transmit_FS>
 8000900:	2800      	cmp	r0, #0
 8000902:	d1f6      	bne.n	80008f2 <UART_putstrln+0xe>
	HAL_Delay(1);
 8000904:	2001      	movs	r0, #1
 8000906:	f001 fa63 	bl	8001dd0 <HAL_Delay>
	while(CDC_Transmit_FS((uint8_t*)"\r\n",3) != USBD_OK);
 800090a:	2103      	movs	r1, #3
 800090c:	4802      	ldr	r0, [pc, #8]	; (8000918 <UART_putstrln+0x34>)
 800090e:	f005 fadf 	bl	8005ed0 <CDC_Transmit_FS>
 8000912:	2800      	cmp	r0, #0
 8000914:	d1f9      	bne.n	800090a <UART_putstrln+0x26>
}
 8000916:	bd10      	pop	{r4, pc}
 8000918:	08006d09 	.word	0x08006d09

0800091c <UART_SendByte>:


void UART_SendByte(uint8_t bt) {
 800091c:	b513      	push	{r0, r1, r4, lr}
 800091e:	466b      	mov	r3, sp
 8000920:	1ddc      	adds	r4, r3, #7
 8000922:	7020      	strb	r0, [r4, #0]
	while(CDC_Transmit_FS(&bt,1) != USBD_OK);
 8000924:	2101      	movs	r1, #1
 8000926:	0020      	movs	r0, r4
 8000928:	f005 fad2 	bl	8005ed0 <CDC_Transmit_FS>
 800092c:	2800      	cmp	r0, #0
 800092e:	d1f9      	bne.n	8000924 <UART_SendByte+0x8>
}
 8000930:	bd13      	pop	{r0, r1, r4, pc}
	...

08000934 <ReadUartNonBlock>:

int ReadUartNonBlock(uint8_t *buf,int size) {
 8000934:	b5f0      	push	{r4, r5, r6, r7, lr}
	int cnt;
	cnt = 0;

	while((SysCntrl.rx_head != SysCntrl.rx_tail) && size) {
 8000936:	4d0c      	ldr	r5, [pc, #48]	; (8000968 <ReadUartNonBlock+0x34>)
int ReadUartNonBlock(uint8_t *buf,int size) {
 8000938:	0004      	movs	r4, r0
	while((SysCntrl.rx_head != SysCntrl.rx_tail) && size) {
 800093a:	002a      	movs	r2, r5
 800093c:	2000      	movs	r0, #0
		buf[cnt++] = SysCntrl.uart_rx_buf[SysCntrl.rx_tail++];
		SysCntrl.rx_tail &= RX_BUF_SIZE-1;
 800093e:	26ff      	movs	r6, #255	; 0xff
	while((SysCntrl.rx_head != SysCntrl.rx_tail) && size) {
 8000940:	32fe      	adds	r2, #254	; 0xfe
 8000942:	8d93      	ldrh	r3, [r2, #44]	; 0x2c
 8000944:	8d57      	ldrh	r7, [r2, #42]	; 0x2a
 8000946:	429f      	cmp	r7, r3
 8000948:	d001      	beq.n	800094e <ReadUartNonBlock+0x1a>
 800094a:	4288      	cmp	r0, r1
 800094c:	d100      	bne.n	8000950 <ReadUartNonBlock+0x1c>
		size--;
	}
	return cnt;
}
 800094e:	bdf0      	pop	{r4, r5, r6, r7, pc}
		buf[cnt++] = SysCntrl.uart_rx_buf[SysCntrl.rx_tail++];
 8000950:	1c5f      	adds	r7, r3, #1
 8000952:	18eb      	adds	r3, r5, r3
 8000954:	8597      	strh	r7, [r2, #44]	; 0x2c
 8000956:	3308      	adds	r3, #8
 8000958:	7fdb      	ldrb	r3, [r3, #31]
 800095a:	5423      	strb	r3, [r4, r0]
		SysCntrl.rx_tail &= RX_BUF_SIZE-1;
 800095c:	8d93      	ldrh	r3, [r2, #44]	; 0x2c
 800095e:	3001      	adds	r0, #1
 8000960:	4033      	ands	r3, r6
 8000962:	8593      	strh	r3, [r2, #44]	; 0x2c
		size--;
 8000964:	e7ed      	b.n	8000942 <ReadUartNonBlock+0xe>
 8000966:	46c0      	nop			; (mov r8, r8)
 8000968:	2000049c 	.word	0x2000049c

0800096c <userInput>:


void userInput(uint8_t anykey){
 800096c:	b537      	push	{r0, r1, r2, r4, r5, lr}
 800096e:	0005      	movs	r5, r0
	uint8_t bt;
	char buf[4] = {0};
	do{
		console.result = ReadUartNonBlock(&bt, 1);
 8000970:	466b      	mov	r3, sp
 8000972:	2101      	movs	r1, #1
 8000974:	1dd8      	adds	r0, r3, #7
 8000976:	f7ff ffdd 	bl	8000934 <ReadUartNonBlock>
 800097a:	4c22      	ldr	r4, [pc, #136]	; (8000a04 <userInput+0x98>)
 800097c:	b2c0      	uxtb	r0, r0
 800097e:	1ce3      	adds	r3, r4, #3
 8000980:	77d8      	strb	r0, [r3, #31]
		if(console.result) {
 8000982:	2800      	cmp	r0, #0
 8000984:	d00c      	beq.n	80009a0 <userInput+0x34>

			if(anykey)
 8000986:	2d00      	cmp	r5, #0
 8000988:	d002      	beq.n	8000990 <userInput+0x24>
				console.cmd_flag = 1;
 800098a:	2201      	movs	r2, #1
 800098c:	1ca3      	adds	r3, r4, #2
 800098e:	77da      	strb	r2, [r3, #31]

			switch(bt){
 8000990:	466b      	mov	r3, sp
 8000992:	79d8      	ldrb	r0, [r3, #7]
 8000994:	280d      	cmp	r0, #13
 8000996:	d023      	beq.n	80009e0 <userInput+0x74>
 8000998:	287f      	cmp	r0, #127	; 0x7f
 800099a:	d00a      	beq.n	80009b2 <userInput+0x46>
 800099c:	280a      	cmp	r0, #10
 800099e:	d128      	bne.n	80009f2 <userInput+0x86>
			}

			if(console.idx >= UART_BUF_SIZE) console.idx = 0;
		}

	}while(console.result && (!console.cmd_flag));
 80009a0:	1ce3      	adds	r3, r4, #3
 80009a2:	7fdb      	ldrb	r3, [r3, #31]
 80009a4:	2b00      	cmp	r3, #0
 80009a6:	d003      	beq.n	80009b0 <userInput+0x44>
 80009a8:	3402      	adds	r4, #2
 80009aa:	7fe3      	ldrb	r3, [r4, #31]
 80009ac:	2b00      	cmp	r3, #0
 80009ae:	d0df      	beq.n	8000970 <userInput+0x4>
}
 80009b0:	bd37      	pop	{r0, r1, r2, r4, r5, pc}
				UART_SendByte(0x8);
 80009b2:	2008      	movs	r0, #8
 80009b4:	f7ff ffb2 	bl	800091c <UART_SendByte>
				UART_SendByte(0x20); //0x20 - asci space
 80009b8:	2020      	movs	r0, #32
 80009ba:	f7ff ffaf 	bl	800091c <UART_SendByte>
				UART_SendByte(0x8);
 80009be:	2008      	movs	r0, #8
 80009c0:	f7ff ffac 	bl	800091c <UART_SendByte>
				console.buf[console.idx] = 0;
 80009c4:	7823      	ldrb	r3, [r4, #0]
 80009c6:	2200      	movs	r2, #0
 80009c8:	18e1      	adds	r1, r4, r3
				console.idx--;
 80009ca:	3b01      	subs	r3, #1
 80009cc:	7023      	strb	r3, [r4, #0]
				bt = 0;
 80009ce:	466b      	mov	r3, sp
				console.buf[console.idx] = 0;
 80009d0:	704a      	strb	r2, [r1, #1]
				bt = 0;
 80009d2:	71da      	strb	r2, [r3, #7]
			if(console.idx >= UART_BUF_SIZE) console.idx = 0;
 80009d4:	7823      	ldrb	r3, [r4, #0]
 80009d6:	2b1f      	cmp	r3, #31
 80009d8:	d9e2      	bls.n	80009a0 <userInput+0x34>
 80009da:	2300      	movs	r3, #0
 80009dc:	7023      	strb	r3, [r4, #0]
 80009de:	e7df      	b.n	80009a0 <userInput+0x34>
				console.buf[console.idx++] = 0;
 80009e0:	7823      	ldrb	r3, [r4, #0]
 80009e2:	1c5a      	adds	r2, r3, #1
 80009e4:	7022      	strb	r2, [r4, #0]
 80009e6:	2200      	movs	r2, #0
 80009e8:	18e3      	adds	r3, r4, r3
 80009ea:	705a      	strb	r2, [r3, #1]
				console.cmd_flag = 1;
 80009ec:	1ca3      	adds	r3, r4, #2
 80009ee:	3201      	adds	r2, #1
 80009f0:	77da      	strb	r2, [r3, #31]
				console.buf[console.idx++] = bt;
 80009f2:	7823      	ldrb	r3, [r4, #0]
 80009f4:	1c5a      	adds	r2, r3, #1
 80009f6:	18e3      	adds	r3, r4, r3
 80009f8:	7022      	strb	r2, [r4, #0]
 80009fa:	7058      	strb	r0, [r3, #1]
				UART_SendByte(bt);
 80009fc:	f7ff ff8e 	bl	800091c <UART_SendByte>
 8000a00:	e7e8      	b.n	80009d4 <userInput+0x68>
 8000a02:	46c0      	nop			; (mov r8, r8)
 8000a04:	20000474 	.word	0x20000474

08000a08 <refreshConsoleBuffer>:

void refreshConsoleBuffer(){
 8000a08:	2301      	movs	r3, #1
	uint8_t i;
	for(i=0;i<UART_BUF_SIZE;i++)
		console.buf[i] = 0;
 8000a0a:	2100      	movs	r1, #0
 8000a0c:	4a04      	ldr	r2, [pc, #16]	; (8000a20 <refreshConsoleBuffer+0x18>)
 8000a0e:	1898      	adds	r0, r3, r2
 8000a10:	3301      	adds	r3, #1
 8000a12:	7001      	strb	r1, [r0, #0]
	for(i=0;i<UART_BUF_SIZE;i++)
 8000a14:	2b21      	cmp	r3, #33	; 0x21
 8000a16:	d1fa      	bne.n	8000a0e <refreshConsoleBuffer+0x6>

	console.cmd_flag = 0;
 8000a18:	1c93      	adds	r3, r2, #2
 8000a1a:	77d9      	strb	r1, [r3, #31]
	//console.result = 0;
	console.idx = 0;
 8000a1c:	7011      	strb	r1, [r2, #0]
//	memset(&console,0,sizeof(console));
}
 8000a1e:	4770      	bx	lr
 8000a20:	20000474 	.word	0x20000474

08000a24 <clearUartConsole>:

void clearUartConsole(){
 8000a24:	b510      	push	{r4, lr}
	// temp way
	//while(CDC_Transmit_FS((uint8_t*)"\e[3J",strlen("\e[3J")) != USBD_OK);
	//UART_putstrln("\x1B[2J\x1B[H"); //"\x1B[2J\x1B[H"
	UART_putstrln("\033[2J");
 8000a26:	4802      	ldr	r0, [pc, #8]	; (8000a30 <clearUartConsole+0xc>)
 8000a28:	f7ff ff5c 	bl	80008e4 <UART_putstrln>

}
 8000a2c:	bd10      	pop	{r4, pc}
 8000a2e:	46c0      	nop			; (mov r8, r8)
 8000a30:	08006e63 	.word	0x08006e63

08000a34 <ByteToHEX>:


extern USBD_HandleTypeDef hUsbDeviceFS;


uint8_t ByteToHEX(uint8_t bt){
 8000a34:	0003      	movs	r3, r0

if(bt<10)
 8000a36:	2809      	cmp	r0, #9
 8000a38:	d802      	bhi.n	8000a40 <ByteToHEX+0xc>
	return bt+'0';
 8000a3a:	3330      	adds	r3, #48	; 0x30
if(bt<=0xf)
	return bt+0x37;
 8000a3c:	b2d8      	uxtb	r0, r3
return 'X';

}
 8000a3e:	4770      	bx	lr
return 'X';
 8000a40:	2058      	movs	r0, #88	; 0x58
if(bt<=0xf)
 8000a42:	2b0f      	cmp	r3, #15
 8000a44:	d8fb      	bhi.n	8000a3e <ByteToHEX+0xa>
	return bt+0x37;
 8000a46:	3337      	adds	r3, #55	; 0x37
 8000a48:	e7f8      	b.n	8000a3c <ByteToHEX+0x8>
	...

08000a4c <HAL_TIM_PeriodElapsedCallback>:
void HAL_TIM_PeriodElapsedCallback(TIM_HandleTypeDef *htim)
{
  /* USER CODE BEGIN Callback 0 */

  /* USER CODE END Callback 0 */
  if (htim->Instance == TIM17) {
 8000a4c:	4b0c      	ldr	r3, [pc, #48]	; (8000a80 <HAL_TIM_PeriodElapsedCallback+0x34>)
 8000a4e:	6802      	ldr	r2, [r0, #0]
{
 8000a50:	b510      	push	{r4, lr}
  if (htim->Instance == TIM17) {
 8000a52:	429a      	cmp	r2, r3
 8000a54:	d101      	bne.n	8000a5a <HAL_TIM_PeriodElapsedCallback+0xe>
    HAL_IncTick();
 8000a56:	f001 f9a9 	bl	8001dac <HAL_IncTick>
  }
  /* USER CODE BEGIN Callback 1 */

  SysCntrl.TimerTick = 1;
 8000a5a:	2301      	movs	r3, #1
 8000a5c:	4a09      	ldr	r2, [pc, #36]	; (8000a84 <HAL_TIM_PeriodElapsedCallback+0x38>)
 8000a5e:	490a      	ldr	r1, [pc, #40]	; (8000a88 <HAL_TIM_PeriodElapsedCallback+0x3c>)
 8000a60:	5c50      	ldrb	r0, [r2, r1]
 8000a62:	4303      	orrs	r3, r0
  if(++SysCntrl.MS_counter>999)SysCntrl.MS_counter = 0;
 8000a64:	20fa      	movs	r0, #250	; 0xfa
  SysCntrl.TimerTick = 1;
 8000a66:	5453      	strb	r3, [r2, r1]
  if(++SysCntrl.MS_counter>999)SysCntrl.MS_counter = 0;
 8000a68:	4908      	ldr	r1, [pc, #32]	; (8000a8c <HAL_TIM_PeriodElapsedCallback+0x40>)
 8000a6a:	0080      	lsls	r0, r0, #2
 8000a6c:	5a53      	ldrh	r3, [r2, r1]
 8000a6e:	3301      	adds	r3, #1
 8000a70:	b29b      	uxth	r3, r3
 8000a72:	4283      	cmp	r3, r0
 8000a74:	d201      	bcs.n	8000a7a <HAL_TIM_PeriodElapsedCallback+0x2e>
 8000a76:	5253      	strh	r3, [r2, r1]


  /* USER CODE END Callback 1 */
}
 8000a78:	bd10      	pop	{r4, pc}
  if(++SysCntrl.MS_counter>999)SysCntrl.MS_counter = 0;
 8000a7a:	2300      	movs	r3, #0
 8000a7c:	e7fb      	b.n	8000a76 <HAL_TIM_PeriodElapsedCallback+0x2a>
 8000a7e:	46c0      	nop			; (mov r8, r8)
 8000a80:	40014800 	.word	0x40014800
 8000a84:	2000049c 	.word	0x2000049c
 8000a88:	000002d5 	.word	0x000002d5
 8000a8c:	000002d6 	.word	0x000002d6

08000a90 <Error_Handler>:
/**
  * @brief  This function is executed in case of error occurrence.
  * @retval None
  */
void Error_Handler(void)
{
 8000a90:	b510      	push	{r4, lr}
  /* USER CODE BEGIN Error_Handler_Debug */
	UART_putstrln("GOTCHA ERROR");
 8000a92:	4802      	ldr	r0, [pc, #8]	; (8000a9c <Error_Handler+0xc>)
 8000a94:	f7ff ff26 	bl	80008e4 <UART_putstrln>
  \details Disables IRQ interrupts by setting the I-bit in the CPSR.
           Can only be executed in Privileged modes.
 */
__STATIC_FORCEINLINE void __disable_irq(void)
{
  __ASM volatile ("cpsid i" : : : "memory");
 8000a98:	b672      	cpsid	i
  /* User can add his own implementation to report the HAL error return state */
  __disable_irq();
  while (1)
 8000a9a:	e7fe      	b.n	8000a9a <Error_Handler+0xa>
 8000a9c:	08006e68 	.word	0x08006e68

08000aa0 <MX_SPI1_Init>:
  hspi1.Init.DataSize = SPI_DATASIZE_8BIT;
 8000aa0:	22e0      	movs	r2, #224	; 0xe0
  hspi1.Instance = SPI1;
 8000aa2:	4810      	ldr	r0, [pc, #64]	; (8000ae4 <MX_SPI1_Init+0x44>)
 8000aa4:	4b10      	ldr	r3, [pc, #64]	; (8000ae8 <MX_SPI1_Init+0x48>)
{
 8000aa6:	b510      	push	{r4, lr}
  hspi1.Instance = SPI1;
 8000aa8:	6003      	str	r3, [r0, #0]
  hspi1.Init.Mode = SPI_MODE_MASTER;
 8000aaa:	2382      	movs	r3, #130	; 0x82
  hspi1.Init.DataSize = SPI_DATASIZE_8BIT;
 8000aac:	00d2      	lsls	r2, r2, #3
 8000aae:	60c2      	str	r2, [r0, #12]
  hspi1.Init.NSS = SPI_NSS_SOFT;
 8000ab0:	2280      	movs	r2, #128	; 0x80
  hspi1.Init.Mode = SPI_MODE_MASTER;
 8000ab2:	005b      	lsls	r3, r3, #1
 8000ab4:	6043      	str	r3, [r0, #4]
  hspi1.Init.Direction = SPI_DIRECTION_2LINES;
 8000ab6:	2300      	movs	r3, #0
  hspi1.Init.NSS = SPI_NSS_SOFT;
 8000ab8:	0092      	lsls	r2, r2, #2
 8000aba:	6182      	str	r2, [r0, #24]
  hspi1.Init.BaudRatePrescaler = SPI_BAUDRATEPRESCALER_4;
 8000abc:	3af9      	subs	r2, #249	; 0xf9
 8000abe:	3aff      	subs	r2, #255	; 0xff
 8000ac0:	61c2      	str	r2, [r0, #28]
  hspi1.Init.CRCPolynomial = 7;
 8000ac2:	3a01      	subs	r2, #1
  hspi1.Init.Direction = SPI_DIRECTION_2LINES;
 8000ac4:	6083      	str	r3, [r0, #8]
  hspi1.Init.CLKPolarity = SPI_POLARITY_LOW;
 8000ac6:	6103      	str	r3, [r0, #16]
  hspi1.Init.CLKPhase = SPI_PHASE_1EDGE;
 8000ac8:	6143      	str	r3, [r0, #20]
  hspi1.Init.FirstBit = SPI_FIRSTBIT_MSB;
 8000aca:	6203      	str	r3, [r0, #32]
  hspi1.Init.TIMode = SPI_TIMODE_DISABLE;
 8000acc:	6243      	str	r3, [r0, #36]	; 0x24
  hspi1.Init.CRCCalculation = SPI_CRCCALCULATION_DISABLE;
 8000ace:	6283      	str	r3, [r0, #40]	; 0x28
  hspi1.Init.CRCPolynomial = 7;
 8000ad0:	62c2      	str	r2, [r0, #44]	; 0x2c
  hspi1.Init.CRCLength = SPI_CRC_LENGTH_DATASIZE;
 8000ad2:	6303      	str	r3, [r0, #48]	; 0x30
  hspi1.Init.NSSPMode = SPI_NSS_PULSE_DISABLE;
 8000ad4:	6343      	str	r3, [r0, #52]	; 0x34
  if (HAL_SPI_Init(&hspi1) != HAL_OK)
 8000ad6:	f003 f9d9 	bl	8003e8c <HAL_SPI_Init>
 8000ada:	2800      	cmp	r0, #0
 8000adc:	d001      	beq.n	8000ae2 <MX_SPI1_Init+0x42>
    Error_Handler();
 8000ade:	f7ff ffd7 	bl	8000a90 <Error_Handler>
}
 8000ae2:	bd10      	pop	{r4, pc}
 8000ae4:	200007e4 	.word	0x200007e4
 8000ae8:	40013000 	.word	0x40013000

08000aec <EnableSPI>:
void EnableSPI() {
 8000aec:	b530      	push	{r4, r5, lr}
 8000aee:	b087      	sub	sp, #28
	GPIO_InitTypeDef GPIO_InitStruct = {0};
 8000af0:	2214      	movs	r2, #20
 8000af2:	2100      	movs	r1, #0
 8000af4:	a801      	add	r0, sp, #4
 8000af6:	f005 fc14 	bl	8006322 <memset>
	ClrI2C_Mask(FLASH_EN_0|FLASH_EN_1);
 8000afa:	2018      	movs	r0, #24
 8000afc:	f7ff fe9a 	bl	8000834 <ClrI2C_Mask>
  	GPIO_InitStruct.Pull = GPIO_NOPULL;
 8000b00:	2400      	movs	r4, #0
	MX_SPI1_Init();
 8000b02:	f7ff ffcd 	bl	8000aa0 <MX_SPI1_Init>
  	GPIO_InitStruct.Mode = GPIO_MODE_OUTPUT_PP;
 8000b06:	2501      	movs	r5, #1
  	GPIO_InitStruct.Pin = GPIO_PIN_0|GPIO_PIN_3;
 8000b08:	2309      	movs	r3, #9
	HAL_GPIO_Init(GPIOB, &GPIO_InitStruct);
 8000b0a:	a901      	add	r1, sp, #4
 8000b0c:	4807      	ldr	r0, [pc, #28]	; (8000b2c <EnableSPI+0x40>)
  	GPIO_InitStruct.Pin = GPIO_PIN_0|GPIO_PIN_3;
 8000b0e:	9301      	str	r3, [sp, #4]
  	GPIO_InitStruct.Mode = GPIO_MODE_OUTPUT_PP;
 8000b10:	9502      	str	r5, [sp, #8]
  	GPIO_InitStruct.Pull = GPIO_NOPULL;
 8000b12:	9403      	str	r4, [sp, #12]
  	GPIO_InitStruct.Speed = GPIO_SPEED_FREQ_LOW;
 8000b14:	9404      	str	r4, [sp, #16]
	HAL_GPIO_Init(GPIOB, &GPIO_InitStruct);
 8000b16:	f001 fc1b 	bl	8002350 <HAL_GPIO_Init>
	Set_CS(0);
 8000b1a:	0020      	movs	r0, r4
 8000b1c:	f7ff fe9e 	bl	800085c <Set_CS>
	Set_CS(1);
 8000b20:	0028      	movs	r0, r5
 8000b22:	f7ff fe9b 	bl	800085c <Set_CS>
}
 8000b26:	b007      	add	sp, #28
 8000b28:	bd30      	pop	{r4, r5, pc}
 8000b2a:	46c0      	nop			; (mov r8, r8)
 8000b2c:	48000400 	.word	0x48000400

08000b30 <UART_Con_Mash>:
void UART_Con_Mash(){
 8000b30:	b57f      	push	{r0, r1, r2, r3, r4, r5, r6, lr}
	userInput(0);
 8000b32:	2000      	movs	r0, #0
 8000b34:	f7ff ff1a 	bl	800096c <userInput>
	if(console.cmd_flag){
 8000b38:	4e5c      	ldr	r6, [pc, #368]	; (8000cac <UART_Con_Mash+0x17c>)
 8000b3a:	1cb3      	adds	r3, r6, #2
 8000b3c:	7fdb      	ldrb	r3, [r3, #31]
 8000b3e:	2b00      	cmp	r3, #0
 8000b40:	d011      	beq.n	8000b66 <UART_Con_Mash+0x36>
		if(!strcmp(console.buf,"help")){
 8000b42:	4c5b      	ldr	r4, [pc, #364]	; (8000cb0 <UART_Con_Mash+0x180>)
 8000b44:	495b      	ldr	r1, [pc, #364]	; (8000cb4 <UART_Con_Mash+0x184>)
 8000b46:	0020      	movs	r0, r4
 8000b48:	f7ff fade 	bl	8000108 <strcmp>
 8000b4c:	2800      	cmp	r0, #0
 8000b4e:	d10b      	bne.n	8000b68 <UART_Con_Mash+0x38>
			UART_putstrln("ping!");
 8000b50:	4859      	ldr	r0, [pc, #356]	; (8000cb8 <UART_Con_Mash+0x188>)
			UART_putstrln(buf);
 8000b52:	f7ff fec7 	bl	80008e4 <UART_putstrln>
		UART_putstrln(0);
 8000b56:	2000      	movs	r0, #0
 8000b58:	f7ff fec4 	bl	80008e4 <UART_putstrln>
		UART_putstr(">>");
 8000b5c:	4857      	ldr	r0, [pc, #348]	; (8000cbc <UART_Con_Mash+0x18c>)
 8000b5e:	f7ff feb5 	bl	80008cc <UART_putstr>
		refreshConsoleBuffer();
 8000b62:	f7ff ff51 	bl	8000a08 <refreshConsoleBuffer>
}
 8000b66:	bd7f      	pop	{r0, r1, r2, r3, r4, r5, r6, pc}
		if(!strcmp(console.buf,"lvl")){
 8000b68:	0020      	movs	r0, r4
 8000b6a:	4955      	ldr	r1, [pc, #340]	; (8000cc0 <UART_Con_Mash+0x190>)
 8000b6c:	f7ff facc 	bl	8000108 <strcmp>
 8000b70:	2800      	cmp	r0, #0
 8000b72:	d110      	bne.n	8000b96 <UART_Con_Mash+0x66>
			sprintf(buf,"I2C pins: %u %u",HAL_GPIO_ReadPin(GPIOB,GPIO_PIN_7),HAL_GPIO_ReadPin(GPIOB,GPIO_PIN_6));
 8000b74:	2180      	movs	r1, #128	; 0x80
 8000b76:	4853      	ldr	r0, [pc, #332]	; (8000cc4 <UART_Con_Mash+0x194>)
 8000b78:	f001 fd02 	bl	8002580 <HAL_GPIO_ReadPin>
 8000b7c:	2140      	movs	r1, #64	; 0x40
 8000b7e:	0004      	movs	r4, r0
 8000b80:	4850      	ldr	r0, [pc, #320]	; (8000cc4 <UART_Con_Mash+0x194>)
 8000b82:	f001 fcfd 	bl	8002580 <HAL_GPIO_ReadPin>
 8000b86:	0022      	movs	r2, r4
 8000b88:	0003      	movs	r3, r0
 8000b8a:	494f      	ldr	r1, [pc, #316]	; (8000cc8 <UART_Con_Mash+0x198>)
 8000b8c:	4668      	mov	r0, sp
 8000b8e:	f005 fbd1 	bl	8006334 <siprintf>
			UART_putstrln(buf);
 8000b92:	4668      	mov	r0, sp
 8000b94:	e7dd      	b.n	8000b52 <UART_Con_Mash+0x22>
		if(!strcmp(console.buf,"restart")){
 8000b96:	0020      	movs	r0, r4
 8000b98:	494c      	ldr	r1, [pc, #304]	; (8000ccc <UART_Con_Mash+0x19c>)
 8000b9a:	f7ff fab5 	bl	8000108 <strcmp>
 8000b9e:	2800      	cmp	r0, #0
 8000ba0:	d108      	bne.n	8000bb4 <UART_Con_Mash+0x84>
			SysCntrl.power_stage = 41;
 8000ba2:	2229      	movs	r2, #41	; 0x29
 8000ba4:	4b4a      	ldr	r3, [pc, #296]	; (8000cd0 <UART_Con_Mash+0x1a0>)
			UART_putstrln("CPU restarted...");
 8000ba6:	484b      	ldr	r0, [pc, #300]	; (8000cd4 <UART_Con_Mash+0x1a4>)
			SysCntrl.power_stage = 41;
 8000ba8:	701a      	strb	r2, [r3, #0]
			UART_putstrln("CPU restarted...");
 8000baa:	f7ff fe9b 	bl	80008e4 <UART_putstrln>
			refreshConsoleBuffer();
 8000bae:	f7ff ff2b 	bl	8000a08 <refreshConsoleBuffer>
 8000bb2:	e7d0      	b.n	8000b56 <UART_Con_Mash+0x26>
		if(!strcmp(console.buf,"autoboot")){
 8000bb4:	0020      	movs	r0, r4
 8000bb6:	4948      	ldr	r1, [pc, #288]	; (8000cd8 <UART_Con_Mash+0x1a8>)
 8000bb8:	f7ff faa6 	bl	8000108 <strcmp>
 8000bbc:	2800      	cmp	r0, #0
 8000bbe:	d10d      	bne.n	8000bdc <UART_Con_Mash+0xac>
			SysCntrl.PowerState =(SysCntrl.PowerState)?0:1;
 8000bc0:	2201      	movs	r2, #1
 8000bc2:	4843      	ldr	r0, [pc, #268]	; (8000cd0 <UART_Con_Mash+0x1a0>)
 8000bc4:	4945      	ldr	r1, [pc, #276]	; (8000cdc <UART_Con_Mash+0x1ac>)
 8000bc6:	5c43      	ldrb	r3, [r0, r1]
 8000bc8:	095c      	lsrs	r4, r3, #5
 8000bca:	43a2      	bics	r2, r4
 8000bcc:	2420      	movs	r4, #32
 8000bce:	0152      	lsls	r2, r2, #5
 8000bd0:	43a3      	bics	r3, r4
 8000bd2:	4313      	orrs	r3, r2
 8000bd4:	5443      	strb	r3, [r0, r1]
			writeConfig();
 8000bd6:	f000 fcf1 	bl	80015bc <writeConfig>
 8000bda:	e7bc      	b.n	8000b56 <UART_Con_Mash+0x26>
		if(!strcmp(console.buf,"poweroff")){
 8000bdc:	0020      	movs	r0, r4
 8000bde:	4940      	ldr	r1, [pc, #256]	; (8000ce0 <UART_Con_Mash+0x1b0>)
 8000be0:	f7ff fa92 	bl	8000108 <strcmp>
 8000be4:	1e05      	subs	r5, r0, #0
 8000be6:	d109      	bne.n	8000bfc <UART_Con_Mash+0xcc>
			SysCntrl.power_stage = 100;
 8000be8:	2264      	movs	r2, #100	; 0x64
 8000bea:	4b39      	ldr	r3, [pc, #228]	; (8000cd0 <UART_Con_Mash+0x1a0>)
			UART_putstrln("CPU turn off...");
 8000bec:	483d      	ldr	r0, [pc, #244]	; (8000ce4 <UART_Con_Mash+0x1b4>)
			SysCntrl.power_stage = 100;
 8000bee:	701a      	strb	r2, [r3, #0]
			UART_putstrln("CPU turn off...");
 8000bf0:	f7ff fe78 	bl	80008e4 <UART_putstrln>
			refreshConsoleBuffer();
 8000bf4:	f7ff ff08 	bl	8000a08 <refreshConsoleBuffer>
			UART_putstrln(0);
 8000bf8:	0028      	movs	r0, r5
 8000bfa:	e7aa      	b.n	8000b52 <UART_Con_Mash+0x22>
		if(!strcmp(console.buf,"dump1")){
 8000bfc:	0020      	movs	r0, r4
 8000bfe:	493a      	ldr	r1, [pc, #232]	; (8000ce8 <UART_Con_Mash+0x1b8>)
 8000c00:	f7ff fa82 	bl	8000108 <strcmp>
 8000c04:	1e05      	subs	r5, r0, #0
 8000c06:	d107      	bne.n	8000c18 <UART_Con_Mash+0xe8>
			EnableSPI();
 8000c08:	f7ff ff70 	bl	8000aec <EnableSPI>
			FlashDump(1);
 8000c0c:	2001      	movs	r0, #1
 8000c0e:	f000 fc0d 	bl	800142c <FlashDump>
			DisableSPI();
 8000c12:	f7ff fde3 	bl	80007dc <DisableSPI>
 8000c16:	e7ef      	b.n	8000bf8 <UART_Con_Mash+0xc8>
		if(!strcmp(console.buf,"dump0")){
 8000c18:	0020      	movs	r0, r4
 8000c1a:	4934      	ldr	r1, [pc, #208]	; (8000cec <UART_Con_Mash+0x1bc>)
 8000c1c:	f7ff fa74 	bl	8000108 <strcmp>
 8000c20:	1e05      	subs	r5, r0, #0
 8000c22:	d103      	bne.n	8000c2c <UART_Con_Mash+0xfc>
			EnableSPI();
 8000c24:	f7ff ff62 	bl	8000aec <EnableSPI>
			FlashDump(0);
 8000c28:	0028      	movs	r0, r5
 8000c2a:	e7f0      	b.n	8000c0e <UART_Con_Mash+0xde>
		if(!strcmp(console.buf,"post")){
 8000c2c:	0020      	movs	r0, r4
 8000c2e:	4930      	ldr	r1, [pc, #192]	; (8000cf0 <UART_Con_Mash+0x1c0>)
 8000c30:	f7ff fa6a 	bl	8000108 <strcmp>
 8000c34:	2800      	cmp	r0, #0
 8000c36:	d102      	bne.n	8000c3e <UART_Con_Mash+0x10e>
			POST();
 8000c38:	f7ff fb36 	bl	80002a8 <POST>
 8000c3c:	e78b      	b.n	8000b56 <UART_Con_Mash+0x26>
		if(!strcmp(console.buf,"power")){
 8000c3e:	0020      	movs	r0, r4
 8000c40:	492c      	ldr	r1, [pc, #176]	; (8000cf4 <UART_Con_Mash+0x1c4>)
 8000c42:	f7ff fa61 	bl	8000108 <strcmp>
 8000c46:	2800      	cmp	r0, #0
 8000c48:	d103      	bne.n	8000c52 <UART_Con_Mash+0x122>
			checkPowerLevels(1);
 8000c4a:	3001      	adds	r0, #1
 8000c4c:	f000 fd18 	bl	8001680 <checkPowerLevels>
 8000c50:	e781      	b.n	8000b56 <UART_Con_Mash+0x26>
		if(!strcmp(console.buf,"mm")){
 8000c52:	0020      	movs	r0, r4
 8000c54:	4928      	ldr	r1, [pc, #160]	; (8000cf8 <UART_Con_Mash+0x1c8>)
 8000c56:	f7ff fa57 	bl	8000108 <strcmp>
 8000c5a:	2800      	cmp	r0, #0
 8000c5c:	d103      	bne.n	8000c66 <UART_Con_Mash+0x136>
			memoryMenu(1);
 8000c5e:	3001      	adds	r0, #1
 8000c60:	f000 fc36 	bl	80014d0 <memoryMenu>
 8000c64:	e777      	b.n	8000b56 <UART_Con_Mash+0x26>
		if(!strcmp(console.buf,"i2cs")){
 8000c66:	0020      	movs	r0, r4
 8000c68:	4924      	ldr	r1, [pc, #144]	; (8000cfc <UART_Con_Mash+0x1cc>)
 8000c6a:	f7ff fa4d 	bl	8000108 <strcmp>
 8000c6e:	2800      	cmp	r0, #0
 8000c70:	d106      	bne.n	8000c80 <UART_Con_Mash+0x150>
			sprintf(buf,"i2c state:%d register:%d",hi2c.state,hi2c.address);
 8000c72:	4a23      	ldr	r2, [pc, #140]	; (8000d00 <UART_Con_Mash+0x1d0>)
 8000c74:	4923      	ldr	r1, [pc, #140]	; (8000d04 <UART_Con_Mash+0x1d4>)
 8000c76:	7853      	ldrb	r3, [r2, #1]
 8000c78:	7812      	ldrb	r2, [r2, #0]
 8000c7a:	0752      	lsls	r2, r2, #29
 8000c7c:	0f52      	lsrs	r2, r2, #29
 8000c7e:	e785      	b.n	8000b8c <UART_Con_Mash+0x5c>
		if(!strcmp(console.buf,"pwrstage")){
 8000c80:	0020      	movs	r0, r4
 8000c82:	4921      	ldr	r1, [pc, #132]	; (8000d08 <UART_Con_Mash+0x1d8>)
 8000c84:	f7ff fa40 	bl	8000108 <strcmp>
 8000c88:	2800      	cmp	r0, #0
 8000c8a:	d106      	bne.n	8000c9a <UART_Con_Mash+0x16a>
			sprintf(buf,"Power stage:%d",SysCntrl.power_stage);
 8000c8c:	4b10      	ldr	r3, [pc, #64]	; (8000cd0 <UART_Con_Mash+0x1a0>)
 8000c8e:	4668      	mov	r0, sp
 8000c90:	781a      	ldrb	r2, [r3, #0]
 8000c92:	491e      	ldr	r1, [pc, #120]	; (8000d0c <UART_Con_Mash+0x1dc>)
 8000c94:	f005 fb4e 	bl	8006334 <siprintf>
			UART_putstrln(buf);
 8000c98:	e77b      	b.n	8000b92 <UART_Con_Mash+0x62>
		if(strcmp(console.buf,"")){
 8000c9a:	7873      	ldrb	r3, [r6, #1]
 8000c9c:	2b00      	cmp	r3, #0
 8000c9e:	d100      	bne.n	8000ca2 <UART_Con_Mash+0x172>
 8000ca0:	e759      	b.n	8000b56 <UART_Con_Mash+0x26>
			UART_putstr("Unknown command: ");
 8000ca2:	481b      	ldr	r0, [pc, #108]	; (8000d10 <UART_Con_Mash+0x1e0>)
 8000ca4:	f7ff fe12 	bl	80008cc <UART_putstr>
 8000ca8:	e755      	b.n	8000b56 <UART_Con_Mash+0x26>
 8000caa:	46c0      	nop			; (mov r8, r8)
 8000cac:	20000474 	.word	0x20000474
 8000cb0:	20000475 	.word	0x20000475
 8000cb4:	08006e75 	.word	0x08006e75
 8000cb8:	08006e7a 	.word	0x08006e7a
 8000cbc:	08006f31 	.word	0x08006f31
 8000cc0:	08006e80 	.word	0x08006e80
 8000cc4:	48000400 	.word	0x48000400
 8000cc8:	08006e84 	.word	0x08006e84
 8000ccc:	08006e94 	.word	0x08006e94
 8000cd0:	2000049c 	.word	0x2000049c
 8000cd4:	08006e9c 	.word	0x08006e9c
 8000cd8:	08006ead 	.word	0x08006ead
 8000cdc:	000002d9 	.word	0x000002d9
 8000ce0:	08006eb6 	.word	0x08006eb6
 8000ce4:	08006ebf 	.word	0x08006ebf
 8000ce8:	08006ecf 	.word	0x08006ecf
 8000cec:	08006ed5 	.word	0x08006ed5
 8000cf0:	08006edb 	.word	0x08006edb
 8000cf4:	08006ee0 	.word	0x08006ee0
 8000cf8:	08006ee6 	.word	0x08006ee6
 8000cfc:	08006ee9 	.word	0x08006ee9
 8000d00:	20000778 	.word	0x20000778
 8000d04:	08006eee 	.word	0x08006eee
 8000d08:	08006f07 	.word	0x08006f07
 8000d0c:	08006f10 	.word	0x08006f10
 8000d10:	08006f1f 	.word	0x08006f1f

08000d14 <SystemClock_Config>:
{
 8000d14:	b510      	push	{r4, lr}
 8000d16:	b098      	sub	sp, #96	; 0x60
  RCC_OscInitTypeDef RCC_OscInitStruct = {0};
 8000d18:	2230      	movs	r2, #48	; 0x30
 8000d1a:	2100      	movs	r1, #0
 8000d1c:	a80c      	add	r0, sp, #48	; 0x30
 8000d1e:	f005 fb00 	bl	8006322 <memset>
  RCC_ClkInitTypeDef RCC_ClkInitStruct = {0};
 8000d22:	2210      	movs	r2, #16
 8000d24:	2100      	movs	r1, #0
 8000d26:	a801      	add	r0, sp, #4
 8000d28:	f005 fafb 	bl	8006322 <memset>
  RCC_PeriphCLKInitTypeDef PeriphClkInit = {0};
 8000d2c:	2218      	movs	r2, #24
 8000d2e:	2100      	movs	r1, #0
 8000d30:	a805      	add	r0, sp, #20
 8000d32:	f005 faf6 	bl	8006322 <memset>
  RCC_OscInitStruct.OscillatorType = RCC_OSCILLATORTYPE_HSI|RCC_OSCILLATORTYPE_HSI14
 8000d36:	2332      	movs	r3, #50	; 0x32
  RCC_OscInitStruct.HSIState = RCC_HSI_ON;
 8000d38:	2401      	movs	r4, #1
  RCC_OscInitStruct.OscillatorType = RCC_OSCILLATORTYPE_HSI|RCC_OSCILLATORTYPE_HSI14
 8000d3a:	930b      	str	r3, [sp, #44]	; 0x2c
  if (HAL_RCC_OscConfig(&RCC_OscInitStruct) != HAL_OK)
 8000d3c:	a80b      	add	r0, sp, #44	; 0x2c
  RCC_OscInitStruct.HSICalibrationValue = 31;
 8000d3e:	3b13      	subs	r3, #19
  RCC_OscInitStruct.HSIState = RCC_HSI_ON;
 8000d40:	940e      	str	r4, [sp, #56]	; 0x38
  RCC_OscInitStruct.HSI48State = RCC_HSI48_ON;
 8000d42:	9413      	str	r4, [sp, #76]	; 0x4c
  RCC_OscInitStruct.HSI14State = RCC_HSI14_ON;
 8000d44:	9410      	str	r4, [sp, #64]	; 0x40
  RCC_OscInitStruct.HSICalibrationValue = 31;
 8000d46:	930f      	str	r3, [sp, #60]	; 0x3c
  RCC_OscInitStruct.HSI14CalibrationValue = 31;
 8000d48:	9311      	str	r3, [sp, #68]	; 0x44
  if (HAL_RCC_OscConfig(&RCC_OscInitStruct) != HAL_OK)
 8000d4a:	f002 fb95 	bl	8003478 <HAL_RCC_OscConfig>
 8000d4e:	2800      	cmp	r0, #0
 8000d50:	d001      	beq.n	8000d56 <SystemClock_Config+0x42>
    Error_Handler();
 8000d52:	f7ff fe9d 	bl	8000a90 <Error_Handler>
  RCC_ClkInitStruct.ClockType = RCC_CLOCKTYPE_HCLK|RCC_CLOCKTYPE_SYSCLK
 8000d56:	2307      	movs	r3, #7
  RCC_ClkInitStruct.AHBCLKDivider = RCC_SYSCLK_DIV1;
 8000d58:	9003      	str	r0, [sp, #12]
  RCC_ClkInitStruct.ClockType = RCC_CLOCKTYPE_HCLK|RCC_CLOCKTYPE_SYSCLK
 8000d5a:	9301      	str	r3, [sp, #4]
  RCC_ClkInitStruct.APB1CLKDivider = RCC_HCLK_DIV1;
 8000d5c:	9004      	str	r0, [sp, #16]
  RCC_ClkInitStruct.SYSCLKSource = RCC_SYSCLKSOURCE_HSI48;
 8000d5e:	3b04      	subs	r3, #4
  if (HAL_RCC_ClockConfig(&RCC_ClkInitStruct, FLASH_LATENCY_1) != HAL_OK)
 8000d60:	0021      	movs	r1, r4
 8000d62:	a801      	add	r0, sp, #4
  RCC_ClkInitStruct.SYSCLKSource = RCC_SYSCLKSOURCE_HSI48;
 8000d64:	9302      	str	r3, [sp, #8]
  if (HAL_RCC_ClockConfig(&RCC_ClkInitStruct, FLASH_LATENCY_1) != HAL_OK)
 8000d66:	f002 fe19 	bl	800399c <HAL_RCC_ClockConfig>
 8000d6a:	2800      	cmp	r0, #0
 8000d6c:	d1f1      	bne.n	8000d52 <SystemClock_Config+0x3e>
  PeriphClkInit.PeriphClockSelection = RCC_PERIPHCLK_USB|RCC_PERIPHCLK_I2C1;
 8000d6e:	4b05      	ldr	r3, [pc, #20]	; (8000d84 <SystemClock_Config+0x70>)
  PeriphClkInit.I2c1ClockSelection = RCC_I2C1CLKSOURCE_HSI;
 8000d70:	9008      	str	r0, [sp, #32]
  PeriphClkInit.UsbClockSelection = RCC_USBCLKSOURCE_HSI48;
 8000d72:	900a      	str	r0, [sp, #40]	; 0x28
  if (HAL_RCCEx_PeriphCLKConfig(&PeriphClkInit) != HAL_OK)
 8000d74:	a805      	add	r0, sp, #20
  PeriphClkInit.PeriphClockSelection = RCC_PERIPHCLK_USB|RCC_PERIPHCLK_I2C1;
 8000d76:	9305      	str	r3, [sp, #20]
  if (HAL_RCCEx_PeriphCLKConfig(&PeriphClkInit) != HAL_OK)
 8000d78:	f002 fec8 	bl	8003b0c <HAL_RCCEx_PeriphCLKConfig>
 8000d7c:	2800      	cmp	r0, #0
 8000d7e:	d1e8      	bne.n	8000d52 <SystemClock_Config+0x3e>
}
 8000d80:	b018      	add	sp, #96	; 0x60
 8000d82:	bd10      	pop	{r4, pc}
 8000d84:	00020020 	.word	0x00020020

08000d88 <main>:
{
 8000d88:	b5f0      	push	{r4, r5, r6, r7, lr}
 8000d8a:	b08b      	sub	sp, #44	; 0x2c
  HAL_Init();
 8000d8c:	f000 fffe 	bl	8001d8c <HAL_Init>
  readConfig();
 8000d90:	f000 fc40 	bl	8001614 <readConfig>
  if(SysCntrl.Magic!=0b10110){
 8000d94:	211f      	movs	r1, #31
 8000d96:	4ea6      	ldr	r6, [pc, #664]	; (8001030 <main+0x2a8>)
 8000d98:	4ba6      	ldr	r3, [pc, #664]	; (8001034 <main+0x2ac>)
 8000d9a:	5cf3      	ldrb	r3, [r6, r3]
 8000d9c:	400b      	ands	r3, r1
 8000d9e:	2b16      	cmp	r3, #22
 8000da0:	d010      	beq.n	8000dc4 <main+0x3c>
	SysCntrl.Watchdog = 1;
 8000da2:	20b6      	movs	r0, #182	; 0xb6
 8000da4:	0080      	lsls	r0, r0, #2
 8000da6:	5a33      	ldrh	r3, [r6, r0]
 8000da8:	4aa3      	ldr	r2, [pc, #652]	; (8001038 <main+0x2b0>)
 8000daa:	401a      	ands	r2, r3
 8000dac:	4ba3      	ldr	r3, [pc, #652]	; (800103c <main+0x2b4>)
 8000dae:	4313      	orrs	r3, r2
 8000db0:	5233      	strh	r3, [r6, r0]
	SysCntrl.Magic = 0b10110;
 8000db2:	4ba3      	ldr	r3, [pc, #652]	; (8001040 <main+0x2b8>)
 8000db4:	18f0      	adds	r0, r6, r3
 8000db6:	2316      	movs	r3, #22
 8000db8:	7842      	ldrb	r2, [r0, #1]
 8000dba:	438a      	bics	r2, r1
 8000dbc:	4313      	orrs	r3, r2
 8000dbe:	7043      	strb	r3, [r0, #1]
	writeConfig();
 8000dc0:	f000 fbfc 	bl	80015bc <writeConfig>
  SysCntrl.rx_head = 0;
 8000dc4:	0033      	movs	r3, r6
  SysCntrl.power_stage = 0;
 8000dc6:	2400      	movs	r4, #0
  SysCntrl.rx_head = 0;
 8000dc8:	33fc      	adds	r3, #252	; 0xfc
 8000dca:	62dc      	str	r4, [r3, #44]	; 0x2c
  hi2c.registers[0] = 0xfd;
 8000dcc:	23fd      	movs	r3, #253	; 0xfd
 8000dce:	4a9d      	ldr	r2, [pc, #628]	; (8001044 <main+0x2bc>)
  SysCntrl.i2c_bt[0] = 0x1;
 8000dd0:	2501      	movs	r5, #1
  hi2c.registers[0] = 0xfd;
 8000dd2:	8053      	strh	r3, [r2, #2]
  hi2c.registers[1] = 0xfaf;
 8000dd4:	4b9c      	ldr	r3, [pc, #624]	; (8001048 <main+0x2c0>)
  SysCntrl.i2c_bt[0] = 0x1;
 8000dd6:	80b5      	strh	r5, [r6, #4]
  hi2c.registers[1] = 0xfaf;
 8000dd8:	8093      	strh	r3, [r2, #4]
  hi2c.registers[2] = 0x31;
 8000dda:	2331      	movs	r3, #49	; 0x31
  SysCntrl.power_stage = 0;
 8000ddc:	7034      	strb	r4, [r6, #0]
  hi2c.registers[2] = 0x31;
 8000dde:	80d3      	strh	r3, [r2, #6]
  SystemClock_Config();
 8000de0:	f7ff ff98 	bl	8000d14 <SystemClock_Config>
  GPIO_InitTypeDef GPIO_InitStruct = {0};
 8000de4:	2214      	movs	r2, #20
 8000de6:	0021      	movs	r1, r4
 8000de8:	a805      	add	r0, sp, #20
 8000dea:	f005 fa9a 	bl	8006322 <memset>
  __HAL_RCC_GPIOB_CLK_ENABLE();
 8000dee:	2080      	movs	r0, #128	; 0x80
 8000df0:	4b96      	ldr	r3, [pc, #600]	; (800104c <main+0x2c4>)
 8000df2:	02c0      	lsls	r0, r0, #11
 8000df4:	6959      	ldr	r1, [r3, #20]
  GPIO_InitStruct.Pin = GPIO_PIN_1;
 8000df6:	2702      	movs	r7, #2
  __HAL_RCC_GPIOB_CLK_ENABLE();
 8000df8:	4301      	orrs	r1, r0
 8000dfa:	6159      	str	r1, [r3, #20]
 8000dfc:	695a      	ldr	r2, [r3, #20]
 8000dfe:	4002      	ands	r2, r0
  __HAL_RCC_GPIOF_CLK_ENABLE();
 8000e00:	2080      	movs	r0, #128	; 0x80
  __HAL_RCC_GPIOB_CLK_ENABLE();
 8000e02:	9202      	str	r2, [sp, #8]
 8000e04:	9a02      	ldr	r2, [sp, #8]
  __HAL_RCC_GPIOF_CLK_ENABLE();
 8000e06:	6959      	ldr	r1, [r3, #20]
 8000e08:	03c0      	lsls	r0, r0, #15
 8000e0a:	4301      	orrs	r1, r0
 8000e0c:	6159      	str	r1, [r3, #20]
  __HAL_RCC_GPIOA_CLK_ENABLE();
 8000e0e:	2180      	movs	r1, #128	; 0x80
  __HAL_RCC_GPIOF_CLK_ENABLE();
 8000e10:	695a      	ldr	r2, [r3, #20]
  __HAL_RCC_GPIOA_CLK_ENABLE();
 8000e12:	0289      	lsls	r1, r1, #10
  __HAL_RCC_GPIOF_CLK_ENABLE();
 8000e14:	4002      	ands	r2, r0
  HAL_GPIO_WritePin(GPIOA, GPIO_PIN_0|GPIO_PIN_1|GPIO_PIN_3|GPIO_PIN_4, GPIO_PIN_RESET);
 8000e16:	2090      	movs	r0, #144	; 0x90
  __HAL_RCC_GPIOF_CLK_ENABLE();
 8000e18:	9203      	str	r2, [sp, #12]
 8000e1a:	9a03      	ldr	r2, [sp, #12]
  __HAL_RCC_GPIOA_CLK_ENABLE();
 8000e1c:	695a      	ldr	r2, [r3, #20]
  HAL_GPIO_WritePin(GPIOA, GPIO_PIN_0|GPIO_PIN_1|GPIO_PIN_3|GPIO_PIN_4, GPIO_PIN_RESET);
 8000e1e:	05c0      	lsls	r0, r0, #23
  __HAL_RCC_GPIOA_CLK_ENABLE();
 8000e20:	430a      	orrs	r2, r1
 8000e22:	615a      	str	r2, [r3, #20]
 8000e24:	695b      	ldr	r3, [r3, #20]
  HAL_GPIO_WritePin(GPIOA, GPIO_PIN_0|GPIO_PIN_1|GPIO_PIN_3|GPIO_PIN_4, GPIO_PIN_RESET);
 8000e26:	0022      	movs	r2, r4
  __HAL_RCC_GPIOA_CLK_ENABLE();
 8000e28:	400b      	ands	r3, r1
 8000e2a:	9304      	str	r3, [sp, #16]
  HAL_GPIO_WritePin(GPIOA, GPIO_PIN_0|GPIO_PIN_1|GPIO_PIN_3|GPIO_PIN_4, GPIO_PIN_RESET);
 8000e2c:	211b      	movs	r1, #27
  __HAL_RCC_GPIOA_CLK_ENABLE();
 8000e2e:	9b04      	ldr	r3, [sp, #16]
  HAL_GPIO_WritePin(GPIOA, GPIO_PIN_0|GPIO_PIN_1|GPIO_PIN_3|GPIO_PIN_4, GPIO_PIN_RESET);
 8000e30:	f001 fbac 	bl	800258c <HAL_GPIO_WritePin>
  HAL_GPIO_WritePin(GPIOA, GPIO_PIN_2, GPIO_PIN_SET);
 8000e34:	2090      	movs	r0, #144	; 0x90
 8000e36:	002a      	movs	r2, r5
 8000e38:	2104      	movs	r1, #4
 8000e3a:	05c0      	lsls	r0, r0, #23
 8000e3c:	f001 fba6 	bl	800258c <HAL_GPIO_WritePin>
  HAL_GPIO_WritePin(GPIOB, GPIO_PIN_0|GPIO_PIN_3, GPIO_PIN_RESET);
 8000e40:	0022      	movs	r2, r4
 8000e42:	2109      	movs	r1, #9
 8000e44:	4882      	ldr	r0, [pc, #520]	; (8001050 <main+0x2c8>)
 8000e46:	f001 fba1 	bl	800258c <HAL_GPIO_WritePin>
  GPIO_InitStruct.Pin = GPIO_PIN_8;
 8000e4a:	2380      	movs	r3, #128	; 0x80
  HAL_GPIO_Init(GPIOB, &GPIO_InitStruct);
 8000e4c:	4880      	ldr	r0, [pc, #512]	; (8001050 <main+0x2c8>)
  GPIO_InitStruct.Pin = GPIO_PIN_8;
 8000e4e:	005b      	lsls	r3, r3, #1
  HAL_GPIO_Init(GPIOB, &GPIO_InitStruct);
 8000e50:	a905      	add	r1, sp, #20
  GPIO_InitStruct.Pin = GPIO_PIN_8;
 8000e52:	9305      	str	r3, [sp, #20]
  GPIO_InitStruct.Mode = GPIO_MODE_INPUT;
 8000e54:	9406      	str	r4, [sp, #24]
  GPIO_InitStruct.Pull = GPIO_NOPULL;
 8000e56:	9407      	str	r4, [sp, #28]
  HAL_GPIO_Init(GPIOB, &GPIO_InitStruct);
 8000e58:	f001 fa7a 	bl	8002350 <HAL_GPIO_Init>
  HAL_GPIO_Init(GPIOF, &GPIO_InitStruct);
 8000e5c:	487d      	ldr	r0, [pc, #500]	; (8001054 <main+0x2cc>)
 8000e5e:	a905      	add	r1, sp, #20
  GPIO_InitStruct.Pin = GPIO_PIN_1;
 8000e60:	9705      	str	r7, [sp, #20]
  GPIO_InitStruct.Mode = GPIO_MODE_INPUT;
 8000e62:	9406      	str	r4, [sp, #24]
  GPIO_InitStruct.Pull = GPIO_PULLUP;
 8000e64:	9507      	str	r5, [sp, #28]
  HAL_GPIO_Init(GPIOF, &GPIO_InitStruct);
 8000e66:	f001 fa73 	bl	8002350 <HAL_GPIO_Init>
  GPIO_InitStruct.Pin = GPIO_PIN_0|GPIO_PIN_1|GPIO_PIN_2;
 8000e6a:	2307      	movs	r3, #7
  HAL_GPIO_Init(GPIOA, &GPIO_InitStruct);
 8000e6c:	2090      	movs	r0, #144	; 0x90
  GPIO_InitStruct.Pin = GPIO_PIN_0|GPIO_PIN_1|GPIO_PIN_2;
 8000e6e:	9305      	str	r3, [sp, #20]
  HAL_GPIO_Init(GPIOA, &GPIO_InitStruct);
 8000e70:	a905      	add	r1, sp, #20
  GPIO_InitStruct.Mode = GPIO_MODE_OUTPUT_OD;
 8000e72:	330a      	adds	r3, #10
  HAL_GPIO_Init(GPIOA, &GPIO_InitStruct);
 8000e74:	05c0      	lsls	r0, r0, #23
  GPIO_InitStruct.Mode = GPIO_MODE_OUTPUT_OD;
 8000e76:	9306      	str	r3, [sp, #24]
  GPIO_InitStruct.Pull = GPIO_NOPULL;
 8000e78:	9407      	str	r4, [sp, #28]
  GPIO_InitStruct.Speed = GPIO_SPEED_FREQ_LOW;
 8000e7a:	9408      	str	r4, [sp, #32]
  HAL_GPIO_Init(GPIOA, &GPIO_InitStruct);
 8000e7c:	f001 fa68 	bl	8002350 <HAL_GPIO_Init>
  HAL_GPIO_Init(GPIOA, &GPIO_InitStruct);
 8000e80:	2090      	movs	r0, #144	; 0x90
  GPIO_InitStruct.Pin = GPIO_PIN_3|GPIO_PIN_4;
 8000e82:	2318      	movs	r3, #24
  HAL_GPIO_Init(GPIOA, &GPIO_InitStruct);
 8000e84:	a905      	add	r1, sp, #20
 8000e86:	05c0      	lsls	r0, r0, #23
  GPIO_InitStruct.Pin = GPIO_PIN_3|GPIO_PIN_4;
 8000e88:	9305      	str	r3, [sp, #20]
  GPIO_InitStruct.Mode = GPIO_MODE_OUTPUT_PP;
 8000e8a:	9506      	str	r5, [sp, #24]
  GPIO_InitStruct.Pull = GPIO_NOPULL;
 8000e8c:	9407      	str	r4, [sp, #28]
  GPIO_InitStruct.Speed = GPIO_SPEED_FREQ_LOW;
 8000e8e:	9408      	str	r4, [sp, #32]
  HAL_GPIO_Init(GPIOA, &GPIO_InitStruct);
 8000e90:	f001 fa5e 	bl	8002350 <HAL_GPIO_Init>
  GPIO_InitStruct.Pin = GPIO_PIN_0|GPIO_PIN_3;
 8000e94:	2309      	movs	r3, #9
  HAL_GPIO_Init(GPIOB, &GPIO_InitStruct);
 8000e96:	486e      	ldr	r0, [pc, #440]	; (8001050 <main+0x2c8>)
 8000e98:	a905      	add	r1, sp, #20
  GPIO_InitStruct.Pin = GPIO_PIN_0|GPIO_PIN_3;
 8000e9a:	9305      	str	r3, [sp, #20]
  GPIO_InitStruct.Mode = GPIO_MODE_OUTPUT_PP;
 8000e9c:	9506      	str	r5, [sp, #24]
  GPIO_InitStruct.Pull = GPIO_NOPULL;
 8000e9e:	9407      	str	r4, [sp, #28]
  GPIO_InitStruct.Speed = GPIO_SPEED_FREQ_LOW;
 8000ea0:	9408      	str	r4, [sp, #32]
  HAL_GPIO_Init(GPIOB, &GPIO_InitStruct);
 8000ea2:	f001 fa55 	bl	8002350 <HAL_GPIO_Init>
  GPIO_InitStruct.Pin = GPIO_PIN_15;
 8000ea6:	2380      	movs	r3, #128	; 0x80
  HAL_GPIO_Init(GPIOA, &GPIO_InitStruct);
 8000ea8:	2090      	movs	r0, #144	; 0x90
  GPIO_InitStruct.Pin = GPIO_PIN_15;
 8000eaa:	021b      	lsls	r3, r3, #8
  HAL_GPIO_Init(GPIOA, &GPIO_InitStruct);
 8000eac:	a905      	add	r1, sp, #20
 8000eae:	05c0      	lsls	r0, r0, #23
  GPIO_InitStruct.Pin = GPIO_PIN_15;
 8000eb0:	9305      	str	r3, [sp, #20]
  GPIO_InitStruct.Pull = GPIO_PULLDOWN;
 8000eb2:	9707      	str	r7, [sp, #28]
  GPIO_InitStruct.Mode = GPIO_MODE_INPUT;
 8000eb4:	9406      	str	r4, [sp, #24]
  HAL_GPIO_Init(GPIOA, &GPIO_InitStruct);
 8000eb6:	f001 fa4b 	bl	8002350 <HAL_GPIO_Init>
  GPIO_InitStruct.Pin = GPIO_PIN_4|GPIO_PIN_5;
 8000eba:	2330      	movs	r3, #48	; 0x30
  HAL_GPIO_Init(GPIOB, &GPIO_InitStruct);
 8000ebc:	a905      	add	r1, sp, #20
 8000ebe:	4864      	ldr	r0, [pc, #400]	; (8001050 <main+0x2c8>)
  GPIO_InitStruct.Pin = GPIO_PIN_4|GPIO_PIN_5;
 8000ec0:	9305      	str	r3, [sp, #20]
  GPIO_InitStruct.Mode = GPIO_MODE_INPUT;
 8000ec2:	9406      	str	r4, [sp, #24]
  GPIO_InitStruct.Pull = GPIO_PULLUP;
 8000ec4:	9507      	str	r5, [sp, #28]
  HAL_GPIO_Init(GPIOB, &GPIO_InitStruct);
 8000ec6:	f001 fa43 	bl	8002350 <HAL_GPIO_Init>
  hi2c1.Instance = I2C1;
 8000eca:	4f63      	ldr	r7, [pc, #396]	; (8001058 <main+0x2d0>)
 8000ecc:	4b63      	ldr	r3, [pc, #396]	; (800105c <main+0x2d4>)
  if (HAL_I2C_Init(&hi2c1) != HAL_OK)
 8000ece:	0038      	movs	r0, r7
  hi2c1.Instance = I2C1;
 8000ed0:	603b      	str	r3, [r7, #0]
  hi2c1.Init.Timing = 0x2000090E;
 8000ed2:	4b63      	ldr	r3, [pc, #396]	; (8001060 <main+0x2d8>)
  hi2c1.Init.AddressingMode = I2C_ADDRESSINGMODE_7BIT;
 8000ed4:	60fd      	str	r5, [r7, #12]
  hi2c1.Init.Timing = 0x2000090E;
 8000ed6:	607b      	str	r3, [r7, #4]
  hi2c1.Init.OwnAddress1 = 52;
 8000ed8:	2334      	movs	r3, #52	; 0x34
  hi2c1.Init.DualAddressMode = I2C_DUALADDRESS_DISABLE;
 8000eda:	613c      	str	r4, [r7, #16]
  hi2c1.Init.OwnAddress1 = 52;
 8000edc:	60bb      	str	r3, [r7, #8]
  hi2c1.Init.OwnAddress2 = 0;
 8000ede:	617c      	str	r4, [r7, #20]
  hi2c1.Init.OwnAddress2Masks = I2C_OA2_NOMASK;
 8000ee0:	61bc      	str	r4, [r7, #24]
  hi2c1.Init.GeneralCallMode = I2C_GENERALCALL_DISABLE;
 8000ee2:	61fc      	str	r4, [r7, #28]
  hi2c1.Init.NoStretchMode = I2C_NOSTRETCH_DISABLE;
 8000ee4:	623c      	str	r4, [r7, #32]
  if (HAL_I2C_Init(&hi2c1) != HAL_OK)
 8000ee6:	f001 fb57 	bl	8002598 <HAL_I2C_Init>
 8000eea:	0001      	movs	r1, r0
 8000eec:	42a0      	cmp	r0, r4
 8000eee:	d001      	beq.n	8000ef4 <main+0x16c>
    Error_Handler();
 8000ef0:	f7ff fdce 	bl	8000a90 <Error_Handler>
  if (HAL_I2CEx_ConfigAnalogFilter(&hi2c1, I2C_ANALOGFILTER_ENABLE) != HAL_OK)
 8000ef4:	0038      	movs	r0, r7
 8000ef6:	f001 fba5 	bl	8002644 <HAL_I2CEx_ConfigAnalogFilter>
 8000efa:	1e01      	subs	r1, r0, #0
 8000efc:	d1f8      	bne.n	8000ef0 <main+0x168>
  if (HAL_I2CEx_ConfigDigitalFilter(&hi2c1, 0) != HAL_OK)
 8000efe:	0038      	movs	r0, r7
 8000f00:	f001 fbc6 	bl	8002690 <HAL_I2CEx_ConfigDigitalFilter>
 8000f04:	1e07      	subs	r7, r0, #0
 8000f06:	d1f3      	bne.n	8000ef0 <main+0x168>
  MX_SPI1_Init();
 8000f08:	f7ff fdca 	bl	8000aa0 <MX_SPI1_Init>
  MX_USB_DEVICE_Init();
 8000f0c:	f004 ff8a 	bl	8005e24 <MX_USB_DEVICE_Init>
  ADC_ChannelConfTypeDef sConfig = {0};
 8000f10:	220c      	movs	r2, #12
 8000f12:	0039      	movs	r1, r7
 8000f14:	a805      	add	r0, sp, #20
 8000f16:	f005 fa04 	bl	8006322 <memset>
  hadc.Instance = ADC1;
 8000f1a:	4c52      	ldr	r4, [pc, #328]	; (8001064 <main+0x2dc>)
 8000f1c:	4b52      	ldr	r3, [pc, #328]	; (8001068 <main+0x2e0>)
  if (HAL_ADC_Init(&hadc) != HAL_OK)
 8000f1e:	0020      	movs	r0, r4
  hadc.Instance = ADC1;
 8000f20:	6023      	str	r3, [r4, #0]
  hadc.Init.EOCSelection = ADC_EOC_SINGLE_CONV;
 8000f22:	2304      	movs	r3, #4
 8000f24:	6163      	str	r3, [r4, #20]
  hadc.Init.ExternalTrigConv = ADC_SOFTWARE_START;
 8000f26:	23c2      	movs	r3, #194	; 0xc2
 8000f28:	33ff      	adds	r3, #255	; 0xff
 8000f2a:	61e3      	str	r3, [r4, #28]
  hadc.Init.LowPowerAutoWait = DISABLE;
 8000f2c:	61a7      	str	r7, [r4, #24]
  hadc.Init.DMAContinuousRequests = DISABLE;
 8000f2e:	1d63      	adds	r3, r4, #5
  hadc.Init.ClockPrescaler = ADC_CLOCK_ASYNC_DIV1;
 8000f30:	6067      	str	r7, [r4, #4]
  hadc.Init.Resolution = ADC_RESOLUTION_12B;
 8000f32:	60a7      	str	r7, [r4, #8]
  hadc.Init.DataAlign = ADC_DATAALIGN_RIGHT;
 8000f34:	60e7      	str	r7, [r4, #12]
  hadc.Init.ScanConvMode = ADC_SCAN_DIRECTION_FORWARD;
 8000f36:	6125      	str	r5, [r4, #16]
  hadc.Init.ExternalTrigConvEdge = ADC_EXTERNALTRIGCONVEDGE_NONE;
 8000f38:	6227      	str	r7, [r4, #32]
  hadc.Init.DMAContinuousRequests = DISABLE;
 8000f3a:	77df      	strb	r7, [r3, #31]
  hadc.Init.Overrun = ADC_OVR_DATA_PRESERVED;
 8000f3c:	62a5      	str	r5, [r4, #40]	; 0x28
  if (HAL_ADC_Init(&hadc) != HAL_OK)
 8000f3e:	f000 ff59 	bl	8001df4 <HAL_ADC_Init>
 8000f42:	2800      	cmp	r0, #0
 8000f44:	d1d4      	bne.n	8000ef0 <main+0x168>
  sConfig.Channel = ADC_CHANNEL_TEMPSENSOR;
 8000f46:	2310      	movs	r3, #16
 8000f48:	9305      	str	r3, [sp, #20]
  sConfig.Rank = ADC_RANK_CHANNEL_NUMBER;
 8000f4a:	2380      	movs	r3, #128	; 0x80
 8000f4c:	015b      	lsls	r3, r3, #5
 8000f4e:	9306      	str	r3, [sp, #24]
  sConfig.SamplingTime = ADC_SAMPLETIME_1CYCLE_5;
 8000f50:	2380      	movs	r3, #128	; 0x80
  if (HAL_ADC_ConfigChannel(&hadc, &sConfig) != HAL_OK)
 8000f52:	0020      	movs	r0, r4
  sConfig.SamplingTime = ADC_SAMPLETIME_1CYCLE_5;
 8000f54:	055b      	lsls	r3, r3, #21
  if (HAL_ADC_ConfigChannel(&hadc, &sConfig) != HAL_OK)
 8000f56:	a905      	add	r1, sp, #20
  sConfig.SamplingTime = ADC_SAMPLETIME_1CYCLE_5;
 8000f58:	9307      	str	r3, [sp, #28]
  if (HAL_ADC_ConfigChannel(&hadc, &sConfig) != HAL_OK)
 8000f5a:	f000 fff3 	bl	8001f44 <HAL_ADC_ConfigChannel>
 8000f5e:	1e04      	subs	r4, r0, #0
 8000f60:	d1c6      	bne.n	8000ef0 <main+0x168>
  Set_CS(0);
 8000f62:	f7ff fc7b 	bl	800085c <Set_CS>
		HAL_GPIO_WritePin(GPIOB,GPIO_PIN_3,GPIO_PIN_SET);
 8000f66:	002a      	movs	r2, r5
 8000f68:	2108      	movs	r1, #8
 8000f6a:	4839      	ldr	r0, [pc, #228]	; (8001050 <main+0x2c8>)
 8000f6c:	f001 fb0e 	bl	800258c <HAL_GPIO_WritePin>
  SFT_I2C_Init(GPIOA,GPIO_PIN_1,GPIOA,GPIO_PIN_0,&si2c1,0);
 8000f70:	2290      	movs	r2, #144	; 0x90
 8000f72:	4f3e      	ldr	r7, [pc, #248]	; (800106c <main+0x2e4>)
 8000f74:	05d2      	lsls	r2, r2, #23
 8000f76:	0010      	movs	r0, r2
 8000f78:	002b      	movs	r3, r5
 8000f7a:	2102      	movs	r1, #2
 8000f7c:	9700      	str	r7, [sp, #0]
 8000f7e:	9401      	str	r4, [sp, #4]
 8000f80:	f7ff fa60 	bl	8000444 <SFT_I2C_Init>
  SFT_I2C_Master_Transmit(&si2c1,GPIO_EXPANDER_ADDR,SysCntrl.i2c_bt,2,1); // Clear outputs
 8000f84:	0038      	movs	r0, r7
 8000f86:	2302      	movs	r3, #2
 8000f88:	2140      	movs	r1, #64	; 0x40
 8000f8a:	4a39      	ldr	r2, [pc, #228]	; (8001070 <main+0x2e8>)
 8000f8c:	9500      	str	r5, [sp, #0]
 8000f8e:	f7ff fb49 	bl	8000624 <SFT_I2C_Master_Transmit>
  SysCntrl.i2c_bt[0] = 0x3;
 8000f92:	2303      	movs	r3, #3
  SFT_I2C_Master_Transmit(&si2c1,GPIO_EXPANDER_ADDR,SysCntrl.i2c_bt,2,1); // All outputs
 8000f94:	2140      	movs	r1, #64	; 0x40
 8000f96:	4a36      	ldr	r2, [pc, #216]	; (8001070 <main+0x2e8>)
  SysCntrl.i2c_bt[0] = 0x3;
 8000f98:	7133      	strb	r3, [r6, #4]
  SFT_I2C_Master_Transmit(&si2c1,GPIO_EXPANDER_ADDR,SysCntrl.i2c_bt,2,1); // All outputs
 8000f9a:	0038      	movs	r0, r7
 8000f9c:	3b01      	subs	r3, #1
 8000f9e:	9500      	str	r5, [sp, #0]
 8000fa0:	f7ff fb40 	bl	8000624 <SFT_I2C_Master_Transmit>
  SPI_Reset(0);
 8000fa4:	0020      	movs	r0, r4
  SysCntrl.i2c_bt[0] = 0x1;
 8000fa6:	7135      	strb	r5, [r6, #4]
  SPI_Reset(0);
 8000fa8:	f000 f914 	bl	80011d4 <SPI_Reset>
  SPI_Reset(1);
 8000fac:	0028      	movs	r0, r5
 8000fae:	f000 f911 	bl	80011d4 <SPI_Reset>
  hi2c.state = 0;
 8000fb2:	221f      	movs	r2, #31
 8000fb4:	4b23      	ldr	r3, [pc, #140]	; (8001044 <main+0x2bc>)
  USB_EnableGlobalInt(&hUsbDeviceFS);
 8000fb6:	4e2f      	ldr	r6, [pc, #188]	; (8001074 <main+0x2ec>)
  hi2c.state = 0;
 8000fb8:	781b      	ldrb	r3, [r3, #0]
  USB_EnableGlobalInt(&hUsbDeviceFS);
 8000fba:	0030      	movs	r0, r6
  hi2c.state = 0;
 8000fbc:	4393      	bics	r3, r2
 8000fbe:	4a21      	ldr	r2, [pc, #132]	; (8001044 <main+0x2bc>)
				 switch(hUsbDeviceFS.dev_state){
 8000fc0:	27a7      	movs	r7, #167	; 0xa7
  hi2c.state = 0;
 8000fc2:	7013      	strb	r3, [r2, #0]
  USB_EnableGlobalInt(&hUsbDeviceFS);
 8000fc4:	f003 fc54 	bl	8004870 <USB_EnableGlobalInt>
  refreshConsoleBuffer();
 8000fc8:	f7ff fd1e 	bl	8000a08 <refreshConsoleBuffer>
  DisableSPI();
 8000fcc:	f7ff fc06 	bl	80007dc <DisableSPI>
  clearHi2c();
 8000fd0:	f7ff fb7e 	bl	80006d0 <clearHi2c>
  HAL_GPIO_WritePin(GPIOA,GPIO_PIN_2,GPIO_PIN_RESET);
 8000fd4:	2090      	movs	r0, #144	; 0x90
 8000fd6:	0022      	movs	r2, r4
 8000fd8:	2104      	movs	r1, #4
 8000fda:	05c0      	lsls	r0, r0, #23
 8000fdc:	f001 fad6 	bl	800258c <HAL_GPIO_WritePin>
				 switch(hUsbDeviceFS.dev_state){
 8000fe0:	00bf      	lsls	r7, r7, #2
	  if(SysCntrl.TimerTick) {
 8000fe2:	4c13      	ldr	r4, [pc, #76]	; (8001030 <main+0x2a8>)
 8000fe4:	4a24      	ldr	r2, [pc, #144]	; (8001078 <main+0x2f0>)
	  asm("nop");
 8000fe6:	46c0      	nop			; (mov r8, r8)
	  if(SysCntrl.TimerTick) {
 8000fe8:	5ca1      	ldrb	r1, [r4, r2]
 8000fea:	1c0b      	adds	r3, r1, #0
 8000fec:	4229      	tst	r1, r5
 8000fee:	d0fa      	beq.n	8000fe6 <main+0x25e>
		  SysCntrl.TimerTick = 0;
 8000ff0:	43ab      	bics	r3, r5
 8000ff2:	54a3      	strb	r3, [r4, r2]
		  switch(SysCntrl.MS_counter % 10) {
 8000ff4:	4b21      	ldr	r3, [pc, #132]	; (800107c <main+0x2f4>)
 8000ff6:	210a      	movs	r1, #10
 8000ff8:	5ae0      	ldrh	r0, [r4, r3]
 8000ffa:	f7ff f93b 	bl	8000274 <__aeabi_uidivmod>
 8000ffe:	b288      	uxth	r0, r1
 8001000:	2803      	cmp	r0, #3
 8001002:	d8ee      	bhi.n	8000fe2 <main+0x25a>
 8001004:	f7ff f892 	bl	800012c <__gnu_thumb1_case_uqi>
 8001008:	100e0b02 	.word	0x100e0b02
			 if(SysCntrl.power_stage == 51)
 800100c:	7823      	ldrb	r3, [r4, #0]
 800100e:	2b33      	cmp	r3, #51	; 0x33
 8001010:	d1e7      	bne.n	8000fe2 <main+0x25a>
				 switch(hUsbDeviceFS.dev_state){
 8001012:	5df3      	ldrb	r3, [r6, r7]
 8001014:	2b03      	cmp	r3, #3
 8001016:	d1e4      	bne.n	8000fe2 <main+0x25a>
						 UART_Con_Mash();
 8001018:	f7ff fd8a 	bl	8000b30 <UART_Con_Mash>
					break;
 800101c:	e7e1      	b.n	8000fe2 <main+0x25a>
			  PowerSM();
 800101e:	f000 fc83 	bl	8001928 <PowerSM>
			  break;
 8001022:	e7de      	b.n	8000fe2 <main+0x25a>
			  i2cSM();
 8001024:	f7ff fb68 	bl	80006f8 <i2cSM>
			checkPowerLevels(0);
 8001028:	2000      	movs	r0, #0
 800102a:	f000 fb29 	bl	8001680 <checkPowerLevels>
			  break;
 800102e:	e7d8      	b.n	8000fe2 <main+0x25a>
 8001030:	2000049c 	.word	0x2000049c
 8001034:	000002da 	.word	0x000002da
 8001038:	ffffd8fd 	.word	0xffffd8fd
 800103c:	00002002 	.word	0x00002002
 8001040:	000002d9 	.word	0x000002d9
 8001044:	20000778 	.word	0x20000778
 8001048:	00000faf 	.word	0x00000faf
 800104c:	40021000 	.word	0x40021000
 8001050:	48000400 	.word	0x48000400
 8001054:	48001400 	.word	0x48001400
 8001058:	20000798 	.word	0x20000798
 800105c:	40005400 	.word	0x40005400
 8001060:	2000090e 	.word	0x2000090e
 8001064:	20000848 	.word	0x20000848
 8001068:	40012400 	.word	0x40012400
 800106c:	20000780 	.word	0x20000780
 8001070:	200004a0 	.word	0x200004a0
 8001074:	200008f8 	.word	0x200008f8
 8001078:	000002d5 	.word	0x000002d5
 800107c:	000002d6 	.word	0x000002d6

08001080 <SPI_ReadStatus>:


#define CORRECTOR 1

// Sector - 64
uint8_t SPI_ReadStatus() {
 8001080:	b570      	push	{r4, r5, r6, lr}
	Clr_CS(SysCntrl.active_cs);
 8001082:	4c0d      	ldr	r4, [pc, #52]	; (80010b8 <SPI_ReadStatus+0x38>)
	SysCntrl.spi_buf_tx[0] = 0x05;
	HAL_SPI_Transmit(&hspi1, SysCntrl.spi_buf_tx, 1, HAL_MAX_DELAY);
 8001084:	2601      	movs	r6, #1
	Clr_CS(SysCntrl.active_cs);
 8001086:	79a0      	ldrb	r0, [r4, #6]
 8001088:	f7ff fbf8 	bl	800087c <Clr_CS>
	SysCntrl.spi_buf_tx[0] = 0x05;
 800108c:	2305      	movs	r3, #5
	HAL_SPI_Transmit(&hspi1, SysCntrl.spi_buf_tx, 1, HAL_MAX_DELAY);
 800108e:	4d0b      	ldr	r5, [pc, #44]	; (80010bc <SPI_ReadStatus+0x3c>)
 8001090:	4276      	negs	r6, r6
 8001092:	0028      	movs	r0, r5
	SysCntrl.spi_buf_tx[0] = 0x05;
 8001094:	71e3      	strb	r3, [r4, #7]
	HAL_SPI_Transmit(&hspi1, SysCntrl.spi_buf_tx, 1, HAL_MAX_DELAY);
 8001096:	2201      	movs	r2, #1
 8001098:	0033      	movs	r3, r6
 800109a:	4909      	ldr	r1, [pc, #36]	; (80010c0 <SPI_ReadStatus+0x40>)
 800109c:	f002 ff85 	bl	8003faa <HAL_SPI_Transmit>
	HAL_SPI_Receive(&hspi1,SysCntrl.spi_buf_rx, 1, HAL_MAX_DELAY);
 80010a0:	0033      	movs	r3, r6
 80010a2:	2201      	movs	r2, #1
 80010a4:	0028      	movs	r0, r5
 80010a6:	4907      	ldr	r1, [pc, #28]	; (80010c4 <SPI_ReadStatus+0x44>)
 80010a8:	f003 f942 	bl	8004330 <HAL_SPI_Receive>

	Set_CS(SysCntrl.active_cs);
 80010ac:	79a0      	ldrb	r0, [r4, #6]
 80010ae:	f7ff fbd5 	bl	800085c <Set_CS>

	return SysCntrl.spi_buf_rx[0];
 80010b2:	7de0      	ldrb	r0, [r4, #23]
}
 80010b4:	bd70      	pop	{r4, r5, r6, pc}
 80010b6:	46c0      	nop			; (mov r8, r8)
 80010b8:	2000049c 	.word	0x2000049c
 80010bc:	200007e4 	.word	0x200007e4
 80010c0:	200004a3 	.word	0x200004a3
 80010c4:	200004b3 	.word	0x200004b3

080010c8 <Flash_WriteEnable>:

void Flash_WriteEnable() {
 80010c8:	b510      	push	{r4, lr}

	Clr_CS(SysCntrl.active_cs);
 80010ca:	4c08      	ldr	r4, [pc, #32]	; (80010ec <Flash_WriteEnable+0x24>)
 80010cc:	79a0      	ldrb	r0, [r4, #6]
 80010ce:	f7ff fbd5 	bl	800087c <Clr_CS>
	SysCntrl.spi_buf_tx[0] = 0x06;
 80010d2:	2306      	movs	r3, #6
 80010d4:	71e3      	strb	r3, [r4, #7]
	HAL_SPI_Transmit(&hspi1, SysCntrl.spi_buf_tx, 1, HAL_MAX_DELAY);
 80010d6:	3b05      	subs	r3, #5
 80010d8:	2201      	movs	r2, #1
 80010da:	4905      	ldr	r1, [pc, #20]	; (80010f0 <Flash_WriteEnable+0x28>)
 80010dc:	425b      	negs	r3, r3
 80010de:	4805      	ldr	r0, [pc, #20]	; (80010f4 <Flash_WriteEnable+0x2c>)
 80010e0:	f002 ff63 	bl	8003faa <HAL_SPI_Transmit>
	Set_CS(SysCntrl.active_cs);
 80010e4:	79a0      	ldrb	r0, [r4, #6]
 80010e6:	f7ff fbb9 	bl	800085c <Set_CS>
}
 80010ea:	bd10      	pop	{r4, pc}
 80010ec:	2000049c 	.word	0x2000049c
 80010f0:	200004a3 	.word	0x200004a3
 80010f4:	200007e4 	.word	0x200007e4

080010f8 <SPI_EraseAddr>:
		SysCntrl.SPI_page_idx = 0;

}


void SPI_EraseAddr(uint32_t addr) {
 80010f8:	b570      	push	{r4, r5, r6, lr}
	uint8_t i;

	Clr_CS(SysCntrl.active_cs);
 80010fa:	4c11      	ldr	r4, [pc, #68]	; (8001140 <SPI_EraseAddr+0x48>)
void SPI_EraseAddr(uint32_t addr) {
 80010fc:	0005      	movs	r5, r0
	Clr_CS(SysCntrl.active_cs);
 80010fe:	79a0      	ldrb	r0, [r4, #6]
 8001100:	f7ff fbbc 	bl	800087c <Clr_CS>
	SysCntrl.spi_buf_tx[0] = 0xD8;
 8001104:	23d8      	movs	r3, #216	; 0xd8
 8001106:	71e3      	strb	r3, [r4, #7]
	SysCntrl.spi_buf_tx[1] = (addr>>16) & 0xff;
 8001108:	0c2b      	lsrs	r3, r5, #16
 800110a:	7223      	strb	r3, [r4, #8]
	SysCntrl.spi_buf_tx[2] = (addr>>8)  & 0xff;
 800110c:	0a2b      	lsrs	r3, r5, #8
 800110e:	7263      	strb	r3, [r4, #9]
	SysCntrl.spi_buf_tx[3] = (addr>>0)  & 0xff;

	HAL_SPI_Transmit(&hspi1, SysCntrl.spi_buf_tx, 4, HAL_MAX_DELAY);
 8001110:	2301      	movs	r3, #1
 8001112:	2204      	movs	r2, #4
 8001114:	490b      	ldr	r1, [pc, #44]	; (8001144 <SPI_EraseAddr+0x4c>)
 8001116:	425b      	negs	r3, r3
 8001118:	480b      	ldr	r0, [pc, #44]	; (8001148 <SPI_EraseAddr+0x50>)
	SysCntrl.spi_buf_tx[3] = (addr>>0)  & 0xff;
 800111a:	72a5      	strb	r5, [r4, #10]
	HAL_SPI_Transmit(&hspi1, SysCntrl.spi_buf_tx, 4, HAL_MAX_DELAY);
 800111c:	f002 ff45 	bl	8003faa <HAL_SPI_Transmit>
	Set_CS(SysCntrl.active_cs);
 8001120:	79a0      	ldrb	r0, [r4, #6]
 8001122:	f7ff fb9b 	bl	800085c <Set_CS>
void SPI_EraseAddr(uint32_t addr) {
 8001126:	2564      	movs	r5, #100	; 0x64


	do{
		for(i=0;i<100;i++)asm("nop");
	}while(SPI_ReadStatus()&1);
 8001128:	2401      	movs	r4, #1
void SPI_EraseAddr(uint32_t addr) {
 800112a:	002b      	movs	r3, r5
		for(i=0;i<100;i++)asm("nop");
 800112c:	46c0      	nop			; (mov r8, r8)
 800112e:	3b01      	subs	r3, #1
 8001130:	b2db      	uxtb	r3, r3
 8001132:	2b00      	cmp	r3, #0
 8001134:	d1fa      	bne.n	800112c <SPI_EraseAddr+0x34>
	}while(SPI_ReadStatus()&1);
 8001136:	f7ff ffa3 	bl	8001080 <SPI_ReadStatus>
 800113a:	4220      	tst	r0, r4
 800113c:	d1f5      	bne.n	800112a <SPI_EraseAddr+0x32>
}
 800113e:	bd70      	pop	{r4, r5, r6, pc}
 8001140:	2000049c 	.word	0x2000049c
 8001144:	200004a3 	.word	0x200004a3
 8001148:	200007e4 	.word	0x200007e4

0800114c <Flash_PageWrite>:
void Flash_PageWrite() {
 800114c:	b5f8      	push	{r3, r4, r5, r6, r7, lr}
	}while(SPI_ReadStatus()&1);
 800114e:	2401      	movs	r4, #1
 8001150:	f7ff ff96 	bl	8001080 <SPI_ReadStatus>
 8001154:	4220      	tst	r0, r4
 8001156:	d1fb      	bne.n	8001150 <Flash_PageWrite+0x4>
		Flash_WriteEnable();
 8001158:	f7ff ffb6 	bl	80010c8 <Flash_WriteEnable>
	if((SysCntrl.SPI_address & 0xffff) == 0)
 800115c:	23af      	movs	r3, #175	; 0xaf
 800115e:	4c19      	ldr	r4, [pc, #100]	; (80011c4 <Flash_PageWrite+0x78>)
 8001160:	009b      	lsls	r3, r3, #2
 8001162:	58e0      	ldr	r0, [r4, r3]
 8001164:	b283      	uxth	r3, r0
 8001166:	2b00      	cmp	r3, #0
 8001168:	d101      	bne.n	800116e <Flash_PageWrite+0x22>
		SPI_EraseAddr(SysCntrl.SPI_address);
 800116a:	f7ff ffc5 	bl	80010f8 <SPI_EraseAddr>
		Flash_WriteEnable();
 800116e:	f7ff ffab 	bl	80010c8 <Flash_WriteEnable>
		SysCntrl.spi_buf_tx[1] = (SysCntrl.SPI_address>>16) & 0xff;
 8001172:	26af      	movs	r6, #175	; 0xaf
		Clr_CS(SysCntrl.active_cs);
 8001174:	79a0      	ldrb	r0, [r4, #6]
 8001176:	f7ff fb81 	bl	800087c <Clr_CS>
		SysCntrl.spi_buf_tx[0] = 0x02;
 800117a:	2302      	movs	r3, #2
		SysCntrl.spi_buf_tx[1] = (SysCntrl.SPI_address>>16) & 0xff;
 800117c:	00b6      	lsls	r6, r6, #2
		SysCntrl.spi_buf_tx[0] = 0x02;
 800117e:	71e3      	strb	r3, [r4, #7]
		SysCntrl.spi_buf_tx[1] = (SysCntrl.SPI_address>>16) & 0xff;
 8001180:	59a3      	ldr	r3, [r4, r6]
		HAL_SPI_Transmit(&hspi1, SysCntrl.SPI_page, SysCntrl.SPI_page_idx, HAL_MAX_DELAY);
 8001182:	25ae      	movs	r5, #174	; 0xae
		SysCntrl.spi_buf_tx[1] = (SysCntrl.SPI_address>>16) & 0xff;
 8001184:	0c1a      	lsrs	r2, r3, #16
 8001186:	7222      	strb	r2, [r4, #8]
		SysCntrl.spi_buf_tx[3] = (SysCntrl.SPI_address>>0)  & 0xff;
 8001188:	72a3      	strb	r3, [r4, #10]
		SysCntrl.spi_buf_tx[2] = (SysCntrl.SPI_address>>8)  & 0xff;
 800118a:	0a1a      	lsrs	r2, r3, #8
		HAL_SPI_Transmit(&hspi1, SysCntrl.spi_buf_tx, 4, HAL_MAX_DELAY);
 800118c:	2301      	movs	r3, #1
 800118e:	4f0e      	ldr	r7, [pc, #56]	; (80011c8 <Flash_PageWrite+0x7c>)
		HAL_SPI_Transmit(&hspi1, SysCntrl.SPI_page, SysCntrl.SPI_page_idx, HAL_MAX_DELAY);
 8001190:	00ad      	lsls	r5, r5, #2
		HAL_SPI_Transmit(&hspi1, SysCntrl.spi_buf_tx, 4, HAL_MAX_DELAY);
 8001192:	0038      	movs	r0, r7
		SysCntrl.spi_buf_tx[2] = (SysCntrl.SPI_address>>8)  & 0xff;
 8001194:	7262      	strb	r2, [r4, #9]
		HAL_SPI_Transmit(&hspi1, SysCntrl.spi_buf_tx, 4, HAL_MAX_DELAY);
 8001196:	490d      	ldr	r1, [pc, #52]	; (80011cc <Flash_PageWrite+0x80>)
 8001198:	2204      	movs	r2, #4
 800119a:	425b      	negs	r3, r3
 800119c:	f002 ff05 	bl	8003faa <HAL_SPI_Transmit>
		HAL_SPI_Transmit(&hspi1, SysCntrl.SPI_page, SysCntrl.SPI_page_idx, HAL_MAX_DELAY);
 80011a0:	5963      	ldr	r3, [r4, r5]
 80011a2:	0038      	movs	r0, r7
 80011a4:	b29a      	uxth	r2, r3
 80011a6:	2301      	movs	r3, #1
 80011a8:	4909      	ldr	r1, [pc, #36]	; (80011d0 <Flash_PageWrite+0x84>)
 80011aa:	425b      	negs	r3, r3
 80011ac:	f002 fefd 	bl	8003faa <HAL_SPI_Transmit>
		Set_CS(SysCntrl.active_cs);
 80011b0:	79a0      	ldrb	r0, [r4, #6]
 80011b2:	f7ff fb53 	bl	800085c <Set_CS>
		SysCntrl.SPI_address += SysCntrl.SPI_page_idx;
 80011b6:	59a3      	ldr	r3, [r4, r6]
 80011b8:	5962      	ldr	r2, [r4, r5]
 80011ba:	189b      	adds	r3, r3, r2
 80011bc:	51a3      	str	r3, [r4, r6]
		SysCntrl.SPI_page_idx = 0;
 80011be:	2300      	movs	r3, #0
 80011c0:	5163      	str	r3, [r4, r5]
}
 80011c2:	bdf8      	pop	{r3, r4, r5, r6, r7, pc}
 80011c4:	2000049c 	.word	0x2000049c
 80011c8:	200007e4 	.word	0x200007e4
 80011cc:	200004a3 	.word	0x200004a3
 80011d0:	200005c8 	.word	0x200005c8

080011d4 <SPI_Reset>:

void SPI_Reset(uint8_t cs) {
 80011d4:	b510      	push	{r4, lr}
 80011d6:	0004      	movs	r4, r0
	Clr_CS(cs);
 80011d8:	f7ff fb50 	bl	800087c <Clr_CS>
	SysCntrl.spi_buf_tx[0] = 0x66;
 80011dc:	2266      	movs	r2, #102	; 0x66
 80011de:	4b07      	ldr	r3, [pc, #28]	; (80011fc <SPI_Reset+0x28>)
	SysCntrl.spi_buf_tx[1] = 0x99;
	HAL_SPI_Transmit(&hspi1, SysCntrl.spi_buf_tx, 2, HAL_MAX_DELAY);
 80011e0:	4907      	ldr	r1, [pc, #28]	; (8001200 <SPI_Reset+0x2c>)
	SysCntrl.spi_buf_tx[0] = 0x66;
 80011e2:	71da      	strb	r2, [r3, #7]
	SysCntrl.spi_buf_tx[1] = 0x99;
 80011e4:	3233      	adds	r2, #51	; 0x33
 80011e6:	721a      	strb	r2, [r3, #8]
	HAL_SPI_Transmit(&hspi1, SysCntrl.spi_buf_tx, 2, HAL_MAX_DELAY);
 80011e8:	2301      	movs	r3, #1
 80011ea:	3a97      	subs	r2, #151	; 0x97
 80011ec:	425b      	negs	r3, r3
 80011ee:	4805      	ldr	r0, [pc, #20]	; (8001204 <SPI_Reset+0x30>)
 80011f0:	f002 fedb 	bl	8003faa <HAL_SPI_Transmit>
	Set_CS(cs);
 80011f4:	0020      	movs	r0, r4
 80011f6:	f7ff fb31 	bl	800085c <Set_CS>
}
 80011fa:	bd10      	pop	{r4, pc}
 80011fc:	2000049c 	.word	0x2000049c
 8001200:	200004a3 	.word	0x200004a3
 8001204:	200007e4 	.word	0x200007e4

08001208 <SPI_ReadID>:

uint8_t SPI_ReadID(uint8_t cs,struct memoryReport *data) {
 8001208:	b5f7      	push	{r0, r1, r2, r4, r5, r6, r7, lr}
 800120a:	000c      	movs	r4, r1
 800120c:	0007      	movs	r7, r0
	Clr_CS(cs);
 800120e:	f7ff fb35 	bl	800087c <Clr_CS>
	SysCntrl.spi_buf_tx[0] = 0x9f;
 8001212:	239f      	movs	r3, #159	; 0x9f
 8001214:	4d0f      	ldr	r5, [pc, #60]	; (8001254 <SPI_ReadID+0x4c>)
	SysCntrl.spi_buf_tx[1] = 0x0;
	SysCntrl.spi_buf_tx[2] = 0x0;
	SysCntrl.spi_buf_tx[3] = 0x0;
	SysCntrl.spi_buf_tx[4] = 0x0;
	uint8_t result = HAL_SPI_TransmitReceive(&hspi1, SysCntrl.spi_buf_tx, SysCntrl.spi_buf_rx, 5,HAL_MAX_DELAY);
 8001216:	4a10      	ldr	r2, [pc, #64]	; (8001258 <SPI_ReadID+0x50>)
	SysCntrl.spi_buf_tx[0] = 0x9f;
 8001218:	71eb      	strb	r3, [r5, #7]
	SysCntrl.spi_buf_tx[1] = 0x0;
 800121a:	2300      	movs	r3, #0
 800121c:	60ab      	str	r3, [r5, #8]
	uint8_t result = HAL_SPI_TransmitReceive(&hspi1, SysCntrl.spi_buf_tx, SysCntrl.spi_buf_rx, 5,HAL_MAX_DELAY);
 800121e:	3b01      	subs	r3, #1
 8001220:	9300      	str	r3, [sp, #0]
 8001222:	490e      	ldr	r1, [pc, #56]	; (800125c <SPI_ReadID+0x54>)
 8001224:	480e      	ldr	r0, [pc, #56]	; (8001260 <SPI_ReadID+0x58>)
 8001226:	3306      	adds	r3, #6
 8001228:	f002 ff7c 	bl	8004124 <HAL_SPI_TransmitReceive>
 800122c:	1e06      	subs	r6, r0, #0
//	char buf[30];
//	for(i = 0; i < 5; i++){
//		sprintf(buf, "spi_buf_rx(%d): %x", i, SysCntrl.spi_buf_rx[i]);
//		UART_putstrln(buf);
//	}
	if(result == HAL_OK && data!=NULL){
 800122e:	d10b      	bne.n	8001248 <SPI_ReadID+0x40>
 8001230:	2c00      	cmp	r4, #0
 8001232:	d009      	beq.n	8001248 <SPI_ReadID+0x40>
			data->ManufacturerID = SysCntrl.spi_buf_rx[1];
 8001234:	7e2b      	ldrb	r3, [r5, #24]
 8001236:	7023      	strb	r3, [r4, #0]
			data->MemoryType = SysCntrl.spi_buf_rx[2];
 8001238:	7e6b      	ldrb	r3, [r5, #25]
 800123a:	7063      	strb	r3, [r4, #1]
			data->MemoryCapacity = SysCntrl.spi_buf_rx[3];
 800123c:	7eab      	ldrb	r3, [r5, #26]
 800123e:	70a3      	strb	r3, [r4, #2]
			data->UniqID[0] = SysCntrl.spi_buf_rx[4];
 8001240:	7eeb      	ldrb	r3, [r5, #27]
 8001242:	70e3      	strb	r3, [r4, #3]
			data->UniqID[1] = SysCntrl.spi_buf_rx[5];
 8001244:	7f2b      	ldrb	r3, [r5, #28]
 8001246:	7123      	strb	r3, [r4, #4]
	}
	Set_CS(cs);
 8001248:	0038      	movs	r0, r7
 800124a:	f7ff fb07 	bl	800085c <Set_CS>
	return result;
}
 800124e:	0030      	movs	r0, r6
 8001250:	bdfe      	pop	{r1, r2, r3, r4, r5, r6, r7, pc}
 8001252:	46c0      	nop			; (mov r8, r8)
 8001254:	2000049c 	.word	0x2000049c
 8001258:	200004b3 	.word	0x200004b3
 800125c:	200004a3 	.word	0x200004a3
 8001260:	200007e4 	.word	0x200007e4

08001264 <Xmodem_SPI>:

extern struct SConsole console;
void Xmodem_SPI(){
 8001264:	b5f7      	push	{r0, r1, r2, r4, r5, r6, r7, lr}
	uint8_t bt;
	int result,i;

	if(SysCntrl.TimerCnt)SysCntrl.TimerCnt--;
 8001266:	22b4      	movs	r2, #180	; 0xb4
 8001268:	4c5c      	ldr	r4, [pc, #368]	; (80013dc <Xmodem_SPI+0x178>)
 800126a:	0092      	lsls	r2, r2, #2
 800126c:	58a3      	ldr	r3, [r4, r2]
 800126e:	2b00      	cmp	r3, #0
 8001270:	d001      	beq.n	8001276 <Xmodem_SPI+0x12>
 8001272:	3b01      	subs	r3, #1
 8001274:	50a3      	str	r3, [r4, r2]

	switch(SysCntrl.XmodemState) {
 8001276:	25b3      	movs	r5, #179	; 0xb3
 8001278:	00ad      	lsls	r5, r5, #2
 800127a:	5d66      	ldrb	r6, [r4, r5]
 800127c:	2e01      	cmp	r6, #1
 800127e:	d03e      	beq.n	80012fe <Xmodem_SPI+0x9a>
 8001280:	2e02      	cmp	r6, #2
 8001282:	d100      	bne.n	8001286 <Xmodem_SPI+0x22>
 8001284:	e06c      	b.n	8001360 <Xmodem_SPI+0xfc>
 8001286:	2e00      	cmp	r6, #0
 8001288:	d10c      	bne.n	80012a4 <Xmodem_SPI+0x40>
	case XMODEM_STATE_INIT:
		result = ReadUartNonBlock(&bt,1);
 800128a:	466b      	mov	r3, sp
 800128c:	1ddf      	adds	r7, r3, #7
 800128e:	2101      	movs	r1, #1
 8001290:	0038      	movs	r0, r7
 8001292:	f7ff fb4f 	bl	8000934 <ReadUartNonBlock>
		if((result>0)) {
 8001296:	2800      	cmp	r0, #0
 8001298:	dd15      	ble.n	80012c6 <Xmodem_SPI+0x62>
			switch(bt){
 800129a:	783b      	ldrb	r3, [r7, #0]
 800129c:	2b01      	cmp	r3, #1
 800129e:	d002      	beq.n	80012a6 <Xmodem_SPI+0x42>
 80012a0:	2b03      	cmp	r3, #3
 80012a2:	d00a      	beq.n	80012ba <Xmodem_SPI+0x56>
	case XMODEM_STATE_S2:
		break;
	case XMODEM_STATE_S3:
		break;
	}
}
 80012a4:	bdf7      	pop	{r0, r1, r2, r4, r5, r6, r7, pc}
				SysCntrl.XmodemState = XMODEM_STATE_S0;
 80012a6:	5563      	strb	r3, [r4, r5]
				SysCntrl.X_idx = 0;
 80012a8:	23b1      	movs	r3, #177	; 0xb1
 80012aa:	009b      	lsls	r3, r3, #2
 80012ac:	50e6      	str	r6, [r4, r3]
				SysCntrl.SPI_page_idx = 0;
 80012ae:	3b0c      	subs	r3, #12
 80012b0:	50e6      	str	r6, [r4, r3]
				SysCntrl.bt_count = 128+4;
 80012b2:	3310      	adds	r3, #16
 80012b4:	2284      	movs	r2, #132	; 0x84
 80012b6:	50e2      	str	r2, [r4, r3]
			break;
 80012b8:	e7f4      	b.n	80012a4 <Xmodem_SPI+0x40>
				SysCntrl.XmodemMode = 0;
 80012ba:	2101      	movs	r1, #1
 80012bc:	4a48      	ldr	r2, [pc, #288]	; (80013e0 <Xmodem_SPI+0x17c>)
 80012be:	5ca3      	ldrb	r3, [r4, r2]
 80012c0:	438b      	bics	r3, r1
 80012c2:	54a3      	strb	r3, [r4, r2]
				break;
 80012c4:	e7ee      	b.n	80012a4 <Xmodem_SPI+0x40>
			if(!result && !SysCntrl.TimerCnt) {
 80012c6:	22b4      	movs	r2, #180	; 0xb4
 80012c8:	0092      	lsls	r2, r2, #2
 80012ca:	58a3      	ldr	r3, [r4, r2]
 80012cc:	4318      	orrs	r0, r3
 80012ce:	d1e9      	bne.n	80012a4 <Xmodem_SPI+0x40>
				SysCntrl.TryCounter--;
 80012d0:	21b5      	movs	r1, #181	; 0xb5
 80012d2:	0089      	lsls	r1, r1, #2
 80012d4:	5c63      	ldrb	r3, [r4, r1]
 80012d6:	3b01      	subs	r3, #1
 80012d8:	b2db      	uxtb	r3, r3
 80012da:	5463      	strb	r3, [r4, r1]
				if(!SysCntrl.TryCounter) {
 80012dc:	2b00      	cmp	r3, #0
 80012de:	d108      	bne.n	80012f2 <Xmodem_SPI+0x8e>
					SysCntrl.XmodemMode = 0;
 80012e0:	2101      	movs	r1, #1
 80012e2:	4a3f      	ldr	r2, [pc, #252]	; (80013e0 <Xmodem_SPI+0x17c>)
					UART_putstrln("Timeout...");
 80012e4:	483f      	ldr	r0, [pc, #252]	; (80013e4 <Xmodem_SPI+0x180>)
					SysCntrl.XmodemMode = 0;
 80012e6:	5ca3      	ldrb	r3, [r4, r2]
 80012e8:	438b      	bics	r3, r1
 80012ea:	54a3      	strb	r3, [r4, r2]
					UART_putstrln("Timeout...");
 80012ec:	f7ff fafa 	bl	80008e4 <UART_putstrln>
 80012f0:	e7d8      	b.n	80012a4 <Xmodem_SPI+0x40>
					SysCntrl.TimerCnt = XMODEM_TIME_1SEC;
 80012f2:	2364      	movs	r3, #100	; 0x64
					UART_putstr("C");
 80012f4:	483c      	ldr	r0, [pc, #240]	; (80013e8 <Xmodem_SPI+0x184>)
					SysCntrl.TimerCnt = XMODEM_TIME_1SEC;
 80012f6:	50a3      	str	r3, [r4, r2]
						UART_putstr("Canceled\n\r");
 80012f8:	f7ff fae8 	bl	80008cc <UART_putstr>
}
 80012fc:	e7d2      	b.n	80012a4 <Xmodem_SPI+0x40>
		result = ReadUartNonBlock(&SysCntrl.SPI_rxbuf[SysCntrl.X_idx],SysCntrl.bt_count);
 80012fe:	27b1      	movs	r7, #177	; 0xb1
 8001300:	228b      	movs	r2, #139	; 0x8b
 8001302:	26b2      	movs	r6, #178	; 0xb2
 8001304:	00bf      	lsls	r7, r7, #2
 8001306:	59e3      	ldr	r3, [r4, r7]
 8001308:	0092      	lsls	r2, r2, #2
 800130a:	00b6      	lsls	r6, r6, #2
 800130c:	1898      	adds	r0, r3, r2
 800130e:	59a1      	ldr	r1, [r4, r6]
 8001310:	1820      	adds	r0, r4, r0
 8001312:	f7ff fb0f 	bl	8000934 <ReadUartNonBlock>
		if(result>0) {
 8001316:	2800      	cmp	r0, #0
 8001318:	ddc4      	ble.n	80012a4 <Xmodem_SPI+0x40>
			SysCntrl.X_idx += result;
 800131a:	59e3      	ldr	r3, [r4, r7]
 800131c:	181b      	adds	r3, r3, r0
 800131e:	51e3      	str	r3, [r4, r7]
			SysCntrl.bt_count -= result;
 8001320:	59a3      	ldr	r3, [r4, r6]
 8001322:	1a1d      	subs	r5, r3, r0
 8001324:	51a5      	str	r5, [r4, r6]
			if(!SysCntrl.bt_count) {
 8001326:	d1bd      	bne.n	80012a4 <Xmodem_SPI+0x40>
				UART_SendByte(0x06); // ACK
 8001328:	2006      	movs	r0, #6
 800132a:	f7ff faf7 	bl	800091c <UART_SendByte>
				for(i=0;i<128;i++) {
 800132e:	23ae      	movs	r3, #174	; 0xae
 8001330:	009b      	lsls	r3, r3, #2
 8001332:	58e3      	ldr	r3, [r4, r3]
 8001334:	4a2d      	ldr	r2, [pc, #180]	; (80013ec <Xmodem_SPI+0x188>)
					SysCntrl.SPI_page[SysCntrl.SPI_page_idx++] = SysCntrl.SPI_rxbuf[i+2];
 8001336:	1ed9      	subs	r1, r3, #3
 8001338:	39ff      	subs	r1, #255	; 0xff
 800133a:	7810      	ldrb	r0, [r2, #0]
				for(i=0;i<128;i++) {
 800133c:	3501      	adds	r5, #1
					SysCntrl.SPI_page[SysCntrl.SPI_page_idx++] = SysCntrl.SPI_rxbuf[i+2];
 800133e:	5450      	strb	r0, [r2, r1]
				for(i=0;i<128;i++) {
 8001340:	3201      	adds	r2, #1
 8001342:	2d80      	cmp	r5, #128	; 0x80
 8001344:	d1f9      	bne.n	800133a <Xmodem_SPI+0xd6>
 8001346:	22ae      	movs	r2, #174	; 0xae
 8001348:	3380      	adds	r3, #128	; 0x80
 800134a:	0092      	lsls	r2, r2, #2
 800134c:	50a3      	str	r3, [r4, r2]
				if(SysCntrl.SPI_page_idx >= 255)
 800134e:	2bfe      	cmp	r3, #254	; 0xfe
 8001350:	d901      	bls.n	8001356 <Xmodem_SPI+0xf2>
					Flash_PageWrite();
 8001352:	f7ff fefb 	bl	800114c <Flash_PageWrite>
				SysCntrl.XmodemState = XMODEM_STATE_S1;
 8001356:	23b3      	movs	r3, #179	; 0xb3
 8001358:	2202      	movs	r2, #2
 800135a:	009b      	lsls	r3, r3, #2
 800135c:	54e2      	strb	r2, [r4, r3]
 800135e:	e7a1      	b.n	80012a4 <Xmodem_SPI+0x40>
		result = ReadUartNonBlock(&bt,1);
 8001360:	466b      	mov	r3, sp
 8001362:	1dde      	adds	r6, r3, #7
 8001364:	2101      	movs	r1, #1
 8001366:	0030      	movs	r0, r6
 8001368:	f7ff fae4 	bl	8000934 <ReadUartNonBlock>
		if(result>0){
 800136c:	2800      	cmp	r0, #0
 800136e:	dd99      	ble.n	80012a4 <Xmodem_SPI+0x40>
			if((bt == 0x01)) {
 8001370:	7833      	ldrb	r3, [r6, #0]
 8001372:	2b01      	cmp	r3, #1
 8001374:	d106      	bne.n	8001384 <Xmodem_SPI+0x120>
					SysCntrl.XmodemState = XMODEM_STATE_S0;
 8001376:	5563      	strb	r3, [r4, r5]
					SysCntrl.X_idx = 0;
 8001378:	23b1      	movs	r3, #177	; 0xb1
 800137a:	2200      	movs	r2, #0
 800137c:	009b      	lsls	r3, r3, #2
 800137e:	50e2      	str	r2, [r4, r3]
					SysCntrl.bt_count = 128+4;
 8001380:	3304      	adds	r3, #4
 8001382:	e797      	b.n	80012b4 <Xmodem_SPI+0x50>
					} else if(bt == 0x04) {
 8001384:	2b04      	cmp	r3, #4
 8001386:	d111      	bne.n	80013ac <Xmodem_SPI+0x148>
						UART_SendByte(0x06); // ACK
 8001388:	2006      	movs	r0, #6
 800138a:	f7ff fac7 	bl	800091c <UART_SendByte>
						if(SysCntrl.SPI_page_idx == 128) {
 800138e:	23ae      	movs	r3, #174	; 0xae
 8001390:	009b      	lsls	r3, r3, #2
 8001392:	58e3      	ldr	r3, [r4, r3]
 8001394:	2b80      	cmp	r3, #128	; 0x80
 8001396:	d000      	beq.n	800139a <Xmodem_SPI+0x136>
 8001398:	e784      	b.n	80012a4 <Xmodem_SPI+0x40>
							Flash_PageWrite();
 800139a:	f7ff fed7 	bl	800114c <Flash_PageWrite>
						SysCntrl.XmodemState = XMODEM_STATE_INIT;
 800139e:	5b63      	ldrh	r3, [r4, r5]
 80013a0:	0a5b      	lsrs	r3, r3, #9
 80013a2:	025b      	lsls	r3, r3, #9
 80013a4:	5363      	strh	r3, [r4, r5]
						DisableSPI();
 80013a6:	f7ff fa19 	bl	80007dc <DisableSPI>
 80013aa:	e77b      	b.n	80012a4 <Xmodem_SPI+0x40>
					} else if(bt == 0x17) {
 80013ac:	2b17      	cmp	r3, #23
 80013ae:	d103      	bne.n	80013b8 <Xmodem_SPI+0x154>
						UART_SendByte(0x06); // ACK
 80013b0:	2006      	movs	r0, #6
 80013b2:	f7ff fab3 	bl	800091c <UART_SendByte>
 80013b6:	e7f2      	b.n	800139e <Xmodem_SPI+0x13a>
					}  else if(bt == 0x18) {
 80013b8:	2b18      	cmp	r3, #24
 80013ba:	d000      	beq.n	80013be <Xmodem_SPI+0x15a>
 80013bc:	e772      	b.n	80012a4 <Xmodem_SPI+0x40>
						UART_SendByte(0x06); // ACK
 80013be:	2006      	movs	r0, #6
 80013c0:	f7ff faac 	bl	800091c <UART_SendByte>
						UART_SendByte(0x06); // ACK
 80013c4:	2006      	movs	r0, #6
 80013c6:	f7ff faa9 	bl	800091c <UART_SendByte>
						SysCntrl.XmodemState = XMODEM_STATE_INIT;
 80013ca:	5b63      	ldrh	r3, [r4, r5]
 80013cc:	0a5b      	lsrs	r3, r3, #9
 80013ce:	025b      	lsls	r3, r3, #9
 80013d0:	5363      	strh	r3, [r4, r5]
						DisableSPI();
 80013d2:	f7ff fa03 	bl	80007dc <DisableSPI>
						UART_putstr("Canceled\n\r");
 80013d6:	4806      	ldr	r0, [pc, #24]	; (80013f0 <Xmodem_SPI+0x18c>)
 80013d8:	e78e      	b.n	80012f8 <Xmodem_SPI+0x94>
 80013da:	46c0      	nop			; (mov r8, r8)
 80013dc:	2000049c 	.word	0x2000049c
 80013e0:	000002cd 	.word	0x000002cd
 80013e4:	08006f34 	.word	0x08006f34
 80013e8:	08006f3f 	.word	0x08006f3f
 80013ec:	200006ca 	.word	0x200006ca
 80013f0:	08006f41 	.word	0x08006f41

080013f4 <Xmodem_Init>:

void Xmodem_Init(){
 80013f4:	b510      	push	{r4, lr}
	EnableSPI();
 80013f6:	f7ff fb79 	bl	8000aec <EnableSPI>
	SysCntrl.XmodemMode = 1;
	SysCntrl.XmodemState = XMODEM_STATE_INIT;
 80013fa:	20b3      	movs	r0, #179	; 0xb3
 80013fc:	2180      	movs	r1, #128	; 0x80
 80013fe:	4a09      	ldr	r2, [pc, #36]	; (8001424 <Xmodem_Init+0x30>)
 8001400:	0080      	lsls	r0, r0, #2
 8001402:	5a13      	ldrh	r3, [r2, r0]
 8001404:	0049      	lsls	r1, r1, #1
 8001406:	0a5b      	lsrs	r3, r3, #9
 8001408:	025b      	lsls	r3, r3, #9
 800140a:	430b      	orrs	r3, r1
 800140c:	5213      	strh	r3, [r2, r0]
	SysCntrl.TryCounter = 100;
 800140e:	2364      	movs	r3, #100	; 0x64
 8001410:	31d5      	adds	r1, #213	; 0xd5
 8001412:	31ff      	adds	r1, #255	; 0xff
 8001414:	5453      	strb	r3, [r2, r1]
	SysCntrl.TimerCnt = XMODEM_TIME_1SEC;
	UART_putstr("C");
 8001416:	4804      	ldr	r0, [pc, #16]	; (8001428 <Xmodem_Init+0x34>)
	SysCntrl.TimerCnt = XMODEM_TIME_1SEC;
 8001418:	3904      	subs	r1, #4
 800141a:	5053      	str	r3, [r2, r1]
	UART_putstr("C");
 800141c:	f7ff fa56 	bl	80008cc <UART_putstr>
}
 8001420:	bd10      	pop	{r4, pc}
 8001422:	46c0      	nop			; (mov r8, r8)
 8001424:	2000049c 	.word	0x2000049c
 8001428:	08006f3f 	.word	0x08006f3f

0800142c <FlashDump>:





void FlashDump(uint8_t cs){
 800142c:	b5f8      	push	{r3, r4, r5, r6, r7, lr}
 800142e:	0006      	movs	r6, r0
	int i;
	EnableSPI();
 8001430:	f7ff fb5c 	bl	8000aec <EnableSPI>
	//Switch_BootSpi2BMC();
	Clr_CS(cs);
 8001434:	0030      	movs	r0, r6
 8001436:	f7ff fa21 	bl	800087c <Clr_CS>
	SysCntrl.spi_buf_tx[0] = 0x0b;
 800143a:	220b      	movs	r2, #11
 800143c:	4b1d      	ldr	r3, [pc, #116]	; (80014b4 <FlashDump+0x88>)
	SysCntrl.spi_buf_tx[1] = 0x0;
	SysCntrl.spi_buf_tx[2] = 0x0;
	SysCntrl.spi_buf_tx[3] = 0x0;
	SysCntrl.spi_buf_tx[4] = 0x0;

	HAL_SPI_Transmit(&hspi1, SysCntrl.spi_buf_tx,5,HAL_MAX_DELAY);
 800143e:	4c1e      	ldr	r4, [pc, #120]	; (80014b8 <FlashDump+0x8c>)
	SysCntrl.spi_buf_tx[0] = 0x0b;
 8001440:	71da      	strb	r2, [r3, #7]
	SysCntrl.spi_buf_tx[1] = 0x0;
 8001442:	2200      	movs	r2, #0
 8001444:	609a      	str	r2, [r3, #8]
	HAL_SPI_Transmit(&hspi1, SysCntrl.spi_buf_tx,5,HAL_MAX_DELAY);
 8001446:	2301      	movs	r3, #1
 8001448:	0020      	movs	r0, r4
 800144a:	491c      	ldr	r1, [pc, #112]	; (80014bc <FlashDump+0x90>)
 800144c:	425b      	negs	r3, r3
 800144e:	3205      	adds	r2, #5
 8001450:	f002 fdab 	bl	8003faa <HAL_SPI_Transmit>

	if(HAL_SPI_Receive(&hspi1,SysCntrl.SPI_page, 256, HAL_MAX_DELAY) == HAL_OK){
 8001454:	2301      	movs	r3, #1
 8001456:	2280      	movs	r2, #128	; 0x80
 8001458:	4d19      	ldr	r5, [pc, #100]	; (80014c0 <FlashDump+0x94>)
 800145a:	0020      	movs	r0, r4
 800145c:	0029      	movs	r1, r5
 800145e:	425b      	negs	r3, r3
 8001460:	0052      	lsls	r2, r2, #1
 8001462:	f002 ff65 	bl	8004330 <HAL_SPI_Receive>
 8001466:	1e04      	subs	r4, r0, #0
 8001468:	d11e      	bne.n	80014a8 <FlashDump+0x7c>
		SPI_ReadID(0,NULL);
 800146a:	0001      	movs	r1, r0
 800146c:	f7ff fecc 	bl	8001208 <SPI_ReadID>
		UART_putstrln(SysCntrl.spi_buf_rx);
 8001470:	4814      	ldr	r0, [pc, #80]	; (80014c4 <FlashDump+0x98>)
 8001472:	f7ff fa37 	bl	80008e4 <UART_putstrln>
		for (i=0;i<256;i++){
			UART_SendByte(ByteToHEX(SysCntrl.SPI_page[i]>>4));
			UART_SendByte(ByteToHEX(SysCntrl.SPI_page[i]&0x0f));
 8001476:	270f      	movs	r7, #15
			UART_SendByte(ByteToHEX(SysCntrl.SPI_page[i]>>4));
 8001478:	7828      	ldrb	r0, [r5, #0]
		for (i=0;i<256;i++){
 800147a:	3401      	adds	r4, #1
			UART_SendByte(ByteToHEX(SysCntrl.SPI_page[i]>>4));
 800147c:	0900      	lsrs	r0, r0, #4
 800147e:	f7ff fad9 	bl	8000a34 <ByteToHEX>
 8001482:	f7ff fa4b 	bl	800091c <UART_SendByte>
			UART_SendByte(ByteToHEX(SysCntrl.SPI_page[i]&0x0f));
 8001486:	7828      	ldrb	r0, [r5, #0]
 8001488:	3501      	adds	r5, #1
 800148a:	4038      	ands	r0, r7
 800148c:	f7ff fad2 	bl	8000a34 <ByteToHEX>
 8001490:	f7ff fa44 	bl	800091c <UART_SendByte>
			UART_putstr(" ");
 8001494:	480c      	ldr	r0, [pc, #48]	; (80014c8 <FlashDump+0x9c>)
 8001496:	f7ff fa19 	bl	80008cc <UART_putstr>
		for (i=0;i<256;i++){
 800149a:	2380      	movs	r3, #128	; 0x80
 800149c:	005b      	lsls	r3, r3, #1
 800149e:	429c      	cmp	r4, r3
 80014a0:	d1ea      	bne.n	8001478 <FlashDump+0x4c>
		}
		UART_putstr("\n\r");
 80014a2:	480a      	ldr	r0, [pc, #40]	; (80014cc <FlashDump+0xa0>)
 80014a4:	f7ff fa12 	bl	80008cc <UART_putstr>
	}
	Set_CS(cs);
 80014a8:	0030      	movs	r0, r6
 80014aa:	f7ff f9d7 	bl	800085c <Set_CS>
	DisableSPI();
 80014ae:	f7ff f995 	bl	80007dc <DisableSPI>
}
 80014b2:	bdf8      	pop	{r3, r4, r5, r6, r7, pc}
 80014b4:	2000049c 	.word	0x2000049c
 80014b8:	200007e4 	.word	0x200007e4
 80014bc:	200004a3 	.word	0x200004a3
 80014c0:	200005c8 	.word	0x200005c8
 80014c4:	200004b3 	.word	0x200004b3
 80014c8:	0800733a 	.word	0x0800733a
 80014cc:	08006f49 	.word	0x08006f49

080014d0 <memoryMenu>:


void memoryMenu(){
 80014d0:	b570      	push	{r4, r5, r6, lr}
	char buf[BUF_LEN];
	sprintf(buf,"CPU main flash #%d",SysCntrl.MainFlash+1);
	UART_putstrln(buf);
	clearBuf(buf);
	sprintf(buf,"CPU boot flash #%d",SysCntrl.BootFlash+1);
 80014d2:	26b6      	movs	r6, #182	; 0xb6
	sprintf(buf,"CPU main flash #%d",SysCntrl.MainFlash+1);
 80014d4:	4c2a      	ldr	r4, [pc, #168]	; (8001580 <memoryMenu+0xb0>)
 80014d6:	4d2b      	ldr	r5, [pc, #172]	; (8001584 <memoryMenu+0xb4>)
void memoryMenu(){
 80014d8:	b08a      	sub	sp, #40	; 0x28
	sprintf(buf,"CPU main flash #%d",SysCntrl.MainFlash+1);
 80014da:	5d62      	ldrb	r2, [r4, r5]
 80014dc:	492a      	ldr	r1, [pc, #168]	; (8001588 <memoryMenu+0xb8>)
 80014de:	07d2      	lsls	r2, r2, #31
 80014e0:	0fd2      	lsrs	r2, r2, #31
 80014e2:	3201      	adds	r2, #1
 80014e4:	4668      	mov	r0, sp
 80014e6:	f004 ff25 	bl	8006334 <siprintf>
	UART_putstrln(buf);
 80014ea:	4668      	mov	r0, sp
 80014ec:	f7ff f9fa 	bl	80008e4 <UART_putstrln>
	sprintf(buf,"CPU boot flash #%d",SysCntrl.BootFlash+1);
 80014f0:	00b6      	lsls	r6, r6, #2
	clearBuf(buf);
 80014f2:	4668      	mov	r0, sp
 80014f4:	f7fe fed0 	bl	8000298 <clearBuf>
	sprintf(buf,"CPU boot flash #%d",SysCntrl.BootFlash+1);
 80014f8:	5da2      	ldrb	r2, [r4, r6]
 80014fa:	4924      	ldr	r1, [pc, #144]	; (800158c <memoryMenu+0xbc>)
 80014fc:	07d2      	lsls	r2, r2, #31
 80014fe:	0fd2      	lsrs	r2, r2, #31
 8001500:	3201      	adds	r2, #1
 8001502:	4668      	mov	r0, sp
 8001504:	f004 ff16 	bl	8006334 <siprintf>
	UART_putstrln(buf);
 8001508:	4668      	mov	r0, sp
 800150a:	f7ff f9eb 	bl	80008e4 <UART_putstrln>
	clearBuf(buf);
 800150e:	4668      	mov	r0, sp
 8001510:	f7fe fec2 	bl	8000298 <clearBuf>
	sprintf(buf,"CPU boot attempt: %d",SysCntrl.BootAttempt);
 8001514:	5d62      	ldrb	r2, [r4, r5]
 8001516:	491e      	ldr	r1, [pc, #120]	; (8001590 <memoryMenu+0xc0>)
 8001518:	06d2      	lsls	r2, r2, #27
 800151a:	0f92      	lsrs	r2, r2, #30
 800151c:	4668      	mov	r0, sp
 800151e:	f004 ff09 	bl	8006334 <siprintf>
	UART_putstrln(buf);
 8001522:	4668      	mov	r0, sp
 8001524:	f7ff f9de 	bl	80008e4 <UART_putstrln>
	clearBuf(buf);
 8001528:	4668      	mov	r0, sp
 800152a:	f7fe feb5 	bl	8000298 <clearBuf>
	sprintf(buf,"Watchdog: %s",SysCntrl.Watchdog?"Enabled":"Disabled");
 800152e:	5da3      	ldrb	r3, [r4, r6]
 8001530:	4a18      	ldr	r2, [pc, #96]	; (8001594 <memoryMenu+0xc4>)
 8001532:	079b      	lsls	r3, r3, #30
 8001534:	d400      	bmi.n	8001538 <memoryMenu+0x68>
 8001536:	4a18      	ldr	r2, [pc, #96]	; (8001598 <memoryMenu+0xc8>)
 8001538:	4918      	ldr	r1, [pc, #96]	; (800159c <memoryMenu+0xcc>)
 800153a:	4668      	mov	r0, sp
 800153c:	f004 fefa 	bl	8006334 <siprintf>
	UART_putstrln(buf);
 8001540:	4668      	mov	r0, sp
 8001542:	f7ff f9cf 	bl	80008e4 <UART_putstrln>
	sprintf(buf,"Auto boot: %s \r\nLaunch is %s",SysCntrl.PowerState?"On":"Off by key",(SysCntrl.pgin)?"allowed":"prohibited");
 8001546:	5d63      	ldrb	r3, [r4, r5]
 8001548:	4a15      	ldr	r2, [pc, #84]	; (80015a0 <memoryMenu+0xd0>)
 800154a:	069b      	lsls	r3, r3, #26
 800154c:	d400      	bmi.n	8001550 <memoryMenu+0x80>
 800154e:	4a15      	ldr	r2, [pc, #84]	; (80015a4 <memoryMenu+0xd4>)
 8001550:	4b15      	ldr	r3, [pc, #84]	; (80015a8 <memoryMenu+0xd8>)
 8001552:	5ce1      	ldrb	r1, [r4, r3]
 8001554:	4b15      	ldr	r3, [pc, #84]	; (80015ac <memoryMenu+0xdc>)
 8001556:	07c9      	lsls	r1, r1, #31
 8001558:	d400      	bmi.n	800155c <memoryMenu+0x8c>
 800155a:	4b15      	ldr	r3, [pc, #84]	; (80015b0 <memoryMenu+0xe0>)
 800155c:	4915      	ldr	r1, [pc, #84]	; (80015b4 <memoryMenu+0xe4>)
 800155e:	4668      	mov	r0, sp
 8001560:	f004 fee8 	bl	8006334 <siprintf>
	UART_putstrln(buf);
 8001564:	4668      	mov	r0, sp
 8001566:	f7ff f9bd 	bl	80008e4 <UART_putstrln>
	sprintf(buf,"DEBUG: CPU Power stage: %d",SysCntrl.power_stage);
 800156a:	7822      	ldrb	r2, [r4, #0]
 800156c:	4912      	ldr	r1, [pc, #72]	; (80015b8 <memoryMenu+0xe8>)
 800156e:	4668      	mov	r0, sp
 8001570:	f004 fee0 	bl	8006334 <siprintf>
	UART_putstrln(buf);
 8001574:	4668      	mov	r0, sp
 8001576:	f7ff f9b5 	bl	80008e4 <UART_putstrln>
}
 800157a:	b00a      	add	sp, #40	; 0x28
 800157c:	bd70      	pop	{r4, r5, r6, pc}
 800157e:	46c0      	nop			; (mov r8, r8)
 8001580:	2000049c 	.word	0x2000049c
 8001584:	000002d9 	.word	0x000002d9
 8001588:	08006f7e 	.word	0x08006f7e
 800158c:	08006f91 	.word	0x08006f91
 8001590:	08006fa4 	.word	0x08006fa4
 8001594:	08006f4c 	.word	0x08006f4c
 8001598:	08006f54 	.word	0x08006f54
 800159c:	08006fb9 	.word	0x08006fb9
 80015a0:	08006f5d 	.word	0x08006f5d
 80015a4:	08006f60 	.word	0x08006f60
 80015a8:	000002db 	.word	0x000002db
 80015ac:	08006f6b 	.word	0x08006f6b
 80015b0:	08006f73 	.word	0x08006f73
 80015b4:	08006fc6 	.word	0x08006fc6
 80015b8:	08006fe3 	.word	0x08006fe3

080015bc <writeConfig>:

void writeConfig(){
 80015bc:	b530      	push	{r4, r5, lr}
	FLASH_EraseInitTypeDef EraseInitStruct;
	EraseInitStruct.TypeErase  = TYPEERASE_PAGES;
	EraseInitStruct.PageAddress = CONFIG_ADDR_IN_FLASH-4;
	EraseInitStruct.NbPages = 1;
 80015be:	2401      	movs	r4, #1
	EraseInitStruct.TypeErase  = TYPEERASE_PAGES;
 80015c0:	2500      	movs	r5, #0
	EraseInitStruct.PageAddress = CONFIG_ADDR_IN_FLASH-4;
 80015c2:	4b0f      	ldr	r3, [pc, #60]	; (8001600 <writeConfig+0x44>)
void writeConfig(){
 80015c4:	b085      	sub	sp, #20
	EraseInitStruct.PageAddress = CONFIG_ADDR_IN_FLASH-4;
 80015c6:	9302      	str	r3, [sp, #8]
	EraseInitStruct.TypeErase  = TYPEERASE_PAGES;
 80015c8:	9501      	str	r5, [sp, #4]
	EraseInitStruct.NbPages = 1;
 80015ca:	9403      	str	r4, [sp, #12]

	// TODO: Error handler
	uint32_t error;
	HAL_FLASH_Unlock();
 80015cc:	f000 fdc6 	bl	800215c <HAL_FLASH_Unlock>
	HAL_FLASHEx_Erase(&EraseInitStruct,&error);
 80015d0:	4669      	mov	r1, sp
 80015d2:	a801      	add	r0, sp, #4
 80015d4:	f000 fe72 	bl	80022bc <HAL_FLASHEx_Erase>
	uint16_t data = (SysCntrl.SavedConfigH<<8)|(SysCntrl.SavedConfigL);
 80015d8:	490a      	ldr	r1, [pc, #40]	; (8001604 <writeConfig+0x48>)
 80015da:	4b0b      	ldr	r3, [pc, #44]	; (8001608 <writeConfig+0x4c>)
 80015dc:	4a0b      	ldr	r2, [pc, #44]	; (800160c <writeConfig+0x50>)
 80015de:	5ccb      	ldrb	r3, [r1, r3]
 80015e0:	5c8a      	ldrb	r2, [r1, r2]
 80015e2:	021b      	lsls	r3, r3, #8
	HAL_FLASH_Program(FLASH_TYPEPROGRAM_HALFWORD,CONFIG_ADDR_IN_FLASH, data);
 80015e4:	431a      	orrs	r2, r3
 80015e6:	490a      	ldr	r1, [pc, #40]	; (8001610 <writeConfig+0x54>)
 80015e8:	002b      	movs	r3, r5
 80015ea:	0020      	movs	r0, r4
 80015ec:	f000 fe00 	bl	80021f0 <HAL_FLASH_Program>
	HAL_Delay(500);
 80015f0:	20fa      	movs	r0, #250	; 0xfa
 80015f2:	40a0      	lsls	r0, r4
 80015f4:	f000 fbec 	bl	8001dd0 <HAL_Delay>
	HAL_FLASH_Lock();
 80015f8:	f000 fdc4 	bl	8002184 <HAL_FLASH_Lock>
}
 80015fc:	b005      	add	sp, #20
 80015fe:	bd30      	pop	{r4, r5, pc}
 8001600:	08007c00 	.word	0x08007c00
 8001604:	2000049c 	.word	0x2000049c
 8001608:	000002d9 	.word	0x000002d9
 800160c:	000002da 	.word	0x000002da
 8001610:	08007c04 	.word	0x08007c04

08001614 <readConfig>:

void readConfig(){
	uint16_t *data = (uint16_t*) CONFIG_ADDR_IN_FLASH;

	SysCntrl.SavedConfigL = (*data)&(0b0000000011111111);
 8001614:	4b04      	ldr	r3, [pc, #16]	; (8001628 <readConfig+0x14>)
 8001616:	4a05      	ldr	r2, [pc, #20]	; (800162c <readConfig+0x18>)
 8001618:	881b      	ldrh	r3, [r3, #0]
 800161a:	4905      	ldr	r1, [pc, #20]	; (8001630 <readConfig+0x1c>)
 800161c:	5453      	strb	r3, [r2, r1]
	SysCntrl.SavedConfigH = (*data)>>8;
 800161e:	4905      	ldr	r1, [pc, #20]	; (8001634 <readConfig+0x20>)
 8001620:	0a1b      	lsrs	r3, r3, #8
 8001622:	5453      	strb	r3, [r2, r1]

}
 8001624:	4770      	bx	lr
 8001626:	46c0      	nop			; (mov r8, r8)
 8001628:	08007c04 	.word	0x08007c04
 800162c:	2000049c 	.word	0x2000049c
 8001630:	000002da 	.word	0x000002da
 8001634:	000002d9 	.word	0x000002d9

08001638 <debouncer>:
// RSTBTN reset btm from motherboard    (x16)
// PWRBTN power button from motherboard (x15)
// ALTBOOT watchdog                     (x14)
// STMBOOTSEL ???                       (x19)

uint8_t debouncer(GPIO_TypeDef * GPIOx, uint16_t GPIO_Pin){
 8001638:	b5f7      	push	{r0, r1, r2, r4, r5, r6, r7, lr}
 800163a:	0006      	movs	r6, r0
 800163c:	000f      	movs	r7, r1
	uint8_t pinState;
	uint8_t prevState;
	uint8_t i,swtch = 1;
	char buf[25] = {0};
	pinState = HAL_GPIO_ReadPin(GPIOx,GPIO_Pin);
 800163e:	f000 ff9f 	bl	8002580 <HAL_GPIO_ReadPin>
 8001642:	2503      	movs	r5, #3
 8001644:	0004      	movs	r4, r0
	for(i=0;i<3 && swtch;i++){
		prevState = pinState;
		pinState = HAL_GPIO_ReadPin(GPIOx,GPIO_Pin);
 8001646:	0039      	movs	r1, r7
 8001648:	0030      	movs	r0, r6
 800164a:	9401      	str	r4, [sp, #4]
 800164c:	f000 ff98 	bl	8002580 <HAL_GPIO_ReadPin>
		if(prevState!=pinState)
 8001650:	9a01      	ldr	r2, [sp, #4]
		pinState = HAL_GPIO_ReadPin(GPIOx,GPIO_Pin);
 8001652:	0004      	movs	r4, r0
			swtch = 0;
 8001654:	2300      	movs	r3, #0
		if(prevState!=pinState)
 8001656:	4282      	cmp	r2, r0
 8001658:	d103      	bne.n	8001662 <debouncer+0x2a>
		else
			HAL_Delay(2);
 800165a:	2002      	movs	r0, #2
 800165c:	f000 fbb8 	bl	8001dd0 <HAL_Delay>
 8001660:	2301      	movs	r3, #1
	for(i=0;i<3 && swtch;i++){
 8001662:	3d01      	subs	r5, #1
 8001664:	b2ed      	uxtb	r5, r5
 8001666:	2d00      	cmp	r5, #0
 8001668:	d002      	beq.n	8001670 <debouncer+0x38>
 800166a:	2b00      	cmp	r3, #0
 800166c:	d1eb      	bne.n	8001646 <debouncer+0xe>
	}

	if(swtch)
		return 0b10000000|((pinState)?1:0);

}
 800166e:	bdfe      	pop	{r1, r2, r3, r4, r5, r6, r7, pc}
	if(swtch)
 8001670:	2b00      	cmp	r3, #0
 8001672:	d0fc      	beq.n	800166e <debouncer+0x36>
		return 0b10000000|((pinState)?1:0);
 8001674:	1e60      	subs	r0, r4, #1
 8001676:	4184      	sbcs	r4, r0
 8001678:	0020      	movs	r0, r4
 800167a:	3080      	adds	r0, #128	; 0x80
 800167c:	e7f7      	b.n	800166e <debouncer+0x36>
	...

08001680 <checkPowerLevels>:

void checkPowerLevels(uint8_t output){
	char buf[10] = {0};
 8001680:	2100      	movs	r1, #0
void checkPowerLevels(uint8_t output){
 8001682:	b5f0      	push	{r4, r5, r6, r7, lr}
 8001684:	b085      	sub	sp, #20
	char buf[10] = {0};
 8001686:	2206      	movs	r2, #6
void checkPowerLevels(uint8_t output){
 8001688:	0006      	movs	r6, r0
	char buf[10] = {0};
 800168a:	a802      	add	r0, sp, #8
 800168c:	9101      	str	r1, [sp, #4]
 800168e:	f004 fe48 	bl	8006322 <memset>
	uint8_t pinState;


	pinState = HAL_GPIO_ReadPin(PGIN_PIN);
 8001692:	2180      	movs	r1, #128	; 0x80
 8001694:	2090      	movs	r0, #144	; 0x90
 8001696:	0209      	lsls	r1, r1, #8
 8001698:	05c0      	lsls	r0, r0, #23
 800169a:	f000 ff71 	bl	8002580 <HAL_GPIO_ReadPin>

	SysCntrl.pgin = (pinState)?0:1;
 800169e:	2101      	movs	r1, #1
 80016a0:	4243      	negs	r3, r0
 80016a2:	4158      	adcs	r0, r3
 80016a4:	4d40      	ldr	r5, [pc, #256]	; (80017a8 <checkPowerLevels+0x128>)
 80016a6:	4c41      	ldr	r4, [pc, #260]	; (80017ac <checkPowerLevels+0x12c>)
 80016a8:	b2c2      	uxtb	r2, r0
 80016aa:	5d2b      	ldrb	r3, [r5, r4]
 80016ac:	4008      	ands	r0, r1
 80016ae:	438b      	bics	r3, r1
 80016b0:	4318      	orrs	r0, r3
 80016b2:	5528      	strb	r0, [r5, r4]
	if(output){
 80016b4:	2e00      	cmp	r6, #0
 80016b6:	d006      	beq.n	80016c6 <checkPowerLevels+0x46>
		sprintf(buf,"PGIN: %d\r\n",SysCntrl.pgin);
 80016b8:	493d      	ldr	r1, [pc, #244]	; (80017b0 <checkPowerLevels+0x130>)
 80016ba:	a801      	add	r0, sp, #4
 80016bc:	f004 fe3a 	bl	8006334 <siprintf>
		UART_putstr(buf);
 80016c0:	a801      	add	r0, sp, #4
 80016c2:	f7ff f903 	bl	80008cc <UART_putstr>
	}

	pinState = HAL_GPIO_ReadPin(PWRBTN_PIN);
 80016c6:	2102      	movs	r1, #2
 80016c8:	483a      	ldr	r0, [pc, #232]	; (80017b4 <checkPowerLevels+0x134>)
 80016ca:	f000 ff59 	bl	8002580 <HAL_GPIO_ReadPin>
	if((pinState&0b00000001)!=SysCntrl.pwrbtn){
 80016ce:	2701      	movs	r7, #1
 80016d0:	5d2b      	ldrb	r3, [r5, r4]
 80016d2:	4038      	ands	r0, r7
 80016d4:	079b      	lsls	r3, r3, #30
 80016d6:	0fdb      	lsrs	r3, r3, #31
 80016d8:	4283      	cmp	r3, r0
 80016da:	d00c      	beq.n	80016f6 <checkPowerLevels+0x76>
		pinState = debouncer(PWRBTN_PIN);
 80016dc:	2102      	movs	r1, #2
 80016de:	4835      	ldr	r0, [pc, #212]	; (80017b4 <checkPowerLevels+0x134>)
 80016e0:	f7ff ffaa 	bl	8001638 <debouncer>
		if(pinState&0b10000000)
 80016e4:	0603      	lsls	r3, r0, #24
 80016e6:	d506      	bpl.n	80016f6 <checkPowerLevels+0x76>
			SysCntrl.pwrbtn = pinState&0b00000001;
 80016e8:	4038      	ands	r0, r7
 80016ea:	2302      	movs	r3, #2
 80016ec:	40b8      	lsls	r0, r7
 80016ee:	5d2f      	ldrb	r7, [r5, r4]
 80016f0:	439f      	bics	r7, r3
 80016f2:	4338      	orrs	r0, r7
 80016f4:	5528      	strb	r0, [r5, r4]
	}

	if(output){
 80016f6:	2e00      	cmp	r6, #0
 80016f8:	d009      	beq.n	800170e <checkPowerLevels+0x8e>
		sprintf(buf,"PWRBTN: %d\r\n",SysCntrl.pwrbtn);
 80016fa:	5d2a      	ldrb	r2, [r5, r4]
 80016fc:	492e      	ldr	r1, [pc, #184]	; (80017b8 <checkPowerLevels+0x138>)
 80016fe:	0792      	lsls	r2, r2, #30
 8001700:	0fd2      	lsrs	r2, r2, #31
 8001702:	a801      	add	r0, sp, #4
 8001704:	f004 fe16 	bl	8006334 <siprintf>
		UART_putstr(buf);
 8001708:	a801      	add	r0, sp, #4
 800170a:	f7ff f8df 	bl	80008cc <UART_putstr>
	}

	pinState = HAL_GPIO_ReadPin(RSTBTN_PIN);
 800170e:	2110      	movs	r1, #16
 8001710:	482a      	ldr	r0, [pc, #168]	; (80017bc <checkPowerLevels+0x13c>)
 8001712:	f000 ff35 	bl	8002580 <HAL_GPIO_ReadPin>
	if((pinState&0b00000001)!=SysCntrl.rstbtn){
 8001716:	2701      	movs	r7, #1
 8001718:	5d2b      	ldrb	r3, [r5, r4]
 800171a:	4038      	ands	r0, r7
 800171c:	075b      	lsls	r3, r3, #29
 800171e:	0fdb      	lsrs	r3, r3, #31
 8001720:	4283      	cmp	r3, r0
 8001722:	d00c      	beq.n	800173e <checkPowerLevels+0xbe>
		pinState = debouncer(RSTBTN_PIN);
 8001724:	2110      	movs	r1, #16
 8001726:	4825      	ldr	r0, [pc, #148]	; (80017bc <checkPowerLevels+0x13c>)
 8001728:	f7ff ff86 	bl	8001638 <debouncer>
		if(pinState&0b10000000){
 800172c:	0603      	lsls	r3, r0, #24
 800172e:	d506      	bpl.n	800173e <checkPowerLevels+0xbe>
			SysCntrl.rstbtn = pinState&0b00000001;
 8001730:	2304      	movs	r3, #4
 8001732:	4038      	ands	r0, r7
 8001734:	5d2f      	ldrb	r7, [r5, r4]
 8001736:	0080      	lsls	r0, r0, #2
 8001738:	439f      	bics	r7, r3
 800173a:	4338      	orrs	r0, r7
 800173c:	5528      	strb	r0, [r5, r4]
		}
	}

	if(output){
 800173e:	2e00      	cmp	r6, #0
 8001740:	d009      	beq.n	8001756 <checkPowerLevels+0xd6>
		sprintf(buf,"RSTBTN: %d\r\n",SysCntrl.rstbtn);
 8001742:	5d2a      	ldrb	r2, [r5, r4]
 8001744:	491e      	ldr	r1, [pc, #120]	; (80017c0 <checkPowerLevels+0x140>)
 8001746:	0752      	lsls	r2, r2, #29
 8001748:	0fd2      	lsrs	r2, r2, #31
 800174a:	a801      	add	r0, sp, #4
 800174c:	f004 fdf2 	bl	8006334 <siprintf>
		UART_putstr(buf);
 8001750:	a801      	add	r0, sp, #4
 8001752:	f7ff f8bb 	bl	80008cc <UART_putstr>
	}

	pinState = HAL_GPIO_ReadPin(STMBOOTSEL_PIN);
 8001756:	2180      	movs	r1, #128	; 0x80
 8001758:	4818      	ldr	r0, [pc, #96]	; (80017bc <checkPowerLevels+0x13c>)
 800175a:	0049      	lsls	r1, r1, #1
 800175c:	f000 ff10 	bl	8002580 <HAL_GPIO_ReadPin>
	if((pinState&0b00000001)!=SysCntrl.stmbootsel){
 8001760:	2701      	movs	r7, #1
 8001762:	5d2b      	ldrb	r3, [r5, r4]
 8001764:	4038      	ands	r0, r7
 8001766:	071b      	lsls	r3, r3, #28
 8001768:	0fdb      	lsrs	r3, r3, #31
 800176a:	4283      	cmp	r3, r0
 800176c:	d00d      	beq.n	800178a <checkPowerLevels+0x10a>
		pinState = debouncer(STMBOOTSEL_PIN);
 800176e:	2180      	movs	r1, #128	; 0x80
 8001770:	4812      	ldr	r0, [pc, #72]	; (80017bc <checkPowerLevels+0x13c>)
 8001772:	0049      	lsls	r1, r1, #1
 8001774:	f7ff ff60 	bl	8001638 <debouncer>
		if(pinState&0b10000000)
 8001778:	0603      	lsls	r3, r0, #24
 800177a:	d506      	bpl.n	800178a <checkPowerLevels+0x10a>
			SysCntrl.stmbootsel = pinState&0b00000001;
 800177c:	2308      	movs	r3, #8
 800177e:	4038      	ands	r0, r7
 8001780:	5d2f      	ldrb	r7, [r5, r4]
 8001782:	00c0      	lsls	r0, r0, #3
 8001784:	439f      	bics	r7, r3
 8001786:	4338      	orrs	r0, r7
 8001788:	5528      	strb	r0, [r5, r4]
	}

	if(output){
 800178a:	2e00      	cmp	r6, #0
 800178c:	d009      	beq.n	80017a2 <checkPowerLevels+0x122>
		sprintf(buf,"STMBOOTSEL: %d\r\n",SysCntrl.stmbootsel);
 800178e:	5d2a      	ldrb	r2, [r5, r4]
 8001790:	490c      	ldr	r1, [pc, #48]	; (80017c4 <checkPowerLevels+0x144>)
 8001792:	0712      	lsls	r2, r2, #28
 8001794:	0fd2      	lsrs	r2, r2, #31
 8001796:	a801      	add	r0, sp, #4
 8001798:	f004 fdcc 	bl	8006334 <siprintf>
		UART_putstr(buf);
 800179c:	a801      	add	r0, sp, #4
 800179e:	f7ff f895 	bl	80008cc <UART_putstr>
	}
}
 80017a2:	b005      	add	sp, #20
 80017a4:	bdf0      	pop	{r4, r5, r6, r7, pc}
 80017a6:	46c0      	nop			; (mov r8, r8)
 80017a8:	2000049c 	.word	0x2000049c
 80017ac:	000002db 	.word	0x000002db
 80017b0:	08006ffe 	.word	0x08006ffe
 80017b4:	48001400 	.word	0x48001400
 80017b8:	08007009 	.word	0x08007009
 80017bc:	48000400 	.word	0x48000400
 80017c0:	08007016 	.word	0x08007016
 80017c4:	08007023 	.word	0x08007023

080017c8 <BootMenu>:
//	if((!strcmp(console.buf,"Y")) || (!strcmp(console.buf,"y")))
//		return 1;
//	return 0;
//}

int BootMenu(){
 80017c8:	b5f8      	push	{r3, r4, r5, r6, r7, lr}
	uint8_t i,result = 0;
	clearUartConsole();
 80017ca:	f7ff f92b 	bl	8000a24 <clearUartConsole>

	UART_putstrln(WELCOME_SCREEN);
 80017ce:	484a      	ldr	r0, [pc, #296]	; (80018f8 <BootMenu+0x130>)
 80017d0:	f7ff f888 	bl	80008e4 <UART_putstrln>
	memoryMenu();
 80017d4:	f7ff fe7c 	bl	80014d0 <memoryMenu>
	UART_putstr("CPU FW status:");
 80017d8:	4848      	ldr	r0, [pc, #288]	; (80018fc <BootMenu+0x134>)
 80017da:	f7ff f877 	bl	80008cc <UART_putstr>
	UART_putstrln(CS_STASTUS_LABELS[SysCntrl.FWStatus]);
 80017de:	4d48      	ldr	r5, [pc, #288]	; (8001900 <BootMenu+0x138>)
 80017e0:	4c48      	ldr	r4, [pc, #288]	; (8001904 <BootMenu+0x13c>)
 80017e2:	4a49      	ldr	r2, [pc, #292]	; (8001908 <BootMenu+0x140>)
 80017e4:	5d63      	ldrb	r3, [r4, r5]
 80017e6:	075b      	lsls	r3, r3, #29
 80017e8:	0f9b      	lsrs	r3, r3, #30
 80017ea:	009b      	lsls	r3, r3, #2
 80017ec:	5898      	ldr	r0, [r3, r2]
 80017ee:	f7ff f879 	bl	80008e4 <UART_putstrln>
	for(i=0;i<10;i++)
 80017f2:	4e46      	ldr	r6, [pc, #280]	; (800190c <BootMenu+0x144>)
 80017f4:	0037      	movs	r7, r6
 80017f6:	3728      	adds	r7, #40	; 0x28
		UART_putstrln(menu[i]);
 80017f8:	ce01      	ldmia	r6!, {r0}
 80017fa:	f7ff f873 	bl	80008e4 <UART_putstrln>
	for(i=0;i<10;i++)
 80017fe:	42b7      	cmp	r7, r6
 8001800:	d1fa      	bne.n	80017f8 <BootMenu+0x30>
	UART_putstr(">>");
 8001802:	4843      	ldr	r0, [pc, #268]	; (8001910 <BootMenu+0x148>)
 8001804:	f7ff f862 	bl	80008cc <UART_putstr>

	refreshConsoleBuffer();
 8001808:	f7ff f8fe 	bl	8000a08 <refreshConsoleBuffer>
	while(!console.cmd_flag) userInput(0);
 800180c:	4e41      	ldr	r6, [pc, #260]	; (8001914 <BootMenu+0x14c>)
 800180e:	3602      	adds	r6, #2
 8001810:	7ff0      	ldrb	r0, [r6, #31]
 8001812:	2800      	cmp	r0, #0
 8001814:	d00e      	beq.n	8001834 <BootMenu+0x6c>
	uint8_t cmd = atoi(console.buf)-1;
 8001816:	4840      	ldr	r0, [pc, #256]	; (8001918 <BootMenu+0x150>)
 8001818:	f004 fd49 	bl	80062ae <atoi>
 800181c:	3801      	subs	r0, #1
 800181e:	b2c0      	uxtb	r0, r0
 8001820:	2600      	movs	r6, #0
 8001822:	2808      	cmp	r0, #8
 8001824:	d80d      	bhi.n	8001842 <BootMenu+0x7a>
 8001826:	f7fe fc81 	bl	800012c <__gnu_thumb1_case_uqi>
 800182a:	1008      	.short	0x1008
 800182c:	4a3e3325 	.word	0x4a3e3325
 8001830:	5a55      	.short	0x5a55
 8001832:	61          	.byte	0x61
 8001833:	00          	.byte	0x00
	while(!console.cmd_flag) userInput(0);
 8001834:	f7ff f89a 	bl	800096c <userInput>
 8001838:	e7ea      	b.n	8001810 <BootMenu+0x48>
	switch(cmd){
	case 0:
		UART_putstrln("Booting...");
 800183a:	4838      	ldr	r0, [pc, #224]	; (800191c <BootMenu+0x154>)
 800183c:	f7ff f852 	bl	80008e4 <UART_putstrln>
		result = 1;
 8001840:	2601      	movs	r6, #1
		// Set FW status to BAD
		SysCntrl.FWStatus = BAD;
	break;

	}
	refreshConsoleBuffer();
 8001842:	f7ff f8e1 	bl	8000a08 <refreshConsoleBuffer>
	return result;
}
 8001846:	0030      	movs	r0, r6
 8001848:	bdf8      	pop	{r3, r4, r5, r6, r7, pc}
		if(SysCntrl.MainFlash == 0){
 800184a:	5d63      	ldrb	r3, [r4, r5]
 800184c:	2501      	movs	r5, #1
 800184e:	422b      	tst	r3, r5
 8001850:	d105      	bne.n	800185e <BootMenu+0x96>
			UART_putstrln(text[3]);
 8001852:	4b33      	ldr	r3, [pc, #204]	; (8001920 <BootMenu+0x158>)
 8001854:	68d8      	ldr	r0, [r3, #12]
 8001856:	f7ff f845 	bl	80008e4 <UART_putstrln>
	uint8_t i,result = 0;
 800185a:	2600      	movs	r6, #0
	break;
 800185c:	e7f1      	b.n	8001842 <BootMenu+0x7a>
			SysCntrl.active_cs = 0;
 800185e:	2300      	movs	r3, #0
 8001860:	71a3      	strb	r3, [r4, #6]
			Xmodem_Init();
 8001862:	f7ff fdc7 	bl	80013f4 <Xmodem_Init>
			while(SysCntrl.XmodemMode) Xmodem_SPI();
 8001866:	4b2f      	ldr	r3, [pc, #188]	; (8001924 <BootMenu+0x15c>)
 8001868:	5ce3      	ldrb	r3, [r4, r3]
 800186a:	422b      	tst	r3, r5
 800186c:	d0f5      	beq.n	800185a <BootMenu+0x92>
 800186e:	f7ff fcf9 	bl	8001264 <Xmodem_SPI>
 8001872:	e7f8      	b.n	8001866 <BootMenu+0x9e>
		if(SysCntrl.MainFlash == 1){
 8001874:	5d63      	ldrb	r3, [r4, r5]
 8001876:	2501      	movs	r5, #1
 8001878:	422b      	tst	r3, r5
 800187a:	d1ea      	bne.n	8001852 <BootMenu+0x8a>
			SysCntrl.active_cs = 1;
 800187c:	71a5      	strb	r5, [r4, #6]
			Xmodem_Init();
 800187e:	f7ff fdb9 	bl	80013f4 <Xmodem_Init>
			while(SysCntrl.XmodemMode) Xmodem_SPI();
 8001882:	4b28      	ldr	r3, [pc, #160]	; (8001924 <BootMenu+0x15c>)
 8001884:	5ce3      	ldrb	r3, [r4, r3]
 8001886:	422b      	tst	r3, r5
 8001888:	d0e7      	beq.n	800185a <BootMenu+0x92>
 800188a:	f7ff fceb 	bl	8001264 <Xmodem_SPI>
 800188e:	e7f8      	b.n	8001882 <BootMenu+0xba>
		SysCntrl.MainFlash = ~SysCntrl.MainFlash;
 8001890:	5d62      	ldrb	r2, [r4, r5]
 8001892:	2101      	movs	r1, #1
 8001894:	07d3      	lsls	r3, r2, #31
 8001896:	0fdb      	lsrs	r3, r3, #31
 8001898:	43db      	mvns	r3, r3
 800189a:	438a      	bics	r2, r1
 800189c:	400b      	ands	r3, r1
 800189e:	4313      	orrs	r3, r2
 80018a0:	5563      	strb	r3, [r4, r5]
		writeConfig();
 80018a2:	f7ff fe8b 	bl	80015bc <writeConfig>
		SysCntrl.BootFlash = ~SysCntrl.BootFlash;
 80018a6:	21b6      	movs	r1, #182	; 0xb6
 80018a8:	0089      	lsls	r1, r1, #2
 80018aa:	5c62      	ldrb	r2, [r4, r1]
 80018ac:	2001      	movs	r0, #1
 80018ae:	07d3      	lsls	r3, r2, #31
 80018b0:	0fdb      	lsrs	r3, r3, #31
 80018b2:	43db      	mvns	r3, r3
 80018b4:	4003      	ands	r3, r0
		SysCntrl.Watchdog = ~SysCntrl.Watchdog;
 80018b6:	4382      	bics	r2, r0
 80018b8:	4313      	orrs	r3, r2
 80018ba:	5463      	strb	r3, [r4, r1]
	break;
 80018bc:	e7cd      	b.n	800185a <BootMenu+0x92>
		SysCntrl.Watchdog = ~SysCntrl.Watchdog;
 80018be:	21b6      	movs	r1, #182	; 0xb6
 80018c0:	0089      	lsls	r1, r1, #2
 80018c2:	5c62      	ldrb	r2, [r4, r1]
 80018c4:	2001      	movs	r0, #1
 80018c6:	0793      	lsls	r3, r2, #30
 80018c8:	0fdb      	lsrs	r3, r3, #31
 80018ca:	43db      	mvns	r3, r3
 80018cc:	4003      	ands	r3, r0
 80018ce:	4083      	lsls	r3, r0
 80018d0:	1800      	adds	r0, r0, r0
 80018d2:	e7f0      	b.n	80018b6 <BootMenu+0xee>
		SysCntrl.FWStatus = CONFIRMED;
 80018d4:	2206      	movs	r2, #6
 80018d6:	5d63      	ldrb	r3, [r4, r5]
 80018d8:	4393      	bics	r3, r2
		SysCntrl.FWStatus = BAD;
 80018da:	5563      	strb	r3, [r4, r5]
 80018dc:	e7bd      	b.n	800185a <BootMenu+0x92>
		SysCntrl.FWStatus = UPDATED;
 80018de:	2206      	movs	r2, #6
 80018e0:	5d63      	ldrb	r3, [r4, r5]
 80018e2:	4393      	bics	r3, r2
 80018e4:	001a      	movs	r2, r3
 80018e6:	2302      	movs	r3, #2
		SysCntrl.FWStatus = BAD;
 80018e8:	4313      	orrs	r3, r2
 80018ea:	e7f6      	b.n	80018da <BootMenu+0x112>
 80018ec:	2206      	movs	r2, #6
 80018ee:	5d63      	ldrb	r3, [r4, r5]
 80018f0:	4393      	bics	r3, r2
 80018f2:	001a      	movs	r2, r3
 80018f4:	2304      	movs	r3, #4
 80018f6:	e7f7      	b.n	80018e8 <BootMenu+0x120>
 80018f8:	08007034 	.word	0x08007034
 80018fc:	08007062 	.word	0x08007062
 8001900:	000002d9 	.word	0x000002d9
 8001904:	2000049c 	.word	0x2000049c
 8001908:	20000004 	.word	0x20000004
 800190c:	20000014 	.word	0x20000014
 8001910:	08006f31 	.word	0x08006f31
 8001914:	20000474 	.word	0x20000474
 8001918:	20000475 	.word	0x20000475
 800191c:	08007071 	.word	0x08007071
 8001920:	2000003c 	.word	0x2000003c
 8001924:	000002cd 	.word	0x000002cd

08001928 <PowerSM>:
void PowerSM() {
 8001928:	b570      	push	{r4, r5, r6, lr}
	if(SysCntrl.PowerTimer>0)
 800192a:	4c60      	ldr	r4, [pc, #384]	; (8001aac <PowerSM+0x184>)
 800192c:	8863      	ldrh	r3, [r4, #2]
 800192e:	2b00      	cmp	r3, #0
 8001930:	d002      	beq.n	8001938 <PowerSM+0x10>
		SysCntrl.PowerTimer--;
 8001932:	3b01      	subs	r3, #1
				SysCntrl.PowerTimer = 500;
 8001934:	8063      	strh	r3, [r4, #2]
 8001936:	e012      	b.n	800195e <PowerSM+0x36>
		switch(SysCntrl.power_stage) {
 8001938:	7825      	ldrb	r5, [r4, #0]
 800193a:	2d15      	cmp	r5, #21
 800193c:	d100      	bne.n	8001940 <PowerSM+0x18>
 800193e:	e0aa      	b.n	8001a96 <PowerSM+0x16e>
 8001940:	d80e      	bhi.n	8001960 <PowerSM+0x38>
 8001942:	2d0a      	cmp	r5, #10
 8001944:	d808      	bhi.n	8001958 <PowerSM+0x30>
 8001946:	0028      	movs	r0, r5
 8001948:	f7fe fbf0 	bl	800012c <__gnu_thumb1_case_uqi>
 800194c:	0909532a 	.word	0x0909532a
 8001950:	09090909 	.word	0x09090909
 8001954:	5809      	.short	0x5809
 8001956:	70          	.byte	0x70
 8001957:	00          	.byte	0x00
 8001958:	2d14      	cmp	r5, #20
 800195a:	d100      	bne.n	800195e <PowerSM+0x36>
 800195c:	e070      	b.n	8001a40 <PowerSM+0x118>
}
 800195e:	bd70      	pop	{r4, r5, r6, pc}
		switch(SysCntrl.power_stage) {
 8001960:	2d29      	cmp	r5, #41	; 0x29
 8001962:	d100      	bne.n	8001966 <PowerSM+0x3e>
 8001964:	e091      	b.n	8001a8a <PowerSM+0x162>
 8001966:	d80d      	bhi.n	8001984 <PowerSM+0x5c>
 8001968:	2d1e      	cmp	r5, #30
 800196a:	d06f      	beq.n	8001a4c <PowerSM+0x124>
 800196c:	2d28      	cmp	r5, #40	; 0x28
 800196e:	d1f6      	bne.n	800195e <PowerSM+0x36>
			SetI2C_Mask(CPU_RST_N);
 8001970:	2080      	movs	r0, #128	; 0x80
 8001972:	f7fe ff4b 	bl	800080c <SetI2C_Mask>
			ClrI2C_Mask(TRST_N|EJ_TRST_N|RESET_N);
 8001976:	2064      	movs	r0, #100	; 0x64
 8001978:	f7fe ff5c 	bl	8000834 <ClrI2C_Mask>
			SysCntrl.PowerTimer  = 100;
 800197c:	2364      	movs	r3, #100	; 0x64
 800197e:	8063      	strh	r3, [r4, #2]
			SysCntrl.power_stage = 51;
 8001980:	3b31      	subs	r3, #49	; 0x31
 8001982:	e00b      	b.n	800199c <PowerSM+0x74>
		switch(SysCntrl.power_stage) {
 8001984:	2d33      	cmp	r5, #51	; 0x33
 8001986:	d068      	beq.n	8001a5a <PowerSM+0x132>
 8001988:	2d64      	cmp	r5, #100	; 0x64
 800198a:	d1e8      	bne.n	800195e <PowerSM+0x36>
			ClrI2C_Mask(0b11111111);
 800198c:	20ff      	movs	r0, #255	; 0xff
 800198e:	f7fe ff51 	bl	8000834 <ClrI2C_Mask>
			if(BootMenu())
 8001992:	f7ff ff19 	bl	80017c8 <BootMenu>
 8001996:	2800      	cmp	r0, #0
 8001998:	d0e1      	beq.n	800195e <PowerSM+0x36>
				SysCntrl.power_stage = 9;
 800199a:	2309      	movs	r3, #9
			SysCntrl.power_stage = 51;
 800199c:	7023      	strb	r3, [r4, #0]
}
 800199e:	e7de      	b.n	800195e <PowerSM+0x36>
			 if(SysCntrl.FWStatus == CONFIRMED || SysCntrl.FWStatus == BAD)
 80019a0:	22b6      	movs	r2, #182	; 0xb6
 80019a2:	4d43      	ldr	r5, [pc, #268]	; (8001ab0 <PowerSM+0x188>)
 80019a4:	0092      	lsls	r2, r2, #2
 80019a6:	5d63      	ldrb	r3, [r4, r5]
 80019a8:	07d9      	lsls	r1, r3, #31
 80019aa:	0fc9      	lsrs	r1, r1, #31
 80019ac:	0798      	lsls	r0, r3, #30
 80019ae:	d405      	bmi.n	80019bc <PowerSM+0x94>
				 SysCntrl.BootFlash = SysCntrl.MainFlash;
 80019b0:	2001      	movs	r0, #1
 80019b2:	5ca3      	ldrb	r3, [r4, r2]
					 SysCntrl.BootFlash = SysCntrl.MainFlash;
 80019b4:	4383      	bics	r3, r0
 80019b6:	4319      	orrs	r1, r3
 80019b8:	54a1      	strb	r1, [r4, r2]
 80019ba:	e010      	b.n	80019de <PowerSM+0xb6>
				 if(SysCntrl.BootAttempt>0){
 80019bc:	2018      	movs	r0, #24
 80019be:	4203      	tst	r3, r0
 80019c0:	d00f      	beq.n	80019e2 <PowerSM+0xba>
					 SysCntrl.BootAttempt--;
 80019c2:	06db      	lsls	r3, r3, #27
 80019c4:	0f9b      	lsrs	r3, r3, #30
					 SysCntrl.BootFlash = ~SysCntrl.MainFlash;
 80019c6:	3815      	subs	r0, #21
					 SysCntrl.BootAttempt--;
 80019c8:	3303      	adds	r3, #3
					 SysCntrl.BootFlash = ~SysCntrl.MainFlash;
 80019ca:	4003      	ands	r3, r0
 80019cc:	3802      	subs	r0, #2
 80019ce:	4041      	eors	r1, r0
 80019d0:	02db      	lsls	r3, r3, #11
 80019d2:	430b      	orrs	r3, r1
 80019d4:	4837      	ldr	r0, [pc, #220]	; (8001ab4 <PowerSM+0x18c>)
 80019d6:	5aa1      	ldrh	r1, [r4, r2]
 80019d8:	4001      	ands	r1, r0
 80019da:	430b      	orrs	r3, r1
 80019dc:	52a3      	strh	r3, [r4, r2]
			 SysCntrl.power_stage = 1;
 80019de:	2301      	movs	r3, #1
 80019e0:	e7dc      	b.n	800199c <PowerSM+0x74>
					 SysCntrl.FWStatus = BAD;
 80019e2:	2006      	movs	r0, #6
 80019e4:	4383      	bics	r3, r0
 80019e6:	3802      	subs	r0, #2
 80019e8:	4303      	orrs	r3, r0
 80019ea:	5563      	strb	r3, [r4, r5]
					 SysCntrl.BootFlash = SysCntrl.MainFlash;
 80019ec:	3803      	subs	r0, #3
 80019ee:	5ca3      	ldrb	r3, [r4, r2]
 80019f0:	e7e0      	b.n	80019b4 <PowerSM+0x8c>
			if(SysCntrl.PowerState || BootMenu())
 80019f2:	4b2f      	ldr	r3, [pc, #188]	; (8001ab0 <PowerSM+0x188>)
 80019f4:	5ce3      	ldrb	r3, [r4, r3]
 80019f6:	069b      	lsls	r3, r3, #26
 80019f8:	d4cf      	bmi.n	800199a <PowerSM+0x72>
 80019fa:	e7ca      	b.n	8001992 <PowerSM+0x6a>
			 if(SysCntrl.BootFlash){
 80019fc:	23b6      	movs	r3, #182	; 0xb6
 80019fe:	009b      	lsls	r3, r3, #2
 8001a00:	5ce3      	ldrb	r3, [r4, r3]
 8001a02:	07db      	lsls	r3, r3, #31
 8001a04:	d50d      	bpl.n	8001a22 <PowerSM+0xfa>
				  SetI2C_Mask(FLASH_EN_1);
 8001a06:	2010      	movs	r0, #16
 8001a08:	f7fe ff00 	bl	800080c <SetI2C_Mask>
				  ClrI2C_Mask(FLASH_EN_0);
 8001a0c:	2008      	movs	r0, #8
				  ClrI2C_Mask(FLASH_EN_1);
 8001a0e:	f7fe ff11 	bl	8000834 <ClrI2C_Mask>
			if(SysCntrl.pgin){
 8001a12:	4b29      	ldr	r3, [pc, #164]	; (8001ab8 <PowerSM+0x190>)
 8001a14:	5ce3      	ldrb	r3, [r4, r3]
 8001a16:	07db      	lsls	r3, r3, #31
 8001a18:	d5a1      	bpl.n	800195e <PowerSM+0x36>
				SysCntrl.power_stage = 10;
 8001a1a:	230a      	movs	r3, #10
 8001a1c:	7023      	strb	r3, [r4, #0]
				SysCntrl.PowerTimer = 2;
 8001a1e:	3b08      	subs	r3, #8
 8001a20:	e788      	b.n	8001934 <PowerSM+0xc>
				  SetI2C_Mask(FLASH_EN_0);
 8001a22:	2008      	movs	r0, #8
 8001a24:	f7fe fef2 	bl	800080c <SetI2C_Mask>
				  ClrI2C_Mask(FLASH_EN_1);
 8001a28:	2010      	movs	r0, #16
 8001a2a:	e7f0      	b.n	8001a0e <PowerSM+0xe6>
			SetI2C_Mask(TRST_N|EJ_TRST_N);
 8001a2c:	2060      	movs	r0, #96	; 0x60
 8001a2e:	f7fe feed 	bl	800080c <SetI2C_Mask>
			ClrI2C_Mask(RESET_N|CPU_RST_N);
 8001a32:	2084      	movs	r0, #132	; 0x84
 8001a34:	f7fe fefe 	bl	8000834 <ClrI2C_Mask>
			SysCntrl.PowerTimer  = 2;
 8001a38:	2302      	movs	r3, #2
 8001a3a:	8063      	strh	r3, [r4, #2]
			SysCntrl.power_stage = 20;
 8001a3c:	3312      	adds	r3, #18
 8001a3e:	e7ad      	b.n	800199c <PowerSM+0x74>
			SetI2C_Mask(ENA_LV_DCDC);
 8001a40:	2001      	movs	r0, #1
 8001a42:	f7fe fee3 	bl	800080c <SetI2C_Mask>
			SysCntrl.power_stage = 30;
 8001a46:	231e      	movs	r3, #30
			SysCntrl.PowerTimer  = 20;
 8001a48:	8065      	strh	r5, [r4, #2]
			SysCntrl.power_stage = 30;
 8001a4a:	e7a7      	b.n	800199c <PowerSM+0x74>
			SetI2C_Mask(ENA_HV_DCDC);
 8001a4c:	2002      	movs	r0, #2
 8001a4e:	f7fe fedd 	bl	800080c <SetI2C_Mask>
			SysCntrl.PowerTimer  = 10;
 8001a52:	230a      	movs	r3, #10
 8001a54:	8063      	strh	r3, [r4, #2]
			SysCntrl.power_stage = 40;
 8001a56:	331e      	adds	r3, #30
 8001a58:	e7a0      	b.n	800199c <PowerSM+0x74>
			SetI2C_Mask(TRST_N|EJ_TRST_N|RESET_N);
 8001a5a:	2064      	movs	r0, #100	; 0x64
 8001a5c:	f7fe fed6 	bl	800080c <SetI2C_Mask>
			ClrI2C_Mask(CPU_RST_N);
 8001a60:	2080      	movs	r0, #128	; 0x80
 8001a62:	f7fe fee7 	bl	8000834 <ClrI2C_Mask>
			SysCntrl.PowerTimer  = 100;
 8001a66:	2364      	movs	r3, #100	; 0x64
 8001a68:	8063      	strh	r3, [r4, #2]
			if(SysCntrl.rstbtn){
 8001a6a:	4b13      	ldr	r3, [pc, #76]	; (8001ab8 <PowerSM+0x190>)
 8001a6c:	5ce3      	ldrb	r3, [r4, r3]
 8001a6e:	075a      	lsls	r2, r3, #29
 8001a70:	d503      	bpl.n	8001a7a <PowerSM+0x152>
				SysCntrl.PowerTimer  = 40;
 8001a72:	2228      	movs	r2, #40	; 0x28
 8001a74:	8062      	strh	r2, [r4, #2]
				SysCntrl.power_stage = 41;
 8001a76:	3201      	adds	r2, #1
 8001a78:	7022      	strb	r2, [r4, #0]
			if(SysCntrl.pwrbtn){
 8001a7a:	079b      	lsls	r3, r3, #30
 8001a7c:	d400      	bmi.n	8001a80 <PowerSM+0x158>
 8001a7e:	e76e      	b.n	800195e <PowerSM+0x36>
				SysCntrl.power_stage = 100;
 8001a80:	2364      	movs	r3, #100	; 0x64
 8001a82:	7023      	strb	r3, [r4, #0]
				SysCntrl.PowerTimer = 500;
 8001a84:	3391      	adds	r3, #145	; 0x91
 8001a86:	33ff      	adds	r3, #255	; 0xff
 8001a88:	e754      	b.n	8001934 <PowerSM+0xc>
			SysCntrl.PowerTimer  = 500;
 8001a8a:	23fa      	movs	r3, #250	; 0xfa
 8001a8c:	005b      	lsls	r3, r3, #1
 8001a8e:	8063      	strh	r3, [r4, #2]
			SysCntrl.power_stage = 21;
 8001a90:	3be0      	subs	r3, #224	; 0xe0
 8001a92:	3bff      	subs	r3, #255	; 0xff
 8001a94:	e782      	b.n	800199c <PowerSM+0x74>
			SetI2C_Mask(CPU_RST_N);
 8001a96:	2080      	movs	r0, #128	; 0x80
 8001a98:	f7fe feb8 	bl	800080c <SetI2C_Mask>
			ClrI2C_Mask(TRST_N|EJ_TRST_N|RESET_N);
 8001a9c:	2064      	movs	r0, #100	; 0x64
 8001a9e:	f7fe fec9 	bl	8000834 <ClrI2C_Mask>
			SysCntrl.PowerTimer  = 1;
 8001aa2:	2301      	movs	r3, #1
 8001aa4:	8063      	strh	r3, [r4, #2]
			SysCntrl.power_stage = 51;
 8001aa6:	3332      	adds	r3, #50	; 0x32
 8001aa8:	e778      	b.n	800199c <PowerSM+0x74>
 8001aaa:	46c0      	nop			; (mov r8, r8)
 8001aac:	2000049c 	.word	0x2000049c
 8001ab0:	000002d9 	.word	0x000002d9
 8001ab4:	ffffe7fe 	.word	0xffffe7fe
 8001ab8:	000002db 	.word	0x000002db

08001abc <HAL_MspInit>:
{
  /* USER CODE BEGIN MspInit 0 */

  /* USER CODE END MspInit 0 */

  __HAL_RCC_SYSCFG_CLK_ENABLE();
 8001abc:	2001      	movs	r0, #1
 8001abe:	4b0c      	ldr	r3, [pc, #48]	; (8001af0 <HAL_MspInit+0x34>)
{
 8001ac0:	b082      	sub	sp, #8
  __HAL_RCC_SYSCFG_CLK_ENABLE();
 8001ac2:	6999      	ldr	r1, [r3, #24]
 8001ac4:	4301      	orrs	r1, r0
 8001ac6:	6199      	str	r1, [r3, #24]
  __HAL_RCC_PWR_CLK_ENABLE();
 8001ac8:	2180      	movs	r1, #128	; 0x80
  __HAL_RCC_SYSCFG_CLK_ENABLE();
 8001aca:	699a      	ldr	r2, [r3, #24]
  __HAL_RCC_PWR_CLK_ENABLE();
 8001acc:	0549      	lsls	r1, r1, #21
  __HAL_RCC_SYSCFG_CLK_ENABLE();
 8001ace:	4002      	ands	r2, r0
 8001ad0:	9200      	str	r2, [sp, #0]
 8001ad2:	9a00      	ldr	r2, [sp, #0]
  __HAL_RCC_PWR_CLK_ENABLE();
 8001ad4:	69da      	ldr	r2, [r3, #28]
 8001ad6:	430a      	orrs	r2, r1
 8001ad8:	61da      	str	r2, [r3, #28]
 8001ada:	69db      	ldr	r3, [r3, #28]

  /* System interrupt init*/

  __HAL_REMAP_PIN_ENABLE(HAL_REMAP_PA11_PA12);
 8001adc:	4a05      	ldr	r2, [pc, #20]	; (8001af4 <HAL_MspInit+0x38>)
  __HAL_RCC_PWR_CLK_ENABLE();
 8001ade:	400b      	ands	r3, r1
 8001ae0:	9301      	str	r3, [sp, #4]
 8001ae2:	9b01      	ldr	r3, [sp, #4]
  __HAL_REMAP_PIN_ENABLE(HAL_REMAP_PA11_PA12);
 8001ae4:	2310      	movs	r3, #16
 8001ae6:	6811      	ldr	r1, [r2, #0]
 8001ae8:	430b      	orrs	r3, r1
 8001aea:	6013      	str	r3, [r2, #0]

  /* USER CODE BEGIN MspInit 1 */

  /* USER CODE END MspInit 1 */
}
 8001aec:	b002      	add	sp, #8
 8001aee:	4770      	bx	lr
 8001af0:	40021000 	.word	0x40021000
 8001af4:	40010000 	.word	0x40010000

08001af8 <HAL_ADC_MspInit>:
* @param hadc: ADC handle pointer
* @retval None
*/
void HAL_ADC_MspInit(ADC_HandleTypeDef* hadc)
{
  if(hadc->Instance==ADC1)
 8001af8:	4b08      	ldr	r3, [pc, #32]	; (8001b1c <HAL_ADC_MspInit+0x24>)
 8001afa:	6802      	ldr	r2, [r0, #0]
{
 8001afc:	b082      	sub	sp, #8
  if(hadc->Instance==ADC1)
 8001afe:	429a      	cmp	r2, r3
 8001b00:	d109      	bne.n	8001b16 <HAL_ADC_MspInit+0x1e>
  {
  /* USER CODE BEGIN ADC1_MspInit 0 */

  /* USER CODE END ADC1_MspInit 0 */
    /* Peripheral clock enable */
    __HAL_RCC_ADC1_CLK_ENABLE();
 8001b02:	2080      	movs	r0, #128	; 0x80
 8001b04:	4a06      	ldr	r2, [pc, #24]	; (8001b20 <HAL_ADC_MspInit+0x28>)
 8001b06:	0080      	lsls	r0, r0, #2
 8001b08:	6991      	ldr	r1, [r2, #24]
 8001b0a:	4301      	orrs	r1, r0
 8001b0c:	6191      	str	r1, [r2, #24]
 8001b0e:	6993      	ldr	r3, [r2, #24]
 8001b10:	4003      	ands	r3, r0
 8001b12:	9301      	str	r3, [sp, #4]
 8001b14:	9b01      	ldr	r3, [sp, #4]
  /* USER CODE BEGIN ADC1_MspInit 1 */

  /* USER CODE END ADC1_MspInit 1 */
  }

}
 8001b16:	b002      	add	sp, #8
 8001b18:	4770      	bx	lr
 8001b1a:	46c0      	nop			; (mov r8, r8)
 8001b1c:	40012400 	.word	0x40012400
 8001b20:	40021000 	.word	0x40021000

08001b24 <HAL_I2C_MspInit>:
* This function configures the hardware resources used in this example
* @param hi2c: I2C handle pointer
* @retval None
*/
void HAL_I2C_MspInit(I2C_HandleTypeDef* hi2c)
{
 8001b24:	b510      	push	{r4, lr}
 8001b26:	0004      	movs	r4, r0
 8001b28:	b088      	sub	sp, #32
  GPIO_InitTypeDef GPIO_InitStruct = {0};
 8001b2a:	2214      	movs	r2, #20
 8001b2c:	2100      	movs	r1, #0
 8001b2e:	a803      	add	r0, sp, #12
 8001b30:	f004 fbf7 	bl	8006322 <memset>
  if(hi2c->Instance==I2C1)
 8001b34:	4b13      	ldr	r3, [pc, #76]	; (8001b84 <HAL_I2C_MspInit+0x60>)
 8001b36:	6822      	ldr	r2, [r4, #0]
 8001b38:	429a      	cmp	r2, r3
 8001b3a:	d120      	bne.n	8001b7e <HAL_I2C_MspInit+0x5a>
  {
  /* USER CODE BEGIN I2C1_MspInit 0 */

  /* USER CODE END I2C1_MspInit 0 */

    __HAL_RCC_GPIOB_CLK_ENABLE();
 8001b3c:	2180      	movs	r1, #128	; 0x80
 8001b3e:	4c12      	ldr	r4, [pc, #72]	; (8001b88 <HAL_I2C_MspInit+0x64>)
 8001b40:	02c9      	lsls	r1, r1, #11
 8001b42:	6962      	ldr	r2, [r4, #20]
    GPIO_InitStruct.Pin = GPIO_PIN_6|GPIO_PIN_7;
    GPIO_InitStruct.Mode = GPIO_MODE_AF_OD;
    GPIO_InitStruct.Pull = GPIO_NOPULL;
    GPIO_InitStruct.Speed = GPIO_SPEED_FREQ_HIGH;
    GPIO_InitStruct.Alternate = GPIO_AF1_I2C1;
    HAL_GPIO_Init(GPIOB, &GPIO_InitStruct);
 8001b44:	4811      	ldr	r0, [pc, #68]	; (8001b8c <HAL_I2C_MspInit+0x68>)
    __HAL_RCC_GPIOB_CLK_ENABLE();
 8001b46:	430a      	orrs	r2, r1
 8001b48:	6162      	str	r2, [r4, #20]
 8001b4a:	6963      	ldr	r3, [r4, #20]
 8001b4c:	400b      	ands	r3, r1
 8001b4e:	9301      	str	r3, [sp, #4]
 8001b50:	9b01      	ldr	r3, [sp, #4]
    GPIO_InitStruct.Pin = GPIO_PIN_6|GPIO_PIN_7;
 8001b52:	23c0      	movs	r3, #192	; 0xc0
 8001b54:	9303      	str	r3, [sp, #12]
    GPIO_InitStruct.Mode = GPIO_MODE_AF_OD;
 8001b56:	3bae      	subs	r3, #174	; 0xae
 8001b58:	9304      	str	r3, [sp, #16]
    GPIO_InitStruct.Pull = GPIO_NOPULL;
 8001b5a:	2300      	movs	r3, #0
 8001b5c:	9305      	str	r3, [sp, #20]
    GPIO_InitStruct.Speed = GPIO_SPEED_FREQ_HIGH;
 8001b5e:	3303      	adds	r3, #3
 8001b60:	9306      	str	r3, [sp, #24]
    HAL_GPIO_Init(GPIOB, &GPIO_InitStruct);
 8001b62:	a903      	add	r1, sp, #12
    GPIO_InitStruct.Alternate = GPIO_AF1_I2C1;
 8001b64:	3b02      	subs	r3, #2
 8001b66:	9307      	str	r3, [sp, #28]
    HAL_GPIO_Init(GPIOB, &GPIO_InitStruct);
 8001b68:	f000 fbf2 	bl	8002350 <HAL_GPIO_Init>

    /* Peripheral clock enable */
    __HAL_RCC_I2C1_CLK_ENABLE();
 8001b6c:	2180      	movs	r1, #128	; 0x80
 8001b6e:	69e2      	ldr	r2, [r4, #28]
 8001b70:	0389      	lsls	r1, r1, #14
 8001b72:	430a      	orrs	r2, r1
 8001b74:	61e2      	str	r2, [r4, #28]
 8001b76:	69e3      	ldr	r3, [r4, #28]
 8001b78:	400b      	ands	r3, r1
 8001b7a:	9302      	str	r3, [sp, #8]
 8001b7c:	9b02      	ldr	r3, [sp, #8]
  /* USER CODE BEGIN I2C1_MspInit 1 */

  /* USER CODE END I2C1_MspInit 1 */
  }

}
 8001b7e:	b008      	add	sp, #32
 8001b80:	bd10      	pop	{r4, pc}
 8001b82:	46c0      	nop			; (mov r8, r8)
 8001b84:	40005400 	.word	0x40005400
 8001b88:	40021000 	.word	0x40021000
 8001b8c:	48000400 	.word	0x48000400

08001b90 <HAL_SPI_MspInit>:
* This function configures the hardware resources used in this example
* @param hspi: SPI handle pointer
* @retval None
*/
void HAL_SPI_MspInit(SPI_HandleTypeDef* hspi)
{
 8001b90:	b510      	push	{r4, lr}
 8001b92:	0004      	movs	r4, r0
 8001b94:	b088      	sub	sp, #32
  GPIO_InitTypeDef GPIO_InitStruct = {0};
 8001b96:	2214      	movs	r2, #20
 8001b98:	2100      	movs	r1, #0
 8001b9a:	a803      	add	r0, sp, #12
 8001b9c:	f004 fbc1 	bl	8006322 <memset>
  if(hspi->Instance==SPI1)
 8001ba0:	4b17      	ldr	r3, [pc, #92]	; (8001c00 <HAL_SPI_MspInit+0x70>)
 8001ba2:	6822      	ldr	r2, [r4, #0]
 8001ba4:	429a      	cmp	r2, r3
 8001ba6:	d128      	bne.n	8001bfa <HAL_SPI_MspInit+0x6a>
  {
  /* USER CODE BEGIN SPI1_MspInit 0 */

  /* USER CODE END SPI1_MspInit 0 */
    /* Peripheral clock enable */
    __HAL_RCC_SPI1_CLK_ENABLE();
 8001ba8:	2080      	movs	r0, #128	; 0x80
 8001baa:	4b16      	ldr	r3, [pc, #88]	; (8001c04 <HAL_SPI_MspInit+0x74>)
 8001bac:	0140      	lsls	r0, r0, #5
 8001bae:	6999      	ldr	r1, [r3, #24]
    PA6     ------> SPI1_MISO
    PA7     ------> SPI1_MOSI
    */
    GPIO_InitStruct.Pin = GPIO_PIN_5|GPIO_PIN_6|GPIO_PIN_7;
    GPIO_InitStruct.Mode = GPIO_MODE_AF_PP;
    GPIO_InitStruct.Pull = GPIO_NOPULL;
 8001bb0:	2400      	movs	r4, #0
    __HAL_RCC_SPI1_CLK_ENABLE();
 8001bb2:	4301      	orrs	r1, r0
 8001bb4:	6199      	str	r1, [r3, #24]
    __HAL_RCC_GPIOA_CLK_ENABLE();
 8001bb6:	2180      	movs	r1, #128	; 0x80
    __HAL_RCC_SPI1_CLK_ENABLE();
 8001bb8:	699a      	ldr	r2, [r3, #24]
    __HAL_RCC_GPIOA_CLK_ENABLE();
 8001bba:	0289      	lsls	r1, r1, #10
    __HAL_RCC_SPI1_CLK_ENABLE();
 8001bbc:	4002      	ands	r2, r0
 8001bbe:	9201      	str	r2, [sp, #4]
 8001bc0:	9a01      	ldr	r2, [sp, #4]
    __HAL_RCC_GPIOA_CLK_ENABLE();
 8001bc2:	695a      	ldr	r2, [r3, #20]
    GPIO_InitStruct.Speed = GPIO_SPEED_FREQ_HIGH;
    GPIO_InitStruct.Alternate = GPIO_AF0_SPI1;
    HAL_GPIO_Init(GPIOA, &GPIO_InitStruct);
 8001bc4:	2090      	movs	r0, #144	; 0x90
    __HAL_RCC_GPIOA_CLK_ENABLE();
 8001bc6:	430a      	orrs	r2, r1
 8001bc8:	615a      	str	r2, [r3, #20]
 8001bca:	695b      	ldr	r3, [r3, #20]
    HAL_GPIO_Init(GPIOA, &GPIO_InitStruct);
 8001bcc:	05c0      	lsls	r0, r0, #23
    __HAL_RCC_GPIOA_CLK_ENABLE();
 8001bce:	400b      	ands	r3, r1
 8001bd0:	9302      	str	r3, [sp, #8]
 8001bd2:	9b02      	ldr	r3, [sp, #8]
    GPIO_InitStruct.Pin = GPIO_PIN_5|GPIO_PIN_6|GPIO_PIN_7;
 8001bd4:	23e0      	movs	r3, #224	; 0xe0
 8001bd6:	9303      	str	r3, [sp, #12]
    GPIO_InitStruct.Mode = GPIO_MODE_AF_PP;
 8001bd8:	3bde      	subs	r3, #222	; 0xde
 8001bda:	9304      	str	r3, [sp, #16]
    HAL_GPIO_Init(GPIOA, &GPIO_InitStruct);
 8001bdc:	a903      	add	r1, sp, #12
    GPIO_InitStruct.Speed = GPIO_SPEED_FREQ_HIGH;
 8001bde:	3301      	adds	r3, #1
 8001be0:	9306      	str	r3, [sp, #24]
    GPIO_InitStruct.Pull = GPIO_NOPULL;
 8001be2:	9405      	str	r4, [sp, #20]
    GPIO_InitStruct.Alternate = GPIO_AF0_SPI1;
 8001be4:	9407      	str	r4, [sp, #28]
    HAL_GPIO_Init(GPIOA, &GPIO_InitStruct);
 8001be6:	f000 fbb3 	bl	8002350 <HAL_GPIO_Init>

    /* SPI1 interrupt Init */
    HAL_NVIC_SetPriority(SPI1_IRQn, 0, 0);
 8001bea:	2019      	movs	r0, #25
 8001bec:	0022      	movs	r2, r4
 8001bee:	0021      	movs	r1, r4
 8001bf0:	f000 fa2c 	bl	800204c <HAL_NVIC_SetPriority>
    HAL_NVIC_EnableIRQ(SPI1_IRQn);
 8001bf4:	2019      	movs	r0, #25
 8001bf6:	f000 fa53 	bl	80020a0 <HAL_NVIC_EnableIRQ>
  /* USER CODE BEGIN SPI1_MspInit 1 */

  /* USER CODE END SPI1_MspInit 1 */
  }

}
 8001bfa:	b008      	add	sp, #32
 8001bfc:	bd10      	pop	{r4, pc}
 8001bfe:	46c0      	nop			; (mov r8, r8)
 8001c00:	40013000 	.word	0x40013000
 8001c04:	40021000 	.word	0x40021000

08001c08 <HAL_SPI_MspDeInit>:
* @param hspi: SPI handle pointer
* @retval None
*/
void HAL_SPI_MspDeInit(SPI_HandleTypeDef* hspi)
{
  if(hspi->Instance==SPI1)
 8001c08:	4b09      	ldr	r3, [pc, #36]	; (8001c30 <HAL_SPI_MspDeInit+0x28>)
 8001c0a:	6802      	ldr	r2, [r0, #0]
{
 8001c0c:	b510      	push	{r4, lr}
  if(hspi->Instance==SPI1)
 8001c0e:	429a      	cmp	r2, r3
 8001c10:	d10c      	bne.n	8001c2c <HAL_SPI_MspDeInit+0x24>
    /**SPI1 GPIO Configuration
    PA5     ------> SPI1_SCK
    PA6     ------> SPI1_MISO
    PA7     ------> SPI1_MOSI
    */
    HAL_GPIO_DeInit(GPIOA, GPIO_PIN_5|GPIO_PIN_6|GPIO_PIN_7);
 8001c12:	2090      	movs	r0, #144	; 0x90
    __HAL_RCC_SPI1_CLK_DISABLE();
 8001c14:	4a07      	ldr	r2, [pc, #28]	; (8001c34 <HAL_SPI_MspDeInit+0x2c>)
 8001c16:	4908      	ldr	r1, [pc, #32]	; (8001c38 <HAL_SPI_MspDeInit+0x30>)
 8001c18:	6993      	ldr	r3, [r2, #24]
    HAL_GPIO_DeInit(GPIOA, GPIO_PIN_5|GPIO_PIN_6|GPIO_PIN_7);
 8001c1a:	05c0      	lsls	r0, r0, #23
    __HAL_RCC_SPI1_CLK_DISABLE();
 8001c1c:	400b      	ands	r3, r1
 8001c1e:	6193      	str	r3, [r2, #24]
    HAL_GPIO_DeInit(GPIOA, GPIO_PIN_5|GPIO_PIN_6|GPIO_PIN_7);
 8001c20:	21e0      	movs	r1, #224	; 0xe0
 8001c22:	f000 fc45 	bl	80024b0 <HAL_GPIO_DeInit>

    /* SPI1 interrupt DeInit */
    HAL_NVIC_DisableIRQ(SPI1_IRQn);
 8001c26:	2019      	movs	r0, #25
 8001c28:	f000 fa46 	bl	80020b8 <HAL_NVIC_DisableIRQ>
  /* USER CODE BEGIN SPI1_MspDeInit 1 */

  /* USER CODE END SPI1_MspDeInit 1 */
  }

}
 8001c2c:	bd10      	pop	{r4, pc}
 8001c2e:	46c0      	nop			; (mov r8, r8)
 8001c30:	40013000 	.word	0x40013000
 8001c34:	40021000 	.word	0x40021000
 8001c38:	ffffefff 	.word	0xffffefff

08001c3c <HAL_InitTick>:
  *         reset by HAL_Init() or at any time when clock is configured, by HAL_RCC_ClockConfig().
  * @param  TickPriority: Tick interrupt priority.
  * @retval HAL status
  */
HAL_StatusTypeDef HAL_InitTick(uint32_t TickPriority)
{
 8001c3c:	b510      	push	{r4, lr}
 8001c3e:	0001      	movs	r1, r0
 8001c40:	b086      	sub	sp, #24
  RCC_ClkInitTypeDef    clkconfig;
  uint32_t              uwTimclock = 0;
  uint32_t              uwPrescalerValue = 0;
  uint32_t              pFLatency;
  /*Configure the TIM17 IRQ priority */
  HAL_NVIC_SetPriority(TIM17_IRQn, TickPriority ,0);
 8001c42:	2200      	movs	r2, #0
 8001c44:	2016      	movs	r0, #22
 8001c46:	f000 fa01 	bl	800204c <HAL_NVIC_SetPriority>

  /* Enable the TIM17 global Interrupt */
  HAL_NVIC_EnableIRQ(TIM17_IRQn);
 8001c4a:	2016      	movs	r0, #22
 8001c4c:	f000 fa28 	bl	80020a0 <HAL_NVIC_EnableIRQ>

  /* Enable TIM17 clock */
  __HAL_RCC_TIM17_CLK_ENABLE();
 8001c50:	2080      	movs	r0, #128	; 0x80
 8001c52:	4a14      	ldr	r2, [pc, #80]	; (8001ca4 <HAL_InitTick+0x68>)
 8001c54:	02c0      	lsls	r0, r0, #11
 8001c56:	6991      	ldr	r1, [r2, #24]
 8001c58:	4301      	orrs	r1, r0
 8001c5a:	6191      	str	r1, [r2, #24]
 8001c5c:	6993      	ldr	r3, [r2, #24]

  /* Get clock configuration */
  HAL_RCC_GetClockConfig(&clkconfig, &pFLatency);
 8001c5e:	4669      	mov	r1, sp
  __HAL_RCC_TIM17_CLK_ENABLE();
 8001c60:	4003      	ands	r3, r0
 8001c62:	9301      	str	r3, [sp, #4]
  HAL_RCC_GetClockConfig(&clkconfig, &pFLatency);
 8001c64:	a802      	add	r0, sp, #8
  __HAL_RCC_TIM17_CLK_ENABLE();
 8001c66:	9b01      	ldr	r3, [sp, #4]
  HAL_RCC_GetClockConfig(&clkconfig, &pFLatency);
 8001c68:	f001 ff34 	bl	8003ad4 <HAL_RCC_GetClockConfig>

  /* Compute TIM17 clock */
  uwTimclock = HAL_RCC_GetPCLK1Freq();
 8001c6c:	f001 ff22 	bl	8003ab4 <HAL_RCC_GetPCLK1Freq>
  /* Compute the prescaler value to have TIM17 counter clock equal to 1MHz */
  uwPrescalerValue = (uint32_t) ((uwTimclock / 1000000U) - 1U);

  /* Initialize TIM17 */
  htim17.Instance = TIM17;
 8001c70:	4c0d      	ldr	r4, [pc, #52]	; (8001ca8 <HAL_InitTick+0x6c>)
 8001c72:	4b0e      	ldr	r3, [pc, #56]	; (8001cac <HAL_InitTick+0x70>)
  uwPrescalerValue = (uint32_t) ((uwTimclock / 1000000U) - 1U);
 8001c74:	490e      	ldr	r1, [pc, #56]	; (8001cb0 <HAL_InitTick+0x74>)
  htim17.Instance = TIM17;
 8001c76:	6023      	str	r3, [r4, #0]
  + Period = [(TIM17CLK/1000) - 1]. to have a (1/1000) s time base.
  + Prescaler = (uwTimclock/1000000 - 1) to have a 1MHz counter clock.
  + ClockDivision = 0
  + Counter direction = Up
  */
  htim17.Init.Period = (1000000U / 1000U) - 1U;
 8001c78:	4b0e      	ldr	r3, [pc, #56]	; (8001cb4 <HAL_InitTick+0x78>)
 8001c7a:	60e3      	str	r3, [r4, #12]
  uwPrescalerValue = (uint32_t) ((uwTimclock / 1000000U) - 1U);
 8001c7c:	f7fe fa74 	bl	8000168 <__udivsi3>
  htim17.Init.Prescaler = uwPrescalerValue;
  htim17.Init.ClockDivision = 0;
 8001c80:	2300      	movs	r3, #0
  uwPrescalerValue = (uint32_t) ((uwTimclock / 1000000U) - 1U);
 8001c82:	3801      	subs	r0, #1
  htim17.Init.Prescaler = uwPrescalerValue;
 8001c84:	6060      	str	r0, [r4, #4]
  htim17.Init.CounterMode = TIM_COUNTERMODE_UP;

  if(HAL_TIM_Base_Init(&htim17) == HAL_OK)
 8001c86:	0020      	movs	r0, r4
  htim17.Init.ClockDivision = 0;
 8001c88:	6123      	str	r3, [r4, #16]
  htim17.Init.CounterMode = TIM_COUNTERMODE_UP;
 8001c8a:	60a3      	str	r3, [r4, #8]
  if(HAL_TIM_Base_Init(&htim17) == HAL_OK)
 8001c8c:	f002 fdc6 	bl	800481c <HAL_TIM_Base_Init>
 8001c90:	0003      	movs	r3, r0
    /* Start the TIM time Base generation in interrupt mode */
    return HAL_TIM_Base_Start_IT(&htim17);
  }

  /* Return function status */
  return HAL_ERROR;
 8001c92:	2001      	movs	r0, #1
  if(HAL_TIM_Base_Init(&htim17) == HAL_OK)
 8001c94:	2b00      	cmp	r3, #0
 8001c96:	d102      	bne.n	8001c9e <HAL_InitTick+0x62>
    return HAL_TIM_Base_Start_IT(&htim17);
 8001c98:	0020      	movs	r0, r4
 8001c9a:	f002 fca3 	bl	80045e4 <HAL_TIM_Base_Start_IT>
}
 8001c9e:	b006      	add	sp, #24
 8001ca0:	bd10      	pop	{r4, pc}
 8001ca2:	46c0      	nop			; (mov r8, r8)
 8001ca4:	40021000 	.word	0x40021000
 8001ca8:	20000888 	.word	0x20000888
 8001cac:	40014800 	.word	0x40014800
 8001cb0:	000f4240 	.word	0x000f4240
 8001cb4:	000003e7 	.word	0x000003e7

08001cb8 <NMI_Handler>:
{
  /* USER CODE BEGIN NonMaskableInt_IRQn 0 */

  /* USER CODE END NonMaskableInt_IRQn 0 */
  /* USER CODE BEGIN NonMaskableInt_IRQn 1 */
  while (1)
 8001cb8:	e7fe      	b.n	8001cb8 <NMI_Handler>

08001cba <HardFault_Handler>:
void HardFault_Handler(void)
{
  /* USER CODE BEGIN HardFault_IRQn 0 */

  /* USER CODE END HardFault_IRQn 0 */
  while (1)
 8001cba:	e7fe      	b.n	8001cba <HardFault_Handler>

08001cbc <SVC_Handler>:

  /* USER CODE END SVC_IRQn 0 */
  /* USER CODE BEGIN SVC_IRQn 1 */

  /* USER CODE END SVC_IRQn 1 */
}
 8001cbc:	4770      	bx	lr

08001cbe <PendSV_Handler>:
 8001cbe:	4770      	bx	lr

08001cc0 <SysTick_Handler>:
 8001cc0:	4770      	bx	lr
	...

08001cc4 <TIM17_IRQHandler>:

/**
  * @brief This function handles TIM17 global interrupt.
  */
void TIM17_IRQHandler(void)
{
 8001cc4:	b510      	push	{r4, lr}
  /* USER CODE BEGIN TIM17_IRQn 0 */

  /* USER CODE END TIM17_IRQn 0 */
  HAL_TIM_IRQHandler(&htim17);
 8001cc6:	4802      	ldr	r0, [pc, #8]	; (8001cd0 <TIM17_IRQHandler+0xc>)
 8001cc8:	f002 fcbc 	bl	8004644 <HAL_TIM_IRQHandler>
  /* USER CODE BEGIN TIM17_IRQn 1 */

  /* USER CODE END TIM17_IRQn 1 */
}
 8001ccc:	bd10      	pop	{r4, pc}
 8001cce:	46c0      	nop			; (mov r8, r8)
 8001cd0:	20000888 	.word	0x20000888

08001cd4 <SPI1_IRQHandler>:

/**
  * @brief This function handles SPI1 global interrupt.
  */
void SPI1_IRQHandler(void)
{
 8001cd4:	b510      	push	{r4, lr}
  /* USER CODE BEGIN SPI1_IRQn 0 */

  /* USER CODE END SPI1_IRQn 0 */
  HAL_SPI_IRQHandler(&hspi1);
 8001cd6:	4802      	ldr	r0, [pc, #8]	; (8001ce0 <SPI1_IRQHandler+0xc>)
 8001cd8:	f002 fbe8 	bl	80044ac <HAL_SPI_IRQHandler>
  /* USER CODE BEGIN SPI1_IRQn 1 */

  /* USER CODE END SPI1_IRQn 1 */
}
 8001cdc:	bd10      	pop	{r4, pc}
 8001cde:	46c0      	nop			; (mov r8, r8)
 8001ce0:	200007e4 	.word	0x200007e4

08001ce4 <USB_IRQHandler>:

/**
  * @brief This function handles USB global Interrupt / USB wake-up interrupt through EXTI line 18.
  */
void USB_IRQHandler(void)
{
 8001ce4:	b510      	push	{r4, lr}
  /* USER CODE BEGIN USB_IRQn 0 */

  /* USER CODE END USB_IRQn 0 */
  HAL_PCD_IRQHandler(&hpcd_USB_FS);
 8001ce6:	4802      	ldr	r0, [pc, #8]	; (8001cf0 <USB_IRQHandler+0xc>)
 8001ce8:	f000 fd88 	bl	80027fc <HAL_PCD_IRQHandler>
  /* USER CODE BEGIN USB_IRQn 1 */

  /* USER CODE END USB_IRQn 1 */
}
 8001cec:	bd10      	pop	{r4, pc}
 8001cee:	46c0      	nop			; (mov r8, r8)
 8001cf0:	20000fbc 	.word	0x20000fbc

08001cf4 <_sbrk>:
void *_sbrk(ptrdiff_t incr)
{
  extern uint8_t _end; /* Symbol defined in the linker script */
  extern uint8_t _estack; /* Symbol defined in the linker script */
  extern uint32_t _Min_Stack_Size; /* Symbol defined in the linker script */
  const uint32_t stack_limit = (uint32_t)&_estack - (uint32_t)&_Min_Stack_Size;
 8001cf4:	4a0b      	ldr	r2, [pc, #44]	; (8001d24 <_sbrk+0x30>)
 8001cf6:	490c      	ldr	r1, [pc, #48]	; (8001d28 <_sbrk+0x34>)
{
 8001cf8:	0003      	movs	r3, r0
  const uint32_t stack_limit = (uint32_t)&_estack - (uint32_t)&_Min_Stack_Size;
 8001cfa:	1a89      	subs	r1, r1, r2
  const uint8_t *max_heap = (uint8_t *)stack_limit;
  uint8_t *prev_heap_end;

  /* Initialize heap end at first call */
  if (NULL == __sbrk_heap_end)
 8001cfc:	4a0b      	ldr	r2, [pc, #44]	; (8001d2c <_sbrk+0x38>)
{
 8001cfe:	b510      	push	{r4, lr}
  if (NULL == __sbrk_heap_end)
 8001d00:	6810      	ldr	r0, [r2, #0]
 8001d02:	2800      	cmp	r0, #0
 8001d04:	d101      	bne.n	8001d0a <_sbrk+0x16>
  {
    __sbrk_heap_end = &_end;
 8001d06:	480a      	ldr	r0, [pc, #40]	; (8001d30 <_sbrk+0x3c>)
 8001d08:	6010      	str	r0, [r2, #0]
  }

  /* Protect heap from growing into the reserved MSP stack */
  if (__sbrk_heap_end + incr > max_heap)
 8001d0a:	6810      	ldr	r0, [r2, #0]
 8001d0c:	18c3      	adds	r3, r0, r3
 8001d0e:	428b      	cmp	r3, r1
 8001d10:	d906      	bls.n	8001d20 <_sbrk+0x2c>
  {
    errno = ENOMEM;
 8001d12:	f004 fad3 	bl	80062bc <__errno>
 8001d16:	230c      	movs	r3, #12
 8001d18:	6003      	str	r3, [r0, #0]
    return (void *)-1;
 8001d1a:	2001      	movs	r0, #1
 8001d1c:	4240      	negs	r0, r0

  prev_heap_end = __sbrk_heap_end;
  __sbrk_heap_end += incr;

  return (void *)prev_heap_end;
}
 8001d1e:	bd10      	pop	{r4, pc}
  __sbrk_heap_end += incr;
 8001d20:	6013      	str	r3, [r2, #0]
  return (void *)prev_heap_end;
 8001d22:	e7fc      	b.n	8001d1e <_sbrk+0x2a>
 8001d24:	00000325 	.word	0x00000325
 8001d28:	20001800 	.word	0x20001800
 8001d2c:	20000244 	.word	0x20000244
 8001d30:	200012c0 	.word	0x200012c0

08001d34 <SystemInit>:
                         before branch to main program. This call is made inside
                         the "startup_stm32f0xx.s" file.
                         User can setups the default system clock (System clock source, PLL Multiplier
                         and Divider factors, AHB/APBx prescalers and Flash settings).
   */
}
 8001d34:	4770      	bx	lr
	...

08001d38 <Reset_Handler>:

  .section .text.Reset_Handler
  .weak Reset_Handler
  .type Reset_Handler, %function
Reset_Handler:
  ldr   r0, =_estack
 8001d38:	480d      	ldr	r0, [pc, #52]	; (8001d70 <LoopForever+0x2>)
  mov   sp, r0          /* set stack pointer */
 8001d3a:	4685      	mov	sp, r0

/* Copy the data segment initializers from flash to SRAM */
  ldr r0, =_sdata
 8001d3c:	480d      	ldr	r0, [pc, #52]	; (8001d74 <LoopForever+0x6>)
  ldr r1, =_edata
 8001d3e:	490e      	ldr	r1, [pc, #56]	; (8001d78 <LoopForever+0xa>)
  ldr r2, =_sidata
 8001d40:	4a0e      	ldr	r2, [pc, #56]	; (8001d7c <LoopForever+0xe>)
  movs r3, #0
 8001d42:	2300      	movs	r3, #0
  b LoopCopyDataInit
 8001d44:	e002      	b.n	8001d4c <LoopCopyDataInit>

08001d46 <CopyDataInit>:

CopyDataInit:
  ldr r4, [r2, r3]
 8001d46:	58d4      	ldr	r4, [r2, r3]
  str r4, [r0, r3]
 8001d48:	50c4      	str	r4, [r0, r3]
  adds r3, r3, #4
 8001d4a:	3304      	adds	r3, #4

08001d4c <LoopCopyDataInit>:

LoopCopyDataInit:
  adds r4, r0, r3
 8001d4c:	18c4      	adds	r4, r0, r3
  cmp r4, r1
 8001d4e:	428c      	cmp	r4, r1
  bcc CopyDataInit
 8001d50:	d3f9      	bcc.n	8001d46 <CopyDataInit>
  
/* Zero fill the bss segment. */
  ldr r2, =_sbss
 8001d52:	4a0b      	ldr	r2, [pc, #44]	; (8001d80 <LoopForever+0x12>)
  ldr r4, =_ebss
 8001d54:	4c0b      	ldr	r4, [pc, #44]	; (8001d84 <LoopForever+0x16>)
  movs r3, #0
 8001d56:	2300      	movs	r3, #0
  b LoopFillZerobss
 8001d58:	e001      	b.n	8001d5e <LoopFillZerobss>

08001d5a <FillZerobss>:

FillZerobss:
  str  r3, [r2]
 8001d5a:	6013      	str	r3, [r2, #0]
  adds r2, r2, #4
 8001d5c:	3204      	adds	r2, #4

08001d5e <LoopFillZerobss>:

LoopFillZerobss:
  cmp r2, r4
 8001d5e:	42a2      	cmp	r2, r4
  bcc FillZerobss
 8001d60:	d3fb      	bcc.n	8001d5a <FillZerobss>

/* Call the clock system intitialization function.*/
  bl  SystemInit
 8001d62:	f7ff ffe7 	bl	8001d34 <SystemInit>
/* Call static constructors */
  bl __libc_init_array
 8001d66:	f004 faaf 	bl	80062c8 <__libc_init_array>
/* Call the application's entry point.*/
  bl main
 8001d6a:	f7ff f80d 	bl	8000d88 <main>

08001d6e <LoopForever>:

LoopForever:
    b LoopForever
 8001d6e:	e7fe      	b.n	8001d6e <LoopForever>
  ldr   r0, =_estack
 8001d70:	20001800 	.word	0x20001800
  ldr r0, =_sdata
 8001d74:	20000000 	.word	0x20000000
  ldr r1, =_edata
 8001d78:	20000224 	.word	0x20000224
  ldr r2, =_sidata
 8001d7c:	08007374 	.word	0x08007374
  ldr r2, =_sbss
 8001d80:	20000228 	.word	0x20000228
  ldr r4, =_ebss
 8001d84:	200012c0 	.word	0x200012c0

08001d88 <ADC1_IRQHandler>:
 * @retval : None
*/
    .section .text.Default_Handler,"ax",%progbits
Default_Handler:
Infinite_Loop:
  b Infinite_Loop
 8001d88:	e7fe      	b.n	8001d88 <ADC1_IRQHandler>
	...

08001d8c <HAL_Init>:
  */
HAL_StatusTypeDef HAL_Init(void)
{
  /* Configure Flash prefetch */ 
#if (PREFETCH_ENABLE != 0)
  __HAL_FLASH_PREFETCH_BUFFER_ENABLE();
 8001d8c:	2310      	movs	r3, #16
 8001d8e:	4a06      	ldr	r2, [pc, #24]	; (8001da8 <HAL_Init+0x1c>)
{
 8001d90:	b510      	push	{r4, lr}
  __HAL_FLASH_PREFETCH_BUFFER_ENABLE();
 8001d92:	6811      	ldr	r1, [r2, #0]
#endif /* PREFETCH_ENABLE */

  /* Use systick as time base source and configure 1ms tick (default clock after Reset is HSI) */

  HAL_InitTick(TICK_INT_PRIORITY);
 8001d94:	2000      	movs	r0, #0
  __HAL_FLASH_PREFETCH_BUFFER_ENABLE();
 8001d96:	430b      	orrs	r3, r1
 8001d98:	6013      	str	r3, [r2, #0]
  HAL_InitTick(TICK_INT_PRIORITY);
 8001d9a:	f7ff ff4f 	bl	8001c3c <HAL_InitTick>

  /* Init the low level hardware */
  HAL_MspInit();
 8001d9e:	f7ff fe8d 	bl	8001abc <HAL_MspInit>

  /* Return function status */
  return HAL_OK;
}
 8001da2:	2000      	movs	r0, #0
 8001da4:	bd10      	pop	{r4, pc}
 8001da6:	46c0      	nop			; (mov r8, r8)
 8001da8:	40022000 	.word	0x40022000

08001dac <HAL_IncTick>:
  *       implementations in user file.
  * @retval None
  */
__weak void HAL_IncTick(void)
{
  uwTick += uwTickFreq;
 8001dac:	4a03      	ldr	r2, [pc, #12]	; (8001dbc <HAL_IncTick+0x10>)
 8001dae:	4b04      	ldr	r3, [pc, #16]	; (8001dc0 <HAL_IncTick+0x14>)
 8001db0:	6811      	ldr	r1, [r2, #0]
 8001db2:	781b      	ldrb	r3, [r3, #0]
 8001db4:	185b      	adds	r3, r3, r1
 8001db6:	6013      	str	r3, [r2, #0]
}
 8001db8:	4770      	bx	lr
 8001dba:	46c0      	nop			; (mov r8, r8)
 8001dbc:	200008d0 	.word	0x200008d0
 8001dc0:	2000004c 	.word	0x2000004c

08001dc4 <HAL_GetTick>:
  *       implementations in user file.
  * @retval tick value
  */
__weak uint32_t HAL_GetTick(void)
{
  return uwTick;
 8001dc4:	4b01      	ldr	r3, [pc, #4]	; (8001dcc <HAL_GetTick+0x8>)
 8001dc6:	6818      	ldr	r0, [r3, #0]
}
 8001dc8:	4770      	bx	lr
 8001dca:	46c0      	nop			; (mov r8, r8)
 8001dcc:	200008d0 	.word	0x200008d0

08001dd0 <HAL_Delay>:
  *       implementations in user file.
  * @param Delay specifies the delay time length, in milliseconds.
  * @retval None
  */
__weak void HAL_Delay(uint32_t Delay)
{
 8001dd0:	b570      	push	{r4, r5, r6, lr}
 8001dd2:	0004      	movs	r4, r0
  uint32_t tickstart = HAL_GetTick();
 8001dd4:	f7ff fff6 	bl	8001dc4 <HAL_GetTick>
 8001dd8:	0005      	movs	r5, r0
  uint32_t wait = Delay;
  
  /* Add a freq to guarantee minimum wait */
  if (wait < HAL_MAX_DELAY)
 8001dda:	1c63      	adds	r3, r4, #1
 8001ddc:	d002      	beq.n	8001de4 <HAL_Delay+0x14>
  {
    wait += (uint32_t)(uwTickFreq);
 8001dde:	4b04      	ldr	r3, [pc, #16]	; (8001df0 <HAL_Delay+0x20>)
 8001de0:	781b      	ldrb	r3, [r3, #0]
 8001de2:	18e4      	adds	r4, r4, r3
  }
  
  while((HAL_GetTick() - tickstart) < wait)
 8001de4:	f7ff ffee 	bl	8001dc4 <HAL_GetTick>
 8001de8:	1b40      	subs	r0, r0, r5
 8001dea:	42a0      	cmp	r0, r4
 8001dec:	d3fa      	bcc.n	8001de4 <HAL_Delay+0x14>
  {
  }
}
 8001dee:	bd70      	pop	{r4, r5, r6, pc}
 8001df0:	2000004c 	.word	0x2000004c

08001df4 <HAL_ADC_Init>:
  *         of structure "ADC_InitTypeDef".
  * @param  hadc ADC handle
  * @retval HAL status
  */
HAL_StatusTypeDef HAL_ADC_Init(ADC_HandleTypeDef* hadc)
{
 8001df4:	b5f8      	push	{r3, r4, r5, r6, r7, lr}
 8001df6:	0004      	movs	r4, r0
  uint32_t tmpCFGR1 = 0U;

  /* Check ADC handle */
  if(hadc == NULL)
  {
    return HAL_ERROR;
 8001df8:	2001      	movs	r0, #1
  if(hadc == NULL)
 8001dfa:	2c00      	cmp	r4, #0
 8001dfc:	d100      	bne.n	8001e00 <HAL_ADC_Init+0xc>
 8001dfe:	e080      	b.n	8001f02 <HAL_ADC_Init+0x10e>
  /* Refer to header of this file for more details on clock enabling procedure*/
  
  /* Actions performed only if ADC is coming from state reset:                */
  /* - Initialization of ADC MSP                                              */
  /* - ADC voltage regulator enable                                           */
  if (hadc->State == HAL_ADC_STATE_RESET)
 8001e00:	6ba3      	ldr	r3, [r4, #56]	; 0x38
 8001e02:	2b00      	cmp	r3, #0
 8001e04:	d106      	bne.n	8001e14 <HAL_ADC_Init+0x20>
  {
    /* Initialize ADC error code */
    ADC_CLEAR_ERRORCODE(hadc);
    
    /* Allocate lock resource and initialize it */
    hadc->Lock = HAL_UNLOCKED;
 8001e06:	0022      	movs	r2, r4
 8001e08:	3234      	adds	r2, #52	; 0x34
    ADC_CLEAR_ERRORCODE(hadc);
 8001e0a:	63e3      	str	r3, [r4, #60]	; 0x3c
    
    /* Init the low level hardware */
    hadc->MspInitCallback(hadc);
#else
    /* Init the low level hardware */
    HAL_ADC_MspInit(hadc);
 8001e0c:	0020      	movs	r0, r4
    hadc->Lock = HAL_UNLOCKED;
 8001e0e:	7013      	strb	r3, [r2, #0]
    HAL_ADC_MspInit(hadc);
 8001e10:	f7ff fe72 	bl	8001af8 <HAL_ADC_MspInit>
  /* Configuration of ADC parameters if previous preliminary actions are      */ 
  /* correctly completed.                                                     */
  /* and if there is no conversion on going on regular group (ADC can be      */ 
  /* enabled anyway, in case of call of this function to update a parameter   */
  /* on the fly).                                                             */
  if (HAL_IS_BIT_CLR(hadc->State, HAL_ADC_STATE_ERROR_INTERNAL) &&
 8001e14:	6ba3      	ldr	r3, [r4, #56]	; 0x38
 8001e16:	06db      	lsls	r3, r3, #27
 8001e18:	d500      	bpl.n	8001e1c <HAL_ADC_Init+0x28>
 8001e1a:	e087      	b.n	8001f2c <HAL_ADC_Init+0x138>
      (tmp_hal_status == HAL_OK)                                &&
      (ADC_IS_CONVERSION_ONGOING_REGULAR(hadc) == RESET)          )
 8001e1c:	6823      	ldr	r3, [r4, #0]
 8001e1e:	2204      	movs	r2, #4
 8001e20:	6899      	ldr	r1, [r3, #8]
 8001e22:	0008      	movs	r0, r1
 8001e24:	4010      	ands	r0, r2
      (tmp_hal_status == HAL_OK)                                &&
 8001e26:	4211      	tst	r1, r2
 8001e28:	d000      	beq.n	8001e2c <HAL_ADC_Init+0x38>
 8001e2a:	e07f      	b.n	8001f2c <HAL_ADC_Init+0x138>
  {
    /* Set ADC state */
    ADC_STATE_CLR_SET(hadc->State,
 8001e2c:	6ba2      	ldr	r2, [r4, #56]	; 0x38
 8001e2e:	4942      	ldr	r1, [pc, #264]	; (8001f38 <HAL_ADC_Init+0x144>)
 8001e30:	4011      	ands	r1, r2
 8001e32:	2202      	movs	r2, #2
 8001e34:	430a      	orrs	r2, r1
    /* Parameters update conditioned to ADC state:                            */
    /* Parameters that can be updated only when ADC is disabled:              */
    /*  - ADC clock mode                                                      */
    /*  - ADC clock prescaler                                                 */
    /*  - ADC resolution                                                      */
    if (ADC_IS_ENABLE(hadc) == RESET)
 8001e36:	2103      	movs	r1, #3
    ADC_STATE_CLR_SET(hadc->State,
 8001e38:	63a2      	str	r2, [r4, #56]	; 0x38
    if (ADC_IS_ENABLE(hadc) == RESET)
 8001e3a:	689a      	ldr	r2, [r3, #8]
 8001e3c:	400a      	ands	r2, r1
 8001e3e:	2a01      	cmp	r2, #1
 8001e40:	d105      	bne.n	8001e4e <HAL_ADC_Init+0x5a>
 8001e42:	6819      	ldr	r1, [r3, #0]
 8001e44:	4211      	tst	r1, r2
 8001e46:	d10e      	bne.n	8001e66 <HAL_ADC_Init+0x72>
 8001e48:	68da      	ldr	r2, [r3, #12]
 8001e4a:	0412      	lsls	r2, r2, #16
 8001e4c:	d40b      	bmi.n	8001e66 <HAL_ADC_Init+0x72>
      /* parameters):                                                         */
      /*   - internal measurement paths: Vbat, temperature sensor, Vref       */
      /*     (set into HAL_ADC_ConfigChannel() )                              */
     
      /* Configuration of ADC resolution                                      */
      MODIFY_REG(hadc->Instance->CFGR1,
 8001e4e:	2118      	movs	r1, #24
 8001e50:	68da      	ldr	r2, [r3, #12]
 8001e52:	438a      	bics	r2, r1
 8001e54:	68a1      	ldr	r1, [r4, #8]
 8001e56:	430a      	orrs	r2, r1
 8001e58:	60da      	str	r2, [r3, #12]
                 ADC_CFGR1_RES        ,
                 hadc->Init.Resolution );
      
      /* Configuration of ADC clock mode: clock source AHB or HSI with        */
      /* selectable prescaler                                                 */
      MODIFY_REG(hadc->Instance->CFGR2    ,
 8001e5a:	6919      	ldr	r1, [r3, #16]
 8001e5c:	6862      	ldr	r2, [r4, #4]
 8001e5e:	0089      	lsls	r1, r1, #2
 8001e60:	0889      	lsrs	r1, r1, #2
 8001e62:	4311      	orrs	r1, r2
 8001e64:	6119      	str	r1, [r3, #16]
    /*  - external trigger polarity                                           */
    /*  - data alignment                                                      */
    /*  - resolution                                                          */
    /*  - scan direction                                                      */
    /*  - DMA continuous request                                              */
    hadc->Instance->CFGR1 &= ~( ADC_CFGR1_DISCEN  |
 8001e66:	68da      	ldr	r2, [r3, #12]
 8001e68:	4934      	ldr	r1, [pc, #208]	; (8001f3c <HAL_ADC_Init+0x148>)
 8001e6a:	400a      	ands	r2, r1
 8001e6c:	60da      	str	r2, [r3, #12]
                                ADC_CFGR1_EXTEN   |
                                ADC_CFGR1_ALIGN   |
                                ADC_CFGR1_SCANDIR |
                                ADC_CFGR1_DMACFG   );

    tmpCFGR1 |= (ADC_CFGR1_AUTOWAIT((uint32_t)hadc->Init.LowPowerAutoWait)        |
 8001e6e:	7e25      	ldrb	r5, [r4, #24]
                 ADC_CFGR1_AUTOOFF((uint32_t)hadc->Init.LowPowerAutoPowerOff)     |
 8001e70:	7e62      	ldrb	r2, [r4, #25]
    tmpCFGR1 |= (ADC_CFGR1_AUTOWAIT((uint32_t)hadc->Init.LowPowerAutoWait)        |
 8001e72:	03ad      	lsls	r5, r5, #14
                 ADC_CFGR1_AUTOOFF((uint32_t)hadc->Init.LowPowerAutoPowerOff)     |
 8001e74:	03d2      	lsls	r2, r2, #15
    tmpCFGR1 |= (ADC_CFGR1_AUTOWAIT((uint32_t)hadc->Init.LowPowerAutoWait)        |
 8001e76:	4315      	orrs	r5, r2
                 ADC_CFGR1_CONTINUOUS((uint32_t)hadc->Init.ContinuousConvMode)    |
                 ADC_CFGR1_OVERRUN(hadc->Init.Overrun)                            |
 8001e78:	6aa2      	ldr	r2, [r4, #40]	; 0x28
                 ADC_CFGR1_CONTINUOUS((uint32_t)hadc->Init.ContinuousConvMode)    |
 8001e7a:	7ea1      	ldrb	r1, [r4, #26]
                 ADC_CFGR1_OVERRUN(hadc->Init.Overrun)                            |
 8001e7c:	3a01      	subs	r2, #1
 8001e7e:	1e56      	subs	r6, r2, #1
 8001e80:	41b2      	sbcs	r2, r6
 8001e82:	0316      	lsls	r6, r2, #12
 8001e84:	68e2      	ldr	r2, [r4, #12]
                 ADC_CFGR1_CONTINUOUS((uint32_t)hadc->Init.ContinuousConvMode)    |
 8001e86:	034f      	lsls	r7, r1, #13
 8001e88:	4315      	orrs	r5, r2
                 hadc->Init.DataAlign                                             |
                 ADC_SCANDIR(hadc->Init.ScanConvMode)                             |
 8001e8a:	6922      	ldr	r2, [r4, #16]
 8001e8c:	432f      	orrs	r7, r5
 8001e8e:	2a02      	cmp	r2, #2
 8001e90:	d100      	bne.n	8001e94 <HAL_ADC_Init+0xa0>
 8001e92:	2004      	movs	r0, #4
                 ADC_CFGR1_DMACONTREQ((uint32_t)hadc->Init.DMAContinuousRequests)  );
 8001e94:	1d62      	adds	r2, r4, #5
 8001e96:	7fd2      	ldrb	r2, [r2, #31]
 8001e98:	0052      	lsls	r2, r2, #1
                 ADC_SCANDIR(hadc->Init.ScanConvMode)                             |
 8001e9a:	433a      	orrs	r2, r7
 8001e9c:	4332      	orrs	r2, r6
 8001e9e:	4302      	orrs	r2, r0
    
    /* Enable discontinuous mode only if continuous mode is disabled */
    if (hadc->Init.DiscontinuousConvMode == ENABLE)
 8001ea0:	7ee0      	ldrb	r0, [r4, #27]
 8001ea2:	2801      	cmp	r0, #1
 8001ea4:	d104      	bne.n	8001eb0 <HAL_ADC_Init+0xbc>
    {
      if (hadc->Init.ContinuousConvMode == DISABLE)
 8001ea6:	2900      	cmp	r1, #0
 8001ea8:	d12c      	bne.n	8001f04 <HAL_ADC_Init+0x110>
      {
        /* Enable the selected ADC group regular discontinuous mode */
        tmpCFGR1 |= ADC_CFGR1_DISCEN;
 8001eaa:	2180      	movs	r1, #128	; 0x80
 8001eac:	0249      	lsls	r1, r1, #9
 8001eae:	430a      	orrs	r2, r1
    /* Enable external trigger if trigger selection is different of software  */
    /* start.                                                                 */
    /* Note: This configuration keeps the hardware feature of parameter       */
    /*       ExternalTrigConvEdge "trigger edge none" equivalent to           */
    /*       software start.                                                  */
    if (hadc->Init.ExternalTrigConv != ADC_SOFTWARE_START)
 8001eb0:	20c2      	movs	r0, #194	; 0xc2
 8001eb2:	69e1      	ldr	r1, [r4, #28]
 8001eb4:	30ff      	adds	r0, #255	; 0xff
 8001eb6:	4281      	cmp	r1, r0
 8001eb8:	d002      	beq.n	8001ec0 <HAL_ADC_Init+0xcc>
    {
      tmpCFGR1 |= ( hadc->Init.ExternalTrigConv    |
 8001eba:	6a20      	ldr	r0, [r4, #32]
 8001ebc:	4301      	orrs	r1, r0
 8001ebe:	430a      	orrs	r2, r1
    /* Management of parameters "SamplingTimeCommon" and "SamplingTime"       */
    /* (obsolete): sampling time set in this function if parameter            */
    /*  "SamplingTimeCommon" has been set to a valid sampling time.           */
    /* Otherwise, sampling time is set into ADC channel initialization        */
    /* structure with parameter "SamplingTime" (obsolete).                    */
    if (IS_ADC_SAMPLE_TIME(hadc->Init.SamplingTimeCommon))
 8001ec0:	2080      	movs	r0, #128	; 0x80
    hadc->Instance->CFGR1 |= tmpCFGR1;
 8001ec2:	68d9      	ldr	r1, [r3, #12]
    if (IS_ADC_SAMPLE_TIME(hadc->Init.SamplingTimeCommon))
 8001ec4:	0540      	lsls	r0, r0, #21
    hadc->Instance->CFGR1 |= tmpCFGR1;
 8001ec6:	4311      	orrs	r1, r2
 8001ec8:	60d9      	str	r1, [r3, #12]
    if (IS_ADC_SAMPLE_TIME(hadc->Init.SamplingTimeCommon))
 8001eca:	6ae1      	ldr	r1, [r4, #44]	; 0x2c
 8001ecc:	4281      	cmp	r1, r0
 8001ece:	d002      	beq.n	8001ed6 <HAL_ADC_Init+0xe2>
 8001ed0:	1e48      	subs	r0, r1, #1
 8001ed2:	2806      	cmp	r0, #6
 8001ed4:	d807      	bhi.n	8001ee6 <HAL_ADC_Init+0xf2>
    {
      /* Channel sampling time configuration */
      /* Clear the old sample time */
      hadc->Instance->SMPR &= ~(ADC_SMPR_SMP);
 8001ed6:	2507      	movs	r5, #7
 8001ed8:	6958      	ldr	r0, [r3, #20]
      
      /* Set the new sample time */
      hadc->Instance->SMPR |= ADC_SMPR_SET(hadc->Init.SamplingTimeCommon);
 8001eda:	4029      	ands	r1, r5
      hadc->Instance->SMPR &= ~(ADC_SMPR_SMP);
 8001edc:	43a8      	bics	r0, r5
 8001ede:	6158      	str	r0, [r3, #20]
      hadc->Instance->SMPR |= ADC_SMPR_SET(hadc->Init.SamplingTimeCommon);
 8001ee0:	6958      	ldr	r0, [r3, #20]
 8001ee2:	4301      	orrs	r1, r0
 8001ee4:	6159      	str	r1, [r3, #20]
    /* Check back that ADC registers have effectively been configured to      */
    /* ensure of no potential problem of ADC core IP clocking.                */
    /* Check through register CFGR1 (excluding analog watchdog configuration: */
    /* set into separate dedicated function, and bits of ADC resolution set   */
    /* out of temporary variable 'tmpCFGR1').                                 */
    if ((hadc->Instance->CFGR1 & ~(ADC_CFGR1_AWDCH | ADC_CFGR1_AWDEN | ADC_CFGR1_AWDSGL | ADC_CFGR1_RES))
 8001ee6:	68db      	ldr	r3, [r3, #12]
 8001ee8:	4915      	ldr	r1, [pc, #84]	; (8001f40 <HAL_ADC_Init+0x14c>)
 8001eea:	400b      	ands	r3, r1
 8001eec:	4293      	cmp	r3, r2
 8001eee:	d111      	bne.n	8001f14 <HAL_ADC_Init+0x120>
         == tmpCFGR1)
    {
      /* Set ADC error code to none */
      ADC_CLEAR_ERRORCODE(hadc);
 8001ef0:	2000      	movs	r0, #0
      
      /* Set the ADC state */
      ADC_STATE_CLR_SET(hadc->State,
 8001ef2:	2203      	movs	r2, #3
      ADC_CLEAR_ERRORCODE(hadc);
 8001ef4:	63e0      	str	r0, [r4, #60]	; 0x3c
      ADC_STATE_CLR_SET(hadc->State,
 8001ef6:	6ba3      	ldr	r3, [r4, #56]	; 0x38
 8001ef8:	4393      	bics	r3, r2
 8001efa:	001a      	movs	r2, r3
 8001efc:	2301      	movs	r3, #1
 8001efe:	4313      	orrs	r3, r2
 8001f00:	63a3      	str	r3, [r4, #56]	; 0x38
    tmp_hal_status = HAL_ERROR;
  }
  
  /* Return function status */
  return tmp_hal_status;
}
 8001f02:	bdf8      	pop	{r3, r4, r5, r6, r7, pc}
        SET_BIT(hadc->State, HAL_ADC_STATE_ERROR_CONFIG);
 8001f04:	2120      	movs	r1, #32
 8001f06:	6ba5      	ldr	r5, [r4, #56]	; 0x38
 8001f08:	4329      	orrs	r1, r5
 8001f0a:	63a1      	str	r1, [r4, #56]	; 0x38
        SET_BIT(hadc->ErrorCode, HAL_ADC_ERROR_INTERNAL);
 8001f0c:	6be1      	ldr	r1, [r4, #60]	; 0x3c
 8001f0e:	4308      	orrs	r0, r1
 8001f10:	63e0      	str	r0, [r4, #60]	; 0x3c
 8001f12:	e7cd      	b.n	8001eb0 <HAL_ADC_Init+0xbc>
      ADC_STATE_CLR_SET(hadc->State,
 8001f14:	2212      	movs	r2, #18
 8001f16:	6ba3      	ldr	r3, [r4, #56]	; 0x38
      SET_BIT(hadc->ErrorCode, HAL_ADC_ERROR_INTERNAL);
 8001f18:	2001      	movs	r0, #1
      ADC_STATE_CLR_SET(hadc->State,
 8001f1a:	4393      	bics	r3, r2
 8001f1c:	001a      	movs	r2, r3
 8001f1e:	2310      	movs	r3, #16
 8001f20:	4313      	orrs	r3, r2
 8001f22:	63a3      	str	r3, [r4, #56]	; 0x38
      SET_BIT(hadc->ErrorCode, HAL_ADC_ERROR_INTERNAL);
 8001f24:	6be3      	ldr	r3, [r4, #60]	; 0x3c
 8001f26:	4303      	orrs	r3, r0
 8001f28:	63e3      	str	r3, [r4, #60]	; 0x3c
      tmp_hal_status = HAL_ERROR;
 8001f2a:	e7ea      	b.n	8001f02 <HAL_ADC_Init+0x10e>
    SET_BIT(hadc->State, HAL_ADC_STATE_ERROR_INTERNAL);
 8001f2c:	2310      	movs	r3, #16
 8001f2e:	6ba2      	ldr	r2, [r4, #56]	; 0x38
    tmp_hal_status = HAL_ERROR;
 8001f30:	2001      	movs	r0, #1
    SET_BIT(hadc->State, HAL_ADC_STATE_ERROR_INTERNAL);
 8001f32:	4313      	orrs	r3, r2
 8001f34:	63a3      	str	r3, [r4, #56]	; 0x38
    tmp_hal_status = HAL_ERROR;
 8001f36:	e7e4      	b.n	8001f02 <HAL_ADC_Init+0x10e>
 8001f38:	fffffefd 	.word	0xfffffefd
 8001f3c:	fffe0219 	.word	0xfffe0219
 8001f40:	833fffe7 	.word	0x833fffe7

08001f44 <HAL_ADC_ConfigChannel>:
  * @param  hadc ADC handle
  * @param  sConfig Structure of ADC channel for regular group.
  * @retval HAL status
  */
HAL_StatusTypeDef HAL_ADC_ConfigChannel(ADC_HandleTypeDef* hadc, ADC_ChannelConfTypeDef* sConfig)
{
 8001f44:	b5f7      	push	{r0, r1, r2, r4, r5, r6, r7, lr}
  HAL_StatusTypeDef tmp_hal_status = HAL_OK;
  __IO uint32_t wait_loop_index = 0U;
 8001f46:	2200      	movs	r2, #0
  {
    assert_param(IS_ADC_SAMPLE_TIME(sConfig->SamplingTime));
  }
  
  /* Process locked */
  __HAL_LOCK(hadc);
 8001f48:	0004      	movs	r4, r0
  __IO uint32_t wait_loop_index = 0U;
 8001f4a:	9201      	str	r2, [sp, #4]
  __HAL_LOCK(hadc);
 8001f4c:	3434      	adds	r4, #52	; 0x34
 8001f4e:	7822      	ldrb	r2, [r4, #0]
{
 8001f50:	0003      	movs	r3, r0
  if (! IS_ADC_SAMPLE_TIME(hadc->Init.SamplingTimeCommon))
 8001f52:	6ac5      	ldr	r5, [r0, #44]	; 0x2c
  __HAL_LOCK(hadc);
 8001f54:	2002      	movs	r0, #2
 8001f56:	2a01      	cmp	r2, #1
 8001f58:	d02a      	beq.n	8001fb0 <HAL_ADC_ConfigChannel+0x6c>
 8001f5a:	3801      	subs	r0, #1
 8001f5c:	7020      	strb	r0, [r4, #0]
  /* Parameters that can be updated when ADC is disabled or enabled without   */
  /* conversion on going on regular group:                                    */
  /*  - Channel number                                                        */
  /*  - Channel sampling time                                                 */
  /*  - Management of internal measurement channels: VrefInt/TempSensor/Vbat  */
  if (ADC_IS_CONVERSION_ONGOING_REGULAR(hadc) == RESET)
 8001f5e:	681a      	ldr	r2, [r3, #0]
 8001f60:	6896      	ldr	r6, [r2, #8]
 8001f62:	0776      	lsls	r6, r6, #29
 8001f64:	d45f      	bmi.n	8002026 <HAL_ADC_ConfigChannel+0xe2>
  {
    /* Configure channel: depending on rank setting, add it or remove it from */
    /* ADC conversion sequencer.                                              */
    if (sConfig->Rank != ADC_RANK_NONE)
 8001f66:	680b      	ldr	r3, [r1, #0]
 8001f68:	4f31      	ldr	r7, [pc, #196]	; (8002030 <HAL_ADC_ConfigChannel+0xec>)
 8001f6a:	001e      	movs	r6, r3
 8001f6c:	46bc      	mov	ip, r7
 8001f6e:	684f      	ldr	r7, [r1, #4]
 8001f70:	4098      	lsls	r0, r3
 8001f72:	3e10      	subs	r6, #16
 8001f74:	4567      	cmp	r7, ip
 8001f76:	d03f      	beq.n	8001ff8 <HAL_ADC_ConfigChannel+0xb4>
    {
      /* Regular sequence configuration */
      /* Set the channel selection register from the selected channel */
      hadc->Instance->CHSELR |= ADC_CHSELR_CHANNEL(sConfig->Channel);
 8001f78:	6a97      	ldr	r7, [r2, #40]	; 0x28
 8001f7a:	4338      	orrs	r0, r7
 8001f7c:	6290      	str	r0, [r2, #40]	; 0x28
      /* Channel sampling time configuration */
      /* Management of parameters "SamplingTimeCommon" and "SamplingTime"     */
      /* (obsolete): sampling time set in this function with                  */
      /* parameter "SamplingTime" (obsolete) only if not already set into     */
      /* ADC initialization structure with parameter "SamplingTimeCommon".    */
      if (! IS_ADC_SAMPLE_TIME(hadc->Init.SamplingTimeCommon))
 8001f7e:	2080      	movs	r0, #128	; 0x80
 8001f80:	0540      	lsls	r0, r0, #21
 8001f82:	4285      	cmp	r5, r0
 8001f84:	d00f      	beq.n	8001fa6 <HAL_ADC_ConfigChannel+0x62>
 8001f86:	3d01      	subs	r5, #1
 8001f88:	2d06      	cmp	r5, #6
 8001f8a:	d90c      	bls.n	8001fa6 <HAL_ADC_ConfigChannel+0x62>
      {
        /* Modify sampling time if needed (not needed in case of reoccurrence */
        /* for several channels programmed consecutively into the sequencer)  */
        if (sConfig->SamplingTime != ADC_GET_SAMPLINGTIME(hadc))
 8001f8c:	2007      	movs	r0, #7
 8001f8e:	6955      	ldr	r5, [r2, #20]
 8001f90:	6889      	ldr	r1, [r1, #8]
 8001f92:	4005      	ands	r5, r0
 8001f94:	42a9      	cmp	r1, r5
 8001f96:	d006      	beq.n	8001fa6 <HAL_ADC_ConfigChannel+0x62>
        {
          /* Channel sampling time configuration */
          /* Clear the old sample time */
          hadc->Instance->SMPR &= ~(ADC_SMPR_SMP);
 8001f98:	6955      	ldr	r5, [r2, #20]
          
          /* Set the new sample time */
          hadc->Instance->SMPR |= ADC_SMPR_SET(sConfig->SamplingTime);
 8001f9a:	4001      	ands	r1, r0
          hadc->Instance->SMPR &= ~(ADC_SMPR_SMP);
 8001f9c:	4385      	bics	r5, r0
 8001f9e:	6155      	str	r5, [r2, #20]
          hadc->Instance->SMPR |= ADC_SMPR_SET(sConfig->SamplingTime);
 8001fa0:	6955      	ldr	r5, [r2, #20]
 8001fa2:	4329      	orrs	r1, r5
 8001fa4:	6151      	str	r1, [r2, #20]
      /* internal measurement paths enable: If internal channel selected,     */
      /* enable dedicated internal buffers and path.                          */
      /* Note: these internal measurement paths can be disabled using         */
      /*       HAL_ADC_DeInit() or removing the channel from sequencer with   */
      /*       channel configuration parameter "Rank".                        */
      if(ADC_IS_CHANNEL_INTERNAL(sConfig->Channel))
 8001fa6:	2e02      	cmp	r6, #2
 8001fa8:	d903      	bls.n	8001fb2 <HAL_ADC_ConfigChannel+0x6e>
  HAL_StatusTypeDef tmp_hal_status = HAL_OK;
 8001faa:	2000      	movs	r0, #0
    
    tmp_hal_status = HAL_ERROR;
  }
  
  /* Process unlocked */
  __HAL_UNLOCK(hadc);
 8001fac:	2300      	movs	r3, #0
 8001fae:	7023      	strb	r3, [r4, #0]
  
  /* Return function status */
  return tmp_hal_status;
}
 8001fb0:	bdfe      	pop	{r1, r2, r3, r4, r5, r6, r7, pc}
        ADC->CCR |= ADC_CHANNEL_INTERNAL_PATH(sConfig->Channel);
 8001fb2:	4820      	ldr	r0, [pc, #128]	; (8002034 <HAL_ADC_ConfigChannel+0xf0>)
 8001fb4:	6805      	ldr	r5, [r0, #0]
 8001fb6:	2b10      	cmp	r3, #16
 8001fb8:	d01b      	beq.n	8001ff2 <HAL_ADC_ConfigChannel+0xae>
 8001fba:	0019      	movs	r1, r3
 8001fbc:	3911      	subs	r1, #17
 8001fbe:	424a      	negs	r2, r1
 8001fc0:	4151      	adcs	r1, r2
 8001fc2:	424a      	negs	r2, r1
 8001fc4:	491c      	ldr	r1, [pc, #112]	; (8002038 <HAL_ADC_ConfigChannel+0xf4>)
 8001fc6:	400a      	ands	r2, r1
 8001fc8:	2180      	movs	r1, #128	; 0x80
 8001fca:	0449      	lsls	r1, r1, #17
 8001fcc:	1852      	adds	r2, r2, r1
 8001fce:	432a      	orrs	r2, r5
 8001fd0:	6002      	str	r2, [r0, #0]
        if (sConfig->Channel == ADC_CHANNEL_TEMPSENSOR)
 8001fd2:	2b10      	cmp	r3, #16
 8001fd4:	d1e9      	bne.n	8001faa <HAL_ADC_ConfigChannel+0x66>
          wait_loop_index = (ADC_TEMPSENSOR_DELAY_US * (SystemCoreClock / 1000000U));
 8001fd6:	4b19      	ldr	r3, [pc, #100]	; (800203c <HAL_ADC_ConfigChannel+0xf8>)
 8001fd8:	4919      	ldr	r1, [pc, #100]	; (8002040 <HAL_ADC_ConfigChannel+0xfc>)
 8001fda:	6818      	ldr	r0, [r3, #0]
 8001fdc:	f7fe f8c4 	bl	8000168 <__udivsi3>
 8001fe0:	230a      	movs	r3, #10
 8001fe2:	4343      	muls	r3, r0
            wait_loop_index--;
 8001fe4:	9301      	str	r3, [sp, #4]
          while(wait_loop_index != 0U)
 8001fe6:	9b01      	ldr	r3, [sp, #4]
 8001fe8:	2b00      	cmp	r3, #0
 8001fea:	d0de      	beq.n	8001faa <HAL_ADC_ConfigChannel+0x66>
            wait_loop_index--;
 8001fec:	9b01      	ldr	r3, [sp, #4]
 8001fee:	3b01      	subs	r3, #1
 8001ff0:	e7f8      	b.n	8001fe4 <HAL_ADC_ConfigChannel+0xa0>
        ADC->CCR |= ADC_CHANNEL_INTERNAL_PATH(sConfig->Channel);
 8001ff2:	2280      	movs	r2, #128	; 0x80
 8001ff4:	0412      	lsls	r2, r2, #16
 8001ff6:	e7ea      	b.n	8001fce <HAL_ADC_ConfigChannel+0x8a>
      hadc->Instance->CHSELR &= ~ADC_CHSELR_CHANNEL(sConfig->Channel);
 8001ff8:	6a91      	ldr	r1, [r2, #40]	; 0x28
 8001ffa:	4381      	bics	r1, r0
 8001ffc:	6291      	str	r1, [r2, #40]	; 0x28
      if(ADC_IS_CHANNEL_INTERNAL(sConfig->Channel))
 8001ffe:	2e02      	cmp	r6, #2
 8002000:	d8d3      	bhi.n	8001faa <HAL_ADC_ConfigChannel+0x66>
        ADC->CCR &= ~ADC_CHANNEL_INTERNAL_PATH(sConfig->Channel);
 8002002:	490c      	ldr	r1, [pc, #48]	; (8002034 <HAL_ADC_ConfigChannel+0xf0>)
 8002004:	6808      	ldr	r0, [r1, #0]
 8002006:	2b10      	cmp	r3, #16
 8002008:	d00b      	beq.n	8002022 <HAL_ADC_ConfigChannel+0xde>
 800200a:	3b11      	subs	r3, #17
 800200c:	425a      	negs	r2, r3
 800200e:	415a      	adcs	r2, r3
 8002010:	4253      	negs	r3, r2
 8002012:	22c0      	movs	r2, #192	; 0xc0
 8002014:	0412      	lsls	r2, r2, #16
 8002016:	4013      	ands	r3, r2
 8002018:	4a0a      	ldr	r2, [pc, #40]	; (8002044 <HAL_ADC_ConfigChannel+0x100>)
 800201a:	189b      	adds	r3, r3, r2
 800201c:	4003      	ands	r3, r0
 800201e:	600b      	str	r3, [r1, #0]
 8002020:	e7c3      	b.n	8001faa <HAL_ADC_ConfigChannel+0x66>
 8002022:	4b09      	ldr	r3, [pc, #36]	; (8002048 <HAL_ADC_ConfigChannel+0x104>)
 8002024:	e7fa      	b.n	800201c <HAL_ADC_ConfigChannel+0xd8>
    SET_BIT(hadc->State, HAL_ADC_STATE_ERROR_CONFIG);
 8002026:	2220      	movs	r2, #32
 8002028:	6b99      	ldr	r1, [r3, #56]	; 0x38
 800202a:	430a      	orrs	r2, r1
 800202c:	639a      	str	r2, [r3, #56]	; 0x38
    tmp_hal_status = HAL_ERROR;
 800202e:	e7bd      	b.n	8001fac <HAL_ADC_ConfigChannel+0x68>
 8002030:	00001001 	.word	0x00001001
 8002034:	40012708 	.word	0x40012708
 8002038:	ff400000 	.word	0xff400000
 800203c:	20000000 	.word	0x20000000
 8002040:	000f4240 	.word	0x000f4240
 8002044:	feffffff 	.word	0xfeffffff
 8002048:	ff7fffff 	.word	0xff7fffff

0800204c <HAL_NVIC_SetPriority>:
  *         with stm32f0xx devices, this parameter is a dummy value and it is ignored, because 
  *         no subpriority supported in Cortex M0 based products.   
  * @retval None
  */
void HAL_NVIC_SetPriority(IRQn_Type IRQn, uint32_t PreemptPriority, uint32_t SubPriority)
{ 
 800204c:	b530      	push	{r4, r5, lr}
 800204e:	25ff      	movs	r5, #255	; 0xff
 8002050:	2403      	movs	r4, #3
 8002052:	002a      	movs	r2, r5
 8002054:	4004      	ands	r4, r0
 8002056:	00e4      	lsls	r4, r4, #3
 8002058:	40a2      	lsls	r2, r4
 800205a:	0189      	lsls	r1, r1, #6
 800205c:	4029      	ands	r1, r5
 800205e:	43d2      	mvns	r2, r2
 8002060:	40a1      	lsls	r1, r4
 8002062:	b2c3      	uxtb	r3, r0
  \param [in]  priority  Priority to set.
  \note    The priority cannot be set for every processor exception.
 */
__STATIC_INLINE void __NVIC_SetPriority(IRQn_Type IRQn, uint32_t priority)
{
  if ((int32_t)(IRQn) >= 0)
 8002064:	2800      	cmp	r0, #0
 8002066:	db0a      	blt.n	800207e <HAL_NVIC_SetPriority+0x32>
  {
    NVIC->IP[_IP_IDX(IRQn)]  = ((uint32_t)(NVIC->IP[_IP_IDX(IRQn)]  & ~(0xFFUL << _BIT_SHIFT(IRQn))) |
 8002068:	24c0      	movs	r4, #192	; 0xc0
 800206a:	4b0b      	ldr	r3, [pc, #44]	; (8002098 <HAL_NVIC_SetPriority+0x4c>)
 800206c:	0880      	lsrs	r0, r0, #2
 800206e:	0080      	lsls	r0, r0, #2
 8002070:	18c0      	adds	r0, r0, r3
 8002072:	00a4      	lsls	r4, r4, #2
 8002074:	5903      	ldr	r3, [r0, r4]
 8002076:	401a      	ands	r2, r3
 8002078:	4311      	orrs	r1, r2
 800207a:	5101      	str	r1, [r0, r4]
  /* Check the parameters */
  assert_param(IS_NVIC_PREEMPTION_PRIORITY(PreemptPriority));
  NVIC_SetPriority(IRQn,PreemptPriority);
}
 800207c:	bd30      	pop	{r4, r5, pc}
       (((priority << (8U - __NVIC_PRIO_BITS)) & (uint32_t)0xFFUL) << _BIT_SHIFT(IRQn)));
  }
  else
  {
    SCB->SHP[_SHP_IDX(IRQn)] = ((uint32_t)(SCB->SHP[_SHP_IDX(IRQn)] & ~(0xFFUL << _BIT_SHIFT(IRQn))) |
 800207e:	200f      	movs	r0, #15
 8002080:	4003      	ands	r3, r0
 8002082:	3b08      	subs	r3, #8
 8002084:	4805      	ldr	r0, [pc, #20]	; (800209c <HAL_NVIC_SetPriority+0x50>)
 8002086:	089b      	lsrs	r3, r3, #2
 8002088:	009b      	lsls	r3, r3, #2
 800208a:	181b      	adds	r3, r3, r0
 800208c:	69d8      	ldr	r0, [r3, #28]
 800208e:	4002      	ands	r2, r0
 8002090:	4311      	orrs	r1, r2
 8002092:	61d9      	str	r1, [r3, #28]
 8002094:	e7f2      	b.n	800207c <HAL_NVIC_SetPriority+0x30>
 8002096:	46c0      	nop			; (mov r8, r8)
 8002098:	e000e100 	.word	0xe000e100
 800209c:	e000ed00 	.word	0xe000ed00

080020a0 <HAL_NVIC_EnableIRQ>:
  if ((int32_t)(IRQn) >= 0)
 80020a0:	2800      	cmp	r0, #0
 80020a2:	db05      	blt.n	80020b0 <HAL_NVIC_EnableIRQ+0x10>
    NVIC->ISER[0U] = (uint32_t)(1UL << (((uint32_t)IRQn) & 0x1FUL));
 80020a4:	231f      	movs	r3, #31
 80020a6:	4018      	ands	r0, r3
 80020a8:	3b1e      	subs	r3, #30
 80020aa:	4083      	lsls	r3, r0
 80020ac:	4a01      	ldr	r2, [pc, #4]	; (80020b4 <HAL_NVIC_EnableIRQ+0x14>)
 80020ae:	6013      	str	r3, [r2, #0]
  /* Check the parameters */
  assert_param(IS_NVIC_DEVICE_IRQ(IRQn));
  
  /* Enable interrupt */
  NVIC_EnableIRQ(IRQn);
}
 80020b0:	4770      	bx	lr
 80020b2:	46c0      	nop			; (mov r8, r8)
 80020b4:	e000e100 	.word	0xe000e100

080020b8 <HAL_NVIC_DisableIRQ>:
  if ((int32_t)(IRQn) >= 0)
 80020b8:	2800      	cmp	r0, #0
 80020ba:	db09      	blt.n	80020d0 <HAL_NVIC_DisableIRQ+0x18>
    NVIC->ICER[0U] = (uint32_t)(1UL << (((uint32_t)IRQn) & 0x1FUL));
 80020bc:	231f      	movs	r3, #31
 80020be:	4018      	ands	r0, r3
 80020c0:	3b1e      	subs	r3, #30
 80020c2:	4083      	lsls	r3, r0
 80020c4:	4a03      	ldr	r2, [pc, #12]	; (80020d4 <HAL_NVIC_DisableIRQ+0x1c>)
 80020c6:	67d3      	str	r3, [r2, #124]	; 0x7c
  \details Acts as a special kind of Data Memory Barrier.
           It completes when all explicit memory accesses before this instruction complete.
 */
__STATIC_FORCEINLINE void __DSB(void)
{
  __ASM volatile ("dsb 0xF":::"memory");
 80020c8:	f3bf 8f4f 	dsb	sy
  __ASM volatile ("isb 0xF":::"memory");
 80020cc:	f3bf 8f6f 	isb	sy
  /* Check the parameters */
  assert_param(IS_NVIC_DEVICE_IRQ(IRQn));
  
  /* Disable interrupt */
  NVIC_DisableIRQ(IRQn);
}
 80020d0:	4770      	bx	lr
 80020d2:	46c0      	nop			; (mov r8, r8)
 80020d4:	e000e104 	.word	0xe000e104

080020d8 <HAL_DMA_Abort_IT>:
  * @param  hdma  pointer to a DMA_HandleTypeDef structure that contains
  *               the configuration information for the specified DMA Stream.
  * @retval HAL status
  */
HAL_StatusTypeDef HAL_DMA_Abort_IT(DMA_HandleTypeDef *hdma)
{  
 80020d8:	b570      	push	{r4, r5, r6, lr}
  HAL_StatusTypeDef status = HAL_OK;
  
  if(HAL_DMA_STATE_BUSY != hdma->State)
 80020da:	1c84      	adds	r4, r0, #2
 80020dc:	7fe3      	ldrb	r3, [r4, #31]
 80020de:	2b02      	cmp	r3, #2
 80020e0:	d004      	beq.n	80020ec <HAL_DMA_Abort_IT+0x14>
  {
    /* no transfer ongoing */
    hdma->ErrorCode = HAL_DMA_ERROR_NO_XFER;
 80020e2:	2304      	movs	r3, #4
 80020e4:	6383      	str	r3, [r0, #56]	; 0x38
        
    status = HAL_ERROR;
 80020e6:	3b03      	subs	r3, #3
    {
      hdma->XferAbortCallback(hdma);
    } 
  }
  return status;
}
 80020e8:	0018      	movs	r0, r3
 80020ea:	bd70      	pop	{r4, r5, r6, pc}
    hdma->Instance->CCR &= ~(DMA_IT_TC | DMA_IT_HT | DMA_IT_TE);
 80020ec:	210e      	movs	r1, #14
 80020ee:	6803      	ldr	r3, [r0, #0]
    hdma->DmaBaseAddress->IFCR = DMA_FLAG_GL1 << hdma->ChannelIndex;
 80020f0:	6c05      	ldr	r5, [r0, #64]	; 0x40
    hdma->Instance->CCR &= ~(DMA_IT_TC | DMA_IT_HT | DMA_IT_TE);
 80020f2:	681a      	ldr	r2, [r3, #0]
 80020f4:	438a      	bics	r2, r1
 80020f6:	601a      	str	r2, [r3, #0]
    hdma->Instance->CCR &= ~DMA_CCR_EN;
 80020f8:	2201      	movs	r2, #1
 80020fa:	6819      	ldr	r1, [r3, #0]
 80020fc:	4391      	bics	r1, r2
 80020fe:	6019      	str	r1, [r3, #0]
    hdma->DmaBaseAddress->IFCR = DMA_FLAG_GL1 << hdma->ChannelIndex;
 8002100:	0011      	movs	r1, r2
 8002102:	40a9      	lsls	r1, r5
 8002104:	6bc3      	ldr	r3, [r0, #60]	; 0x3c
 8002106:	6059      	str	r1, [r3, #4]
    hdma->State = HAL_DMA_STATE_READY;
 8002108:	77e2      	strb	r2, [r4, #31]
    __HAL_UNLOCK(hdma);
 800210a:	2400      	movs	r4, #0
 800210c:	1883      	adds	r3, r0, r2
 800210e:	77dc      	strb	r4, [r3, #31]
    if(hdma->XferAbortCallback != NULL)
 8002110:	6b42      	ldr	r2, [r0, #52]	; 0x34
  HAL_StatusTypeDef status = HAL_OK;
 8002112:	0013      	movs	r3, r2
    if(hdma->XferAbortCallback != NULL)
 8002114:	42a2      	cmp	r2, r4
 8002116:	d0e7      	beq.n	80020e8 <HAL_DMA_Abort_IT+0x10>
      hdma->XferAbortCallback(hdma);
 8002118:	4790      	blx	r2
  HAL_StatusTypeDef status = HAL_OK;
 800211a:	0023      	movs	r3, r4
 800211c:	e7e4      	b.n	80020e8 <HAL_DMA_Abort_IT+0x10>
	...

08002120 <FLASH_SetErrorCode>:
  */
static void FLASH_SetErrorCode(void)
{
  uint32_t flags = 0U;
  
  if(__HAL_FLASH_GET_FLAG(FLASH_FLAG_WRPERR))
 8002120:	4b0c      	ldr	r3, [pc, #48]	; (8002154 <FLASH_SetErrorCode+0x34>)
 8002122:	2110      	movs	r1, #16
 8002124:	68d8      	ldr	r0, [r3, #12]
{
 8002126:	b530      	push	{r4, r5, lr}
  if(__HAL_FLASH_GET_FLAG(FLASH_FLAG_WRPERR))
 8002128:	0002      	movs	r2, r0
 800212a:	400a      	ands	r2, r1
 800212c:	4208      	tst	r0, r1
 800212e:	d005      	beq.n	800213c <FLASH_SetErrorCode+0x1c>
  {
    pFlash.ErrorCode |= HAL_FLASH_ERROR_WRP;
 8002130:	2202      	movs	r2, #2
 8002132:	4809      	ldr	r0, [pc, #36]	; (8002158 <FLASH_SetErrorCode+0x38>)
 8002134:	69c4      	ldr	r4, [r0, #28]
 8002136:	4322      	orrs	r2, r4
 8002138:	61c2      	str	r2, [r0, #28]
    flags |= FLASH_FLAG_WRPERR;
 800213a:	000a      	movs	r2, r1
  }
  if(__HAL_FLASH_GET_FLAG(FLASH_FLAG_PGERR))
 800213c:	2004      	movs	r0, #4
 800213e:	68d9      	ldr	r1, [r3, #12]
 8002140:	4201      	tst	r1, r0
 8002142:	d005      	beq.n	8002150 <FLASH_SetErrorCode+0x30>
  {
    pFlash.ErrorCode |= HAL_FLASH_ERROR_PROG;
 8002144:	2101      	movs	r1, #1
 8002146:	4c04      	ldr	r4, [pc, #16]	; (8002158 <FLASH_SetErrorCode+0x38>)
    flags |= FLASH_FLAG_PGERR;
 8002148:	4302      	orrs	r2, r0
    pFlash.ErrorCode |= HAL_FLASH_ERROR_PROG;
 800214a:	69e5      	ldr	r5, [r4, #28]
 800214c:	4329      	orrs	r1, r5
 800214e:	61e1      	str	r1, [r4, #28]
  }
  /* Clear FLASH error pending bits */
  __HAL_FLASH_CLEAR_FLAG(flags);
 8002150:	60da      	str	r2, [r3, #12]
}  
 8002152:	bd30      	pop	{r4, r5, pc}
 8002154:	40022000 	.word	0x40022000
 8002158:	200008d8 	.word	0x200008d8

0800215c <HAL_FLASH_Unlock>:
  if(READ_BIT(FLASH->CR, FLASH_CR_LOCK) != RESET)
 800215c:	4b06      	ldr	r3, [pc, #24]	; (8002178 <HAL_FLASH_Unlock+0x1c>)
  HAL_StatusTypeDef status = HAL_OK;
 800215e:	2000      	movs	r0, #0
  if(READ_BIT(FLASH->CR, FLASH_CR_LOCK) != RESET)
 8002160:	691a      	ldr	r2, [r3, #16]
 8002162:	0612      	lsls	r2, r2, #24
 8002164:	d506      	bpl.n	8002174 <HAL_FLASH_Unlock+0x18>
    WRITE_REG(FLASH->KEYR, FLASH_KEY1);
 8002166:	4a05      	ldr	r2, [pc, #20]	; (800217c <HAL_FLASH_Unlock+0x20>)
 8002168:	605a      	str	r2, [r3, #4]
    WRITE_REG(FLASH->KEYR, FLASH_KEY2);
 800216a:	4a05      	ldr	r2, [pc, #20]	; (8002180 <HAL_FLASH_Unlock+0x24>)
 800216c:	605a      	str	r2, [r3, #4]
    if(READ_BIT(FLASH->CR, FLASH_CR_LOCK) != RESET)
 800216e:	6918      	ldr	r0, [r3, #16]
 8002170:	0600      	lsls	r0, r0, #24
  HAL_StatusTypeDef status = HAL_OK;
 8002172:	0fc0      	lsrs	r0, r0, #31
}
 8002174:	4770      	bx	lr
 8002176:	46c0      	nop			; (mov r8, r8)
 8002178:	40022000 	.word	0x40022000
 800217c:	45670123 	.word	0x45670123
 8002180:	cdef89ab 	.word	0xcdef89ab

08002184 <HAL_FLASH_Lock>:
  SET_BIT(FLASH->CR, FLASH_CR_LOCK);
 8002184:	2380      	movs	r3, #128	; 0x80
 8002186:	4a03      	ldr	r2, [pc, #12]	; (8002194 <HAL_FLASH_Lock+0x10>)
}
 8002188:	2000      	movs	r0, #0
  SET_BIT(FLASH->CR, FLASH_CR_LOCK);
 800218a:	6911      	ldr	r1, [r2, #16]
 800218c:	430b      	orrs	r3, r1
 800218e:	6113      	str	r3, [r2, #16]
}
 8002190:	4770      	bx	lr
 8002192:	46c0      	nop			; (mov r8, r8)
 8002194:	40022000 	.word	0x40022000

08002198 <FLASH_WaitForLastOperation>:
{
 8002198:	b570      	push	{r4, r5, r6, lr}
 800219a:	0004      	movs	r4, r0
  uint32_t tickstart = HAL_GetTick();
 800219c:	f7ff fe12 	bl	8001dc4 <HAL_GetTick>
  while(__HAL_FLASH_GET_FLAG(FLASH_FLAG_BSY)) 
 80021a0:	2601      	movs	r6, #1
  uint32_t tickstart = HAL_GetTick();
 80021a2:	0005      	movs	r5, r0
  while(__HAL_FLASH_GET_FLAG(FLASH_FLAG_BSY)) 
 80021a4:	4b11      	ldr	r3, [pc, #68]	; (80021ec <FLASH_WaitForLastOperation+0x54>)
 80021a6:	001a      	movs	r2, r3
 80021a8:	68d9      	ldr	r1, [r3, #12]
 80021aa:	4231      	tst	r1, r6
 80021ac:	d111      	bne.n	80021d2 <FLASH_WaitForLastOperation+0x3a>
  if (__HAL_FLASH_GET_FLAG(FLASH_FLAG_EOP))
 80021ae:	2120      	movs	r1, #32
 80021b0:	68d8      	ldr	r0, [r3, #12]
 80021b2:	4208      	tst	r0, r1
 80021b4:	d000      	beq.n	80021b8 <FLASH_WaitForLastOperation+0x20>
    __HAL_FLASH_CLEAR_FLAG(FLASH_FLAG_EOP);
 80021b6:	60d9      	str	r1, [r3, #12]
  if(__HAL_FLASH_GET_FLAG(FLASH_FLAG_WRPERR)  || 
 80021b8:	68d1      	ldr	r1, [r2, #12]
 80021ba:	2310      	movs	r3, #16
 80021bc:	0008      	movs	r0, r1
 80021be:	4018      	ands	r0, r3
 80021c0:	4219      	tst	r1, r3
 80021c2:	d102      	bne.n	80021ca <FLASH_WaitForLastOperation+0x32>
     __HAL_FLASH_GET_FLAG(FLASH_FLAG_PGERR))
 80021c4:	68d3      	ldr	r3, [r2, #12]
  if(__HAL_FLASH_GET_FLAG(FLASH_FLAG_WRPERR)  || 
 80021c6:	075b      	lsls	r3, r3, #29
 80021c8:	d508      	bpl.n	80021dc <FLASH_WaitForLastOperation+0x44>
    FLASH_SetErrorCode();
 80021ca:	f7ff ffa9 	bl	8002120 <FLASH_SetErrorCode>
    return HAL_ERROR;
 80021ce:	2001      	movs	r0, #1
 80021d0:	e004      	b.n	80021dc <FLASH_WaitForLastOperation+0x44>
    if (Timeout != HAL_MAX_DELAY)
 80021d2:	1c61      	adds	r1, r4, #1
 80021d4:	d0e8      	beq.n	80021a8 <FLASH_WaitForLastOperation+0x10>
      if((Timeout == 0U) || ((HAL_GetTick()-tickstart) > Timeout))
 80021d6:	2c00      	cmp	r4, #0
 80021d8:	d101      	bne.n	80021de <FLASH_WaitForLastOperation+0x46>
        return HAL_TIMEOUT;
 80021da:	2003      	movs	r0, #3
}
 80021dc:	bd70      	pop	{r4, r5, r6, pc}
      if((Timeout == 0U) || ((HAL_GetTick()-tickstart) > Timeout))
 80021de:	f7ff fdf1 	bl	8001dc4 <HAL_GetTick>
 80021e2:	1b40      	subs	r0, r0, r5
 80021e4:	42a0      	cmp	r0, r4
 80021e6:	d9dd      	bls.n	80021a4 <FLASH_WaitForLastOperation+0xc>
 80021e8:	e7f7      	b.n	80021da <FLASH_WaitForLastOperation+0x42>
 80021ea:	46c0      	nop			; (mov r8, r8)
 80021ec:	40022000 	.word	0x40022000

080021f0 <HAL_FLASH_Program>:
{
 80021f0:	b5f0      	push	{r4, r5, r6, r7, lr}
 80021f2:	b085      	sub	sp, #20
 80021f4:	9303      	str	r3, [sp, #12]
  __HAL_LOCK(&pFlash);
 80021f6:	4b1c      	ldr	r3, [pc, #112]	; (8002268 <HAL_FLASH_Program+0x78>)
{
 80021f8:	9101      	str	r1, [sp, #4]
 80021fa:	9202      	str	r2, [sp, #8]
  __HAL_LOCK(&pFlash);
 80021fc:	7e1a      	ldrb	r2, [r3, #24]
{
 80021fe:	0004      	movs	r4, r0
  __HAL_LOCK(&pFlash);
 8002200:	2002      	movs	r0, #2
 8002202:	2a01      	cmp	r2, #1
 8002204:	d02e      	beq.n	8002264 <HAL_FLASH_Program+0x74>
 8002206:	2201      	movs	r2, #1
    status = FLASH_WaitForLastOperation(FLASH_TIMEOUT_VALUE);
 8002208:	4818      	ldr	r0, [pc, #96]	; (800226c <HAL_FLASH_Program+0x7c>)
  __HAL_LOCK(&pFlash);
 800220a:	761a      	strb	r2, [r3, #24]
    status = FLASH_WaitForLastOperation(FLASH_TIMEOUT_VALUE);
 800220c:	f7ff ffc4 	bl	8002198 <FLASH_WaitForLastOperation>
  if(status == HAL_OK)
 8002210:	2800      	cmp	r0, #0
 8002212:	d124      	bne.n	800225e <HAL_FLASH_Program+0x6e>
      nbiterations = 1U;
 8002214:	0026      	movs	r6, r4
    if(TypeProgram == FLASH_TYPEPROGRAM_HALFWORD)
 8002216:	2c01      	cmp	r4, #1
 8002218:	d002      	beq.n	8002220 <HAL_FLASH_Program+0x30>
    else if(TypeProgram == FLASH_TYPEPROGRAM_WORD)
 800221a:	2c02      	cmp	r4, #2
 800221c:	d000      	beq.n	8002220 <HAL_FLASH_Program+0x30>
      nbiterations = 4U;
 800221e:	2604      	movs	r6, #4
 8002220:	2400      	movs	r4, #0
      FLASH_Program_HalfWord((Address + (2U*index)), (uint16_t)(Data >> (16U*index)));
 8002222:	9802      	ldr	r0, [sp, #8]
 8002224:	9903      	ldr	r1, [sp, #12]
 8002226:	0122      	lsls	r2, r4, #4
 8002228:	f7fe f82a 	bl	8000280 <__aeabi_llsr>
  pFlash.ErrorCode = HAL_FLASH_ERROR_NONE;
 800222c:	2200      	movs	r2, #0
    SET_BIT(FLASH->CR, FLASH_CR_PG);
 800222e:	2701      	movs	r7, #1
  pFlash.ErrorCode = HAL_FLASH_ERROR_NONE;
 8002230:	4b0d      	ldr	r3, [pc, #52]	; (8002268 <HAL_FLASH_Program+0x78>)
    SET_BIT(FLASH->CR, FLASH_CR_PG);
 8002232:	4d0f      	ldr	r5, [pc, #60]	; (8002270 <HAL_FLASH_Program+0x80>)
  pFlash.ErrorCode = HAL_FLASH_ERROR_NONE;
 8002234:	61da      	str	r2, [r3, #28]
    SET_BIT(FLASH->CR, FLASH_CR_PG);
 8002236:	692b      	ldr	r3, [r5, #16]
 8002238:	9a01      	ldr	r2, [sp, #4]
 800223a:	433b      	orrs	r3, r7
 800223c:	612b      	str	r3, [r5, #16]
 800223e:	0063      	lsls	r3, r4, #1
 8002240:	189b      	adds	r3, r3, r2
      FLASH_Program_HalfWord((Address + (2U*index)), (uint16_t)(Data >> (16U*index)));
 8002242:	b280      	uxth	r0, r0
  *(__IO uint16_t*)Address = Data;
 8002244:	8018      	strh	r0, [r3, #0]
        status = FLASH_WaitForLastOperation(FLASH_TIMEOUT_VALUE);
 8002246:	4809      	ldr	r0, [pc, #36]	; (800226c <HAL_FLASH_Program+0x7c>)
 8002248:	f7ff ffa6 	bl	8002198 <FLASH_WaitForLastOperation>
        CLEAR_BIT(FLASH->CR, FLASH_CR_PG);
 800224c:	692b      	ldr	r3, [r5, #16]
 800224e:	43bb      	bics	r3, r7
 8002250:	612b      	str	r3, [r5, #16]
      if (status != HAL_OK)
 8002252:	2800      	cmp	r0, #0
 8002254:	d103      	bne.n	800225e <HAL_FLASH_Program+0x6e>
    for (index = 0U; index < nbiterations; index++)
 8002256:	19e4      	adds	r4, r4, r7
 8002258:	b2e3      	uxtb	r3, r4
 800225a:	429e      	cmp	r6, r3
 800225c:	d8e1      	bhi.n	8002222 <HAL_FLASH_Program+0x32>
  __HAL_UNLOCK(&pFlash);
 800225e:	2200      	movs	r2, #0
 8002260:	4b01      	ldr	r3, [pc, #4]	; (8002268 <HAL_FLASH_Program+0x78>)
 8002262:	761a      	strb	r2, [r3, #24]
}
 8002264:	b005      	add	sp, #20
 8002266:	bdf0      	pop	{r4, r5, r6, r7, pc}
 8002268:	200008d8 	.word	0x200008d8
 800226c:	0000c350 	.word	0x0000c350
 8002270:	40022000 	.word	0x40022000

08002274 <FLASH_MassErase>:
  * @retval None
  */
static void FLASH_MassErase(void)
{
  /* Clean the error context */
  pFlash.ErrorCode = HAL_FLASH_ERROR_NONE;
 8002274:	2200      	movs	r2, #0
 8002276:	4b06      	ldr	r3, [pc, #24]	; (8002290 <FLASH_MassErase+0x1c>)
 8002278:	61da      	str	r2, [r3, #28]

    /* Only bank1 will be erased*/
    SET_BIT(FLASH->CR, FLASH_CR_MER);
 800227a:	4b06      	ldr	r3, [pc, #24]	; (8002294 <FLASH_MassErase+0x20>)
 800227c:	3204      	adds	r2, #4
 800227e:	6919      	ldr	r1, [r3, #16]
 8002280:	430a      	orrs	r2, r1
 8002282:	611a      	str	r2, [r3, #16]
    SET_BIT(FLASH->CR, FLASH_CR_STRT);
 8002284:	2240      	movs	r2, #64	; 0x40
 8002286:	6919      	ldr	r1, [r3, #16]
 8002288:	430a      	orrs	r2, r1
 800228a:	611a      	str	r2, [r3, #16]
}
 800228c:	4770      	bx	lr
 800228e:	46c0      	nop			; (mov r8, r8)
 8002290:	200008d8 	.word	0x200008d8
 8002294:	40022000 	.word	0x40022000

08002298 <FLASH_PageErase>:
  * @retval None
  */
void FLASH_PageErase(uint32_t PageAddress)
{
  /* Clean the error context */
  pFlash.ErrorCode = HAL_FLASH_ERROR_NONE;
 8002298:	2200      	movs	r2, #0
 800229a:	4b06      	ldr	r3, [pc, #24]	; (80022b4 <FLASH_PageErase+0x1c>)
 800229c:	61da      	str	r2, [r3, #28]

    /* Proceed to erase the page */
    SET_BIT(FLASH->CR, FLASH_CR_PER);
 800229e:	4b06      	ldr	r3, [pc, #24]	; (80022b8 <FLASH_PageErase+0x20>)
 80022a0:	3202      	adds	r2, #2
 80022a2:	6919      	ldr	r1, [r3, #16]
 80022a4:	430a      	orrs	r2, r1
 80022a6:	611a      	str	r2, [r3, #16]
    WRITE_REG(FLASH->AR, PageAddress);
    SET_BIT(FLASH->CR, FLASH_CR_STRT);
 80022a8:	2240      	movs	r2, #64	; 0x40
    WRITE_REG(FLASH->AR, PageAddress);
 80022aa:	6158      	str	r0, [r3, #20]
    SET_BIT(FLASH->CR, FLASH_CR_STRT);
 80022ac:	6919      	ldr	r1, [r3, #16]
 80022ae:	430a      	orrs	r2, r1
 80022b0:	611a      	str	r2, [r3, #16]
}
 80022b2:	4770      	bx	lr
 80022b4:	200008d8 	.word	0x200008d8
 80022b8:	40022000 	.word	0x40022000

080022bc <HAL_FLASHEx_Erase>:
{
 80022bc:	b5f8      	push	{r3, r4, r5, r6, r7, lr}
  __HAL_LOCK(&pFlash);
 80022be:	4f21      	ldr	r7, [pc, #132]	; (8002344 <HAL_FLASHEx_Erase+0x88>)
{
 80022c0:	0004      	movs	r4, r0
  __HAL_LOCK(&pFlash);
 80022c2:	7e3b      	ldrb	r3, [r7, #24]
{
 80022c4:	000e      	movs	r6, r1
  __HAL_LOCK(&pFlash);
 80022c6:	2002      	movs	r0, #2
 80022c8:	2b01      	cmp	r3, #1
 80022ca:	d00c      	beq.n	80022e6 <HAL_FLASHEx_Erase+0x2a>
 80022cc:	2301      	movs	r3, #1
 80022ce:	763b      	strb	r3, [r7, #24]
  if (pEraseInit->TypeErase == FLASH_TYPEERASE_MASSERASE)
 80022d0:	6823      	ldr	r3, [r4, #0]
      if (FLASH_WaitForLastOperation((uint32_t)FLASH_TIMEOUT_VALUE) == HAL_OK)
 80022d2:	481d      	ldr	r0, [pc, #116]	; (8002348 <HAL_FLASHEx_Erase+0x8c>)
  if (pEraseInit->TypeErase == FLASH_TYPEERASE_MASSERASE)
 80022d4:	2b01      	cmp	r3, #1
 80022d6:	d112      	bne.n	80022fe <HAL_FLASHEx_Erase+0x42>
      if (FLASH_WaitForLastOperation((uint32_t)FLASH_TIMEOUT_VALUE) == HAL_OK)
 80022d8:	f7ff ff5e 	bl	8002198 <FLASH_WaitForLastOperation>
 80022dc:	2800      	cmp	r0, #0
 80022de:	d003      	beq.n	80022e8 <HAL_FLASHEx_Erase+0x2c>
  HAL_StatusTypeDef status = HAL_ERROR;
 80022e0:	2001      	movs	r0, #1
  __HAL_UNLOCK(&pFlash);
 80022e2:	2300      	movs	r3, #0
 80022e4:	763b      	strb	r3, [r7, #24]
}
 80022e6:	bdf8      	pop	{r3, r4, r5, r6, r7, pc}
        FLASH_MassErase();
 80022e8:	f7ff ffc4 	bl	8002274 <FLASH_MassErase>
        status = FLASH_WaitForLastOperation((uint32_t)FLASH_TIMEOUT_VALUE);
 80022ec:	4816      	ldr	r0, [pc, #88]	; (8002348 <HAL_FLASHEx_Erase+0x8c>)
 80022ee:	f7ff ff53 	bl	8002198 <FLASH_WaitForLastOperation>
        CLEAR_BIT(FLASH->CR, FLASH_CR_MER);
 80022f2:	2104      	movs	r1, #4
 80022f4:	4a15      	ldr	r2, [pc, #84]	; (800234c <HAL_FLASHEx_Erase+0x90>)
 80022f6:	6913      	ldr	r3, [r2, #16]
 80022f8:	438b      	bics	r3, r1
 80022fa:	6113      	str	r3, [r2, #16]
 80022fc:	e7f1      	b.n	80022e2 <HAL_FLASHEx_Erase+0x26>
      if (FLASH_WaitForLastOperation((uint32_t)FLASH_TIMEOUT_VALUE) == HAL_OK)
 80022fe:	f7ff ff4b 	bl	8002198 <FLASH_WaitForLastOperation>
 8002302:	2800      	cmp	r0, #0
 8002304:	d1ec      	bne.n	80022e0 <HAL_FLASHEx_Erase+0x24>
        *PageError = 0xFFFFFFFFU;
 8002306:	2301      	movs	r3, #1
 8002308:	425b      	negs	r3, r3
 800230a:	6033      	str	r3, [r6, #0]
        for(address = pEraseInit->PageAddress;
 800230c:	6865      	ldr	r5, [r4, #4]
  HAL_StatusTypeDef status = HAL_ERROR;
 800230e:	3001      	adds	r0, #1
            address < ((pEraseInit->NbPages * FLASH_PAGE_SIZE) + pEraseInit->PageAddress);
 8002310:	68a3      	ldr	r3, [r4, #8]
 8002312:	6862      	ldr	r2, [r4, #4]
 8002314:	029b      	lsls	r3, r3, #10
 8002316:	189b      	adds	r3, r3, r2
        for(address = pEraseInit->PageAddress;
 8002318:	42ab      	cmp	r3, r5
 800231a:	d9e2      	bls.n	80022e2 <HAL_FLASHEx_Erase+0x26>
          FLASH_PageErase(address);
 800231c:	0028      	movs	r0, r5
 800231e:	f7ff ffbb 	bl	8002298 <FLASH_PageErase>
          status = FLASH_WaitForLastOperation((uint32_t)FLASH_TIMEOUT_VALUE);
 8002322:	4809      	ldr	r0, [pc, #36]	; (8002348 <HAL_FLASHEx_Erase+0x8c>)
 8002324:	f7ff ff38 	bl	8002198 <FLASH_WaitForLastOperation>
          CLEAR_BIT(FLASH->CR, FLASH_CR_PER);
 8002328:	2102      	movs	r1, #2
 800232a:	4a08      	ldr	r2, [pc, #32]	; (800234c <HAL_FLASHEx_Erase+0x90>)
 800232c:	6913      	ldr	r3, [r2, #16]
 800232e:	438b      	bics	r3, r1
 8002330:	6113      	str	r3, [r2, #16]
          if (status != HAL_OK)
 8002332:	2800      	cmp	r0, #0
 8002334:	d001      	beq.n	800233a <HAL_FLASHEx_Erase+0x7e>
            *PageError = address;
 8002336:	6035      	str	r5, [r6, #0]
            break;
 8002338:	e7d3      	b.n	80022e2 <HAL_FLASHEx_Erase+0x26>
            address += FLASH_PAGE_SIZE)
 800233a:	2380      	movs	r3, #128	; 0x80
 800233c:	00db      	lsls	r3, r3, #3
 800233e:	18ed      	adds	r5, r5, r3
 8002340:	e7e6      	b.n	8002310 <HAL_FLASHEx_Erase+0x54>
 8002342:	46c0      	nop			; (mov r8, r8)
 8002344:	200008d8 	.word	0x200008d8
 8002348:	0000c350 	.word	0x0000c350
 800234c:	40022000 	.word	0x40022000

08002350 <HAL_GPIO_Init>:
  *         the configuration information for the specified GPIO peripheral.
  * @retval None
  */
void HAL_GPIO_Init(GPIO_TypeDef  *GPIOx, GPIO_InitTypeDef *GPIO_Init)
{
  uint32_t position = 0x00u;
 8002350:	2300      	movs	r3, #0
{
 8002352:	b5f0      	push	{r4, r5, r6, r7, lr}
 8002354:	b087      	sub	sp, #28
  assert_param(IS_GPIO_ALL_INSTANCE(GPIOx));
  assert_param(IS_GPIO_PIN(GPIO_Init->Pin));
  assert_param(IS_GPIO_MODE(GPIO_Init->Mode));

  /* Configure the port pins */
  while (((GPIO_Init->Pin) >> position) != 0x00u)
 8002356:	680a      	ldr	r2, [r1, #0]
 8002358:	0014      	movs	r4, r2
 800235a:	40dc      	lsrs	r4, r3
 800235c:	d101      	bne.n	8002362 <HAL_GPIO_Init+0x12>
      }
    }

    position++;
  } 
}
 800235e:	b007      	add	sp, #28
 8002360:	bdf0      	pop	{r4, r5, r6, r7, pc}
    iocurrent = (GPIO_Init->Pin) & (1uL << position);
 8002362:	2501      	movs	r5, #1
 8002364:	0014      	movs	r4, r2
 8002366:	409d      	lsls	r5, r3
 8002368:	402c      	ands	r4, r5
 800236a:	9401      	str	r4, [sp, #4]
    if (iocurrent != 0x00u)
 800236c:	422a      	tst	r2, r5
 800236e:	d100      	bne.n	8002372 <HAL_GPIO_Init+0x22>
 8002370:	e091      	b.n	8002496 <HAL_GPIO_Init+0x146>
      if(((GPIO_Init->Mode & GPIO_MODE) == MODE_OUTPUT) ||
 8002372:	684a      	ldr	r2, [r1, #4]
 8002374:	005e      	lsls	r6, r3, #1
 8002376:	4694      	mov	ip, r2
 8002378:	2203      	movs	r2, #3
 800237a:	4664      	mov	r4, ip
 800237c:	4022      	ands	r2, r4
 800237e:	2403      	movs	r4, #3
 8002380:	40b4      	lsls	r4, r6
 8002382:	43e4      	mvns	r4, r4
 8002384:	9402      	str	r4, [sp, #8]
 8002386:	1e54      	subs	r4, r2, #1
 8002388:	2c01      	cmp	r4, #1
 800238a:	d82a      	bhi.n	80023e2 <HAL_GPIO_Init+0x92>
        temp = GPIOx->OSPEEDR;
 800238c:	6887      	ldr	r7, [r0, #8]
        temp &= ~(GPIO_OSPEEDER_OSPEEDR0 << (position * 2u));
 800238e:	9c02      	ldr	r4, [sp, #8]
 8002390:	4027      	ands	r7, r4
        temp |= (GPIO_Init->Speed << (position * 2u));
 8002392:	68cc      	ldr	r4, [r1, #12]
 8002394:	40b4      	lsls	r4, r6
 8002396:	433c      	orrs	r4, r7
        GPIOx->OSPEEDR = temp;
 8002398:	6084      	str	r4, [r0, #8]
        temp = GPIOx->OTYPER;
 800239a:	6844      	ldr	r4, [r0, #4]
        temp |= (((GPIO_Init->Mode & OUTPUT_TYPE) >> OUTPUT_TYPE_Pos) << position);
 800239c:	2701      	movs	r7, #1
        temp &= ~(GPIO_OTYPER_OT_0 << position) ;
 800239e:	43ac      	bics	r4, r5
 80023a0:	0025      	movs	r5, r4
        temp |= (((GPIO_Init->Mode & OUTPUT_TYPE) >> OUTPUT_TYPE_Pos) << position);
 80023a2:	4664      	mov	r4, ip
 80023a4:	0924      	lsrs	r4, r4, #4
 80023a6:	403c      	ands	r4, r7
 80023a8:	409c      	lsls	r4, r3
 80023aa:	432c      	orrs	r4, r5
        GPIOx->OTYPER = temp;
 80023ac:	6044      	str	r4, [r0, #4]
        temp = GPIOx->PUPDR;
 80023ae:	68c5      	ldr	r5, [r0, #12]
        temp &= ~(GPIO_PUPDR_PUPDR0 << (position * 2u));
 80023b0:	9c02      	ldr	r4, [sp, #8]
 80023b2:	4025      	ands	r5, r4
        temp |= ((GPIO_Init->Pull) << (position * 2u));
 80023b4:	688c      	ldr	r4, [r1, #8]
 80023b6:	40b4      	lsls	r4, r6
 80023b8:	432c      	orrs	r4, r5
        GPIOx->PUPDR = temp;
 80023ba:	60c4      	str	r4, [r0, #12]
      if((GPIO_Init->Mode & GPIO_MODE) == MODE_AF)
 80023bc:	2a02      	cmp	r2, #2
 80023be:	d112      	bne.n	80023e6 <HAL_GPIO_Init+0x96>
        temp = GPIOx->AFR[position >> 3u];
 80023c0:	08dc      	lsrs	r4, r3, #3
        temp &= ~(0xFu << ((position & 0x07u) * 4u));
 80023c2:	2507      	movs	r5, #7
 80023c4:	00a4      	lsls	r4, r4, #2
 80023c6:	1904      	adds	r4, r0, r4
        temp = GPIOx->AFR[position >> 3u];
 80023c8:	6a27      	ldr	r7, [r4, #32]
        temp &= ~(0xFu << ((position & 0x07u) * 4u));
 80023ca:	9403      	str	r4, [sp, #12]
 80023cc:	240f      	movs	r4, #15
 80023ce:	401d      	ands	r5, r3
 80023d0:	00ad      	lsls	r5, r5, #2
 80023d2:	40ac      	lsls	r4, r5
 80023d4:	43a7      	bics	r7, r4
        temp |= ((GPIO_Init->Alternate) << ((position & 0x07u) * 4u));
 80023d6:	690c      	ldr	r4, [r1, #16]
 80023d8:	40ac      	lsls	r4, r5
 80023da:	4327      	orrs	r7, r4
        GPIOx->AFR[position >> 3u] = temp;
 80023dc:	9c03      	ldr	r4, [sp, #12]
 80023de:	6227      	str	r7, [r4, #32]
 80023e0:	e001      	b.n	80023e6 <HAL_GPIO_Init+0x96>
      if((GPIO_Init->Mode & GPIO_MODE) != MODE_ANALOG)
 80023e2:	2a03      	cmp	r2, #3
 80023e4:	d1e3      	bne.n	80023ae <HAL_GPIO_Init+0x5e>
      temp = GPIOx->MODER;
 80023e6:	6804      	ldr	r4, [r0, #0]
      temp &= ~(GPIO_MODER_MODER0 << (position * 2u));
 80023e8:	9d02      	ldr	r5, [sp, #8]
      temp |= ((GPIO_Init->Mode & GPIO_MODE) << (position * 2u));
 80023ea:	40b2      	lsls	r2, r6
      temp &= ~(GPIO_MODER_MODER0 << (position * 2u));
 80023ec:	4025      	ands	r5, r4
 80023ee:	002c      	movs	r4, r5
      temp |= ((GPIO_Init->Mode & GPIO_MODE) << (position * 2u));
 80023f0:	4314      	orrs	r4, r2
      GPIOx->MODER = temp;
 80023f2:	6004      	str	r4, [r0, #0]
      if((GPIO_Init->Mode & EXTI_MODE) != 0x00u)
 80023f4:	24c0      	movs	r4, #192	; 0xc0
 80023f6:	4662      	mov	r2, ip
 80023f8:	02a4      	lsls	r4, r4, #10
 80023fa:	4222      	tst	r2, r4
 80023fc:	d04b      	beq.n	8002496 <HAL_GPIO_Init+0x146>
        __HAL_RCC_SYSCFG_CLK_ENABLE();
 80023fe:	2501      	movs	r5, #1
 8002400:	4a26      	ldr	r2, [pc, #152]	; (800249c <HAL_GPIO_Init+0x14c>)
        temp |= (GPIO_GET_INDEX(GPIOx) << (4u * (position & 0x03u)));
 8002402:	2790      	movs	r7, #144	; 0x90
        __HAL_RCC_SYSCFG_CLK_ENABLE();
 8002404:	6994      	ldr	r4, [r2, #24]
        temp |= (GPIO_GET_INDEX(GPIOx) << (4u * (position & 0x03u)));
 8002406:	05ff      	lsls	r7, r7, #23
        __HAL_RCC_SYSCFG_CLK_ENABLE();
 8002408:	432c      	orrs	r4, r5
 800240a:	6194      	str	r4, [r2, #24]
 800240c:	6992      	ldr	r2, [r2, #24]
        temp = SYSCFG->EXTICR[position >> 2u];
 800240e:	089c      	lsrs	r4, r3, #2
        __HAL_RCC_SYSCFG_CLK_ENABLE();
 8002410:	402a      	ands	r2, r5
 8002412:	9205      	str	r2, [sp, #20]
 8002414:	9a05      	ldr	r2, [sp, #20]
        temp = SYSCFG->EXTICR[position >> 2u];
 8002416:	4a22      	ldr	r2, [pc, #136]	; (80024a0 <HAL_GPIO_Init+0x150>)
 8002418:	00a4      	lsls	r4, r4, #2
 800241a:	18a4      	adds	r4, r4, r2
        temp &= ~(0x0FuL << (4u * (position & 0x03u)));
 800241c:	220f      	movs	r2, #15
 800241e:	3502      	adds	r5, #2
 8002420:	401d      	ands	r5, r3
 8002422:	00ad      	lsls	r5, r5, #2
 8002424:	40aa      	lsls	r2, r5
        temp = SYSCFG->EXTICR[position >> 2u];
 8002426:	68a6      	ldr	r6, [r4, #8]
        temp &= ~(0x0FuL << (4u * (position & 0x03u)));
 8002428:	4396      	bics	r6, r2
        temp |= (GPIO_GET_INDEX(GPIOx) << (4u * (position & 0x03u)));
 800242a:	2200      	movs	r2, #0
 800242c:	42b8      	cmp	r0, r7
 800242e:	d008      	beq.n	8002442 <HAL_GPIO_Init+0xf2>
 8002430:	4f1c      	ldr	r7, [pc, #112]	; (80024a4 <HAL_GPIO_Init+0x154>)
 8002432:	3201      	adds	r2, #1
 8002434:	42b8      	cmp	r0, r7
 8002436:	d004      	beq.n	8002442 <HAL_GPIO_Init+0xf2>
 8002438:	4f1b      	ldr	r7, [pc, #108]	; (80024a8 <HAL_GPIO_Init+0x158>)
 800243a:	3201      	adds	r2, #1
 800243c:	42b8      	cmp	r0, r7
 800243e:	d000      	beq.n	8002442 <HAL_GPIO_Init+0xf2>
 8002440:	3203      	adds	r2, #3
 8002442:	40aa      	lsls	r2, r5
        if((GPIO_Init->Mode & EXTI_IT) != 0x00u)
 8002444:	4667      	mov	r7, ip
        temp |= (GPIO_GET_INDEX(GPIOx) << (4u * (position & 0x03u)));
 8002446:	4332      	orrs	r2, r6
        SYSCFG->EXTICR[position >> 2u] = temp;
 8002448:	60a2      	str	r2, [r4, #8]
        temp = EXTI->IMR;
 800244a:	4a18      	ldr	r2, [pc, #96]	; (80024ac <HAL_GPIO_Init+0x15c>)
        temp &= ~(iocurrent);
 800244c:	9c01      	ldr	r4, [sp, #4]
        temp = EXTI->IMR;
 800244e:	6816      	ldr	r6, [r2, #0]
          temp |= iocurrent;
 8002450:	9d01      	ldr	r5, [sp, #4]
        temp &= ~(iocurrent);
 8002452:	43e4      	mvns	r4, r4
          temp |= iocurrent;
 8002454:	4335      	orrs	r5, r6
        if((GPIO_Init->Mode & EXTI_IT) != 0x00u)
 8002456:	03ff      	lsls	r7, r7, #15
 8002458:	d401      	bmi.n	800245e <HAL_GPIO_Init+0x10e>
        temp &= ~(iocurrent);
 800245a:	0035      	movs	r5, r6
 800245c:	4025      	ands	r5, r4
        if((GPIO_Init->Mode & EXTI_EVT) != 0x00u)
 800245e:	4667      	mov	r7, ip
        EXTI->IMR = temp;
 8002460:	6015      	str	r5, [r2, #0]
        temp = EXTI->EMR;
 8002462:	6856      	ldr	r6, [r2, #4]
          temp |= iocurrent;
 8002464:	9d01      	ldr	r5, [sp, #4]
 8002466:	4335      	orrs	r5, r6
        if((GPIO_Init->Mode & EXTI_EVT) != 0x00u)
 8002468:	03bf      	lsls	r7, r7, #14
 800246a:	d401      	bmi.n	8002470 <HAL_GPIO_Init+0x120>
        temp &= ~(iocurrent);
 800246c:	0035      	movs	r5, r6
 800246e:	4025      	ands	r5, r4
        if((GPIO_Init->Mode & TRIGGER_RISING) != 0x00u)
 8002470:	4667      	mov	r7, ip
        EXTI->EMR = temp;
 8002472:	6055      	str	r5, [r2, #4]
        temp = EXTI->RTSR;
 8002474:	6896      	ldr	r6, [r2, #8]
          temp |= iocurrent;
 8002476:	9d01      	ldr	r5, [sp, #4]
 8002478:	4335      	orrs	r5, r6
        if((GPIO_Init->Mode & TRIGGER_RISING) != 0x00u)
 800247a:	02ff      	lsls	r7, r7, #11
 800247c:	d401      	bmi.n	8002482 <HAL_GPIO_Init+0x132>
        temp &= ~(iocurrent);
 800247e:	0035      	movs	r5, r6
 8002480:	4025      	ands	r5, r4
        if((GPIO_Init->Mode & TRIGGER_FALLING) != 0x00u)
 8002482:	4667      	mov	r7, ip
        EXTI->RTSR = temp;
 8002484:	6095      	str	r5, [r2, #8]
        temp = EXTI->FTSR;
 8002486:	68d5      	ldr	r5, [r2, #12]
          temp |= iocurrent;
 8002488:	9e01      	ldr	r6, [sp, #4]
 800248a:	432e      	orrs	r6, r5
        if((GPIO_Init->Mode & TRIGGER_FALLING) != 0x00u)
 800248c:	02bf      	lsls	r7, r7, #10
 800248e:	d401      	bmi.n	8002494 <HAL_GPIO_Init+0x144>
        temp &= ~(iocurrent);
 8002490:	4025      	ands	r5, r4
 8002492:	002e      	movs	r6, r5
        EXTI->FTSR = temp;
 8002494:	60d6      	str	r6, [r2, #12]
    position++;
 8002496:	3301      	adds	r3, #1
 8002498:	e75d      	b.n	8002356 <HAL_GPIO_Init+0x6>
 800249a:	46c0      	nop			; (mov r8, r8)
 800249c:	40021000 	.word	0x40021000
 80024a0:	40010000 	.word	0x40010000
 80024a4:	48000400 	.word	0x48000400
 80024a8:	48000800 	.word	0x48000800
 80024ac:	40010400 	.word	0x40010400

080024b0 <HAL_GPIO_DeInit>:
  * @param  GPIO_Pin specifies the port bit to be written.
  *         This parameter can be one of GPIO_PIN_x where x can be (0..15).
  * @retval None
  */
void HAL_GPIO_DeInit(GPIO_TypeDef  *GPIOx, uint32_t GPIO_Pin)
{
 80024b0:	b5f0      	push	{r4, r5, r6, r7, lr}
  uint32_t position = 0x00u;
 80024b2:	2300      	movs	r3, #0
{
 80024b4:	000f      	movs	r7, r1
 80024b6:	b085      	sub	sp, #20
  /* Check the parameters */
  assert_param(IS_GPIO_ALL_INSTANCE(GPIOx));
  assert_param(IS_GPIO_PIN(GPIO_Pin));

  /* Configure the port pins */
  while ((GPIO_Pin >> position) != 0x00u)
 80024b8:	003a      	movs	r2, r7
 80024ba:	40da      	lsrs	r2, r3
 80024bc:	d101      	bne.n	80024c2 <HAL_GPIO_DeInit+0x12>

    }

    position++;
  }
}
 80024be:	b005      	add	sp, #20
 80024c0:	bdf0      	pop	{r4, r5, r6, r7, pc}
    iocurrent = (GPIO_Pin) & (1uL << position);
 80024c2:	2201      	movs	r2, #1
 80024c4:	409a      	lsls	r2, r3
 80024c6:	0014      	movs	r4, r2
 80024c8:	9201      	str	r2, [sp, #4]
 80024ca:	403c      	ands	r4, r7
    if (iocurrent != 0x00u)
 80024cc:	4217      	tst	r7, r2
 80024ce:	d04c      	beq.n	800256a <HAL_GPIO_DeInit+0xba>
      tmp = SYSCFG->EXTICR[position >> 2u];
 80024d0:	4927      	ldr	r1, [pc, #156]	; (8002570 <HAL_GPIO_DeInit+0xc0>)
      tmp &= (0x0FuL << (4u * (position & 0x03u)));
 80024d2:	2503      	movs	r5, #3
      tmp = SYSCFG->EXTICR[position >> 2u];
 80024d4:	089a      	lsrs	r2, r3, #2
 80024d6:	0092      	lsls	r2, r2, #2
 80024d8:	1852      	adds	r2, r2, r1
      tmp &= (0x0FuL << (4u * (position & 0x03u)));
 80024da:	210f      	movs	r1, #15
 80024dc:	401d      	ands	r5, r3
 80024de:	00ad      	lsls	r5, r5, #2
 80024e0:	40a9      	lsls	r1, r5
      tmp = SYSCFG->EXTICR[position >> 2u];
 80024e2:	6896      	ldr	r6, [r2, #8]
      tmp &= (0x0FuL << (4u * (position & 0x03u)));
 80024e4:	9102      	str	r1, [sp, #8]
 80024e6:	400e      	ands	r6, r1
 80024e8:	9603      	str	r6, [sp, #12]
      if (tmp == (GPIO_GET_INDEX(GPIOx) << (4u * (position & 0x03u))))
 80024ea:	2690      	movs	r6, #144	; 0x90
 80024ec:	2100      	movs	r1, #0
 80024ee:	05f6      	lsls	r6, r6, #23
 80024f0:	42b0      	cmp	r0, r6
 80024f2:	d00a      	beq.n	800250a <HAL_GPIO_DeInit+0x5a>
 80024f4:	491f      	ldr	r1, [pc, #124]	; (8002574 <HAL_GPIO_DeInit+0xc4>)
 80024f6:	468c      	mov	ip, r1
 80024f8:	2101      	movs	r1, #1
 80024fa:	4560      	cmp	r0, ip
 80024fc:	d005      	beq.n	800250a <HAL_GPIO_DeInit+0x5a>
 80024fe:	491e      	ldr	r1, [pc, #120]	; (8002578 <HAL_GPIO_DeInit+0xc8>)
 8002500:	468c      	mov	ip, r1
 8002502:	2102      	movs	r1, #2
 8002504:	4560      	cmp	r0, ip
 8002506:	d000      	beq.n	800250a <HAL_GPIO_DeInit+0x5a>
 8002508:	3103      	adds	r1, #3
 800250a:	40a9      	lsls	r1, r5
 800250c:	9d03      	ldr	r5, [sp, #12]
 800250e:	42a9      	cmp	r1, r5
 8002510:	d110      	bne.n	8002534 <HAL_GPIO_DeInit+0x84>
        EXTI->IMR &= ~((uint32_t)iocurrent);
 8002512:	491a      	ldr	r1, [pc, #104]	; (800257c <HAL_GPIO_DeInit+0xcc>)
 8002514:	680d      	ldr	r5, [r1, #0]
 8002516:	43a5      	bics	r5, r4
 8002518:	600d      	str	r5, [r1, #0]
        EXTI->EMR &= ~((uint32_t)iocurrent);
 800251a:	684d      	ldr	r5, [r1, #4]
 800251c:	43a5      	bics	r5, r4
 800251e:	604d      	str	r5, [r1, #4]
        EXTI->RTSR &= ~((uint32_t)iocurrent);
 8002520:	688d      	ldr	r5, [r1, #8]
 8002522:	43a5      	bics	r5, r4
 8002524:	608d      	str	r5, [r1, #8]
        EXTI->FTSR &= ~((uint32_t)iocurrent);
 8002526:	68cd      	ldr	r5, [r1, #12]
 8002528:	43a5      	bics	r5, r4
 800252a:	60cd      	str	r5, [r1, #12]
        SYSCFG->EXTICR[position >> 2u] &= ~tmp;
 800252c:	6891      	ldr	r1, [r2, #8]
 800252e:	9c02      	ldr	r4, [sp, #8]
 8002530:	43a1      	bics	r1, r4
 8002532:	6091      	str	r1, [r2, #8]
      GPIOx->MODER &= ~(GPIO_MODER_MODER0 << (position * 2u));
 8002534:	2403      	movs	r4, #3
 8002536:	0059      	lsls	r1, r3, #1
 8002538:	408c      	lsls	r4, r1
      GPIOx->AFR[position >> 3u] &= ~(0xFu << ((uint32_t)(position & 0x07u) * 4u)) ;
 800253a:	2107      	movs	r1, #7
 800253c:	260f      	movs	r6, #15
 800253e:	4019      	ands	r1, r3
 8002540:	0089      	lsls	r1, r1, #2
 8002542:	408e      	lsls	r6, r1
      GPIOx->MODER &= ~(GPIO_MODER_MODER0 << (position * 2u));
 8002544:	6802      	ldr	r2, [r0, #0]
      GPIOx->OTYPER  &= ~(GPIO_OTYPER_OT_0 << position) ;
 8002546:	9901      	ldr	r1, [sp, #4]
      GPIOx->MODER &= ~(GPIO_MODER_MODER0 << (position * 2u));
 8002548:	43a2      	bics	r2, r4
 800254a:	6002      	str	r2, [r0, #0]
      GPIOx->AFR[position >> 3u] &= ~(0xFu << ((uint32_t)(position & 0x07u) * 4u)) ;
 800254c:	08da      	lsrs	r2, r3, #3
 800254e:	0092      	lsls	r2, r2, #2
 8002550:	1882      	adds	r2, r0, r2
 8002552:	6a15      	ldr	r5, [r2, #32]
 8002554:	43b5      	bics	r5, r6
 8002556:	6215      	str	r5, [r2, #32]
      GPIOx->PUPDR &= ~(GPIO_PUPDR_PUPDR0 << (position * 2u));
 8002558:	68c2      	ldr	r2, [r0, #12]
 800255a:	43a2      	bics	r2, r4
 800255c:	60c2      	str	r2, [r0, #12]
      GPIOx->OTYPER  &= ~(GPIO_OTYPER_OT_0 << position) ;
 800255e:	6842      	ldr	r2, [r0, #4]
 8002560:	438a      	bics	r2, r1
 8002562:	6042      	str	r2, [r0, #4]
      GPIOx->OSPEEDR &= ~(GPIO_OSPEEDER_OSPEEDR0 << (position * 2u));
 8002564:	6882      	ldr	r2, [r0, #8]
 8002566:	43a2      	bics	r2, r4
 8002568:	6082      	str	r2, [r0, #8]
    position++;
 800256a:	3301      	adds	r3, #1
 800256c:	e7a4      	b.n	80024b8 <HAL_GPIO_DeInit+0x8>
 800256e:	46c0      	nop			; (mov r8, r8)
 8002570:	40010000 	.word	0x40010000
 8002574:	48000400 	.word	0x48000400
 8002578:	48000800 	.word	0x48000800
 800257c:	40010400 	.word	0x40010400

08002580 <HAL_GPIO_ReadPin>:
  GPIO_PinState bitstatus;

  /* Check the parameters */
  assert_param(IS_GPIO_PIN(GPIO_Pin));

  if ((GPIOx->IDR & GPIO_Pin) != (uint32_t)GPIO_PIN_RESET)
 8002580:	6900      	ldr	r0, [r0, #16]
 8002582:	4008      	ands	r0, r1
 8002584:	1e41      	subs	r1, r0, #1
 8002586:	4188      	sbcs	r0, r1
  }
  else
  {
    bitstatus = GPIO_PIN_RESET;
  }
  return bitstatus;
 8002588:	b2c0      	uxtb	r0, r0
  }
 800258a:	4770      	bx	lr

0800258c <HAL_GPIO_WritePin>:
{
  /* Check the parameters */
  assert_param(IS_GPIO_PIN(GPIO_Pin));
  assert_param(IS_GPIO_PIN_ACTION(PinState));

  if (PinState != GPIO_PIN_RESET)
 800258c:	2a00      	cmp	r2, #0
 800258e:	d001      	beq.n	8002594 <HAL_GPIO_WritePin+0x8>
  {
    GPIOx->BSRR = (uint32_t)GPIO_Pin;
 8002590:	6181      	str	r1, [r0, #24]
  }
  else
  {
    GPIOx->BRR = (uint32_t)GPIO_Pin;
  }
}
 8002592:	4770      	bx	lr
    GPIOx->BRR = (uint32_t)GPIO_Pin;
 8002594:	6281      	str	r1, [r0, #40]	; 0x28
}
 8002596:	e7fc      	b.n	8002592 <HAL_GPIO_WritePin+0x6>

08002598 <HAL_I2C_Init>:
  * @param  hi2c Pointer to a I2C_HandleTypeDef structure that contains
  *                the configuration information for the specified I2C.
  * @retval HAL status
  */
HAL_StatusTypeDef HAL_I2C_Init(I2C_HandleTypeDef *hi2c)
{
 8002598:	b570      	push	{r4, r5, r6, lr}
 800259a:	0004      	movs	r4, r0
  /* Check the I2C handle allocation */
  if (hi2c == NULL)
  {
    return HAL_ERROR;
 800259c:	2001      	movs	r0, #1
  if (hi2c == NULL)
 800259e:	2c00      	cmp	r4, #0
 80025a0:	d03f      	beq.n	8002622 <HAL_I2C_Init+0x8a>
  assert_param(IS_I2C_OWN_ADDRESS2(hi2c->Init.OwnAddress2));
  assert_param(IS_I2C_OWN_ADDRESS2_MASK(hi2c->Init.OwnAddress2Masks));
  assert_param(IS_I2C_GENERAL_CALL(hi2c->Init.GeneralCallMode));
  assert_param(IS_I2C_NO_STRETCH(hi2c->Init.NoStretchMode));

  if (hi2c->State == HAL_I2C_STATE_RESET)
 80025a2:	0025      	movs	r5, r4
 80025a4:	3541      	adds	r5, #65	; 0x41
 80025a6:	782b      	ldrb	r3, [r5, #0]
 80025a8:	b2da      	uxtb	r2, r3
 80025aa:	2b00      	cmp	r3, #0
 80025ac:	d105      	bne.n	80025ba <HAL_I2C_Init+0x22>
  {
    /* Allocate lock resource and initialize it */
    hi2c->Lock = HAL_UNLOCKED;
 80025ae:	0023      	movs	r3, r4
 80025b0:	3340      	adds	r3, #64	; 0x40

    /* Init the low level hardware : GPIO, CLOCK, CORTEX...etc */
    hi2c->MspInitCallback(hi2c);
#else
    /* Init the low level hardware : GPIO, CLOCK, CORTEX...etc */
    HAL_I2C_MspInit(hi2c);
 80025b2:	0020      	movs	r0, r4
    hi2c->Lock = HAL_UNLOCKED;
 80025b4:	701a      	strb	r2, [r3, #0]
    HAL_I2C_MspInit(hi2c);
 80025b6:	f7ff fab5 	bl	8001b24 <HAL_I2C_MspInit>
#endif /* USE_HAL_I2C_REGISTER_CALLBACKS */
  }

  hi2c->State = HAL_I2C_STATE_BUSY;
 80025ba:	2324      	movs	r3, #36	; 0x24

  /* Disable the selected I2C peripheral */
  __HAL_I2C_DISABLE(hi2c);
 80025bc:	2101      	movs	r1, #1
  hi2c->State = HAL_I2C_STATE_BUSY;
 80025be:	702b      	strb	r3, [r5, #0]
  __HAL_I2C_DISABLE(hi2c);
 80025c0:	6823      	ldr	r3, [r4, #0]
  /*---------------------------- I2Cx OAR1 Configuration ---------------------*/
  /* Disable Own Address1 before set the Own Address1 configuration */
  hi2c->Instance->OAR1 &= ~I2C_OAR1_OA1EN;

  /* Configure I2Cx: Own Address1 and ack own address1 mode */
  if (hi2c->Init.AddressingMode == I2C_ADDRESSINGMODE_7BIT)
 80025c2:	68e0      	ldr	r0, [r4, #12]
  __HAL_I2C_DISABLE(hi2c);
 80025c4:	681a      	ldr	r2, [r3, #0]
 80025c6:	68a6      	ldr	r6, [r4, #8]
 80025c8:	438a      	bics	r2, r1
 80025ca:	601a      	str	r2, [r3, #0]
  hi2c->Instance->TIMINGR = hi2c->Init.Timing & TIMING_CLEAR_MASK;
 80025cc:	6861      	ldr	r1, [r4, #4]
 80025ce:	4a1a      	ldr	r2, [pc, #104]	; (8002638 <HAL_I2C_Init+0xa0>)
 80025d0:	400a      	ands	r2, r1
 80025d2:	611a      	str	r2, [r3, #16]
  hi2c->Instance->OAR1 &= ~I2C_OAR1_OA1EN;
 80025d4:	6899      	ldr	r1, [r3, #8]
 80025d6:	4a19      	ldr	r2, [pc, #100]	; (800263c <HAL_I2C_Init+0xa4>)
 80025d8:	4011      	ands	r1, r2
 80025da:	6099      	str	r1, [r3, #8]
  if (hi2c->Init.AddressingMode == I2C_ADDRESSINGMODE_7BIT)
 80025dc:	2801      	cmp	r0, #1
 80025de:	d121      	bne.n	8002624 <HAL_I2C_Init+0x8c>
  {
    hi2c->Instance->OAR1 = (I2C_OAR1_OA1EN | hi2c->Init.OwnAddress1);
 80025e0:	2180      	movs	r1, #128	; 0x80
 80025e2:	0209      	lsls	r1, r1, #8
 80025e4:	4331      	orrs	r1, r6
 80025e6:	6099      	str	r1, [r3, #8]
  if (hi2c->Init.AddressingMode == I2C_ADDRESSINGMODE_10BIT)
  {
    hi2c->Instance->CR2 = (I2C_CR2_ADD10);
  }
  /* Enable the AUTOEND by default, and enable NACK (should be disable only during Slave process */
  hi2c->Instance->CR2 |= (I2C_CR2_AUTOEND | I2C_CR2_NACK);
 80025e8:	6858      	ldr	r0, [r3, #4]
 80025ea:	4915      	ldr	r1, [pc, #84]	; (8002640 <HAL_I2C_Init+0xa8>)
 80025ec:	4301      	orrs	r1, r0
 80025ee:	6059      	str	r1, [r3, #4]

  /*---------------------------- I2Cx OAR2 Configuration ---------------------*/
  /* Disable Own Address2 before set the Own Address2 configuration */
  hi2c->Instance->OAR2 &= ~I2C_DUALADDRESS_ENABLE;
 80025f0:	68d9      	ldr	r1, [r3, #12]
  hi2c->Instance->CR1 = (hi2c->Init.GeneralCallMode | hi2c->Init.NoStretchMode);

  /* Enable the selected I2C peripheral */
  __HAL_I2C_ENABLE(hi2c);

  hi2c->ErrorCode = HAL_I2C_ERROR_NONE;
 80025f2:	2000      	movs	r0, #0
  hi2c->Instance->OAR2 &= ~I2C_DUALADDRESS_ENABLE;
 80025f4:	400a      	ands	r2, r1
 80025f6:	60da      	str	r2, [r3, #12]
  hi2c->Instance->OAR2 = (hi2c->Init.DualAddressMode | hi2c->Init.OwnAddress2 | \
 80025f8:	6961      	ldr	r1, [r4, #20]
 80025fa:	6922      	ldr	r2, [r4, #16]
 80025fc:	430a      	orrs	r2, r1
                          (hi2c->Init.OwnAddress2Masks << 8));
 80025fe:	69a1      	ldr	r1, [r4, #24]
 8002600:	0209      	lsls	r1, r1, #8
  hi2c->Instance->OAR2 = (hi2c->Init.DualAddressMode | hi2c->Init.OwnAddress2 | \
 8002602:	430a      	orrs	r2, r1
 8002604:	60da      	str	r2, [r3, #12]
  hi2c->Instance->CR1 = (hi2c->Init.GeneralCallMode | hi2c->Init.NoStretchMode);
 8002606:	6a21      	ldr	r1, [r4, #32]
 8002608:	69e2      	ldr	r2, [r4, #28]
 800260a:	430a      	orrs	r2, r1
 800260c:	601a      	str	r2, [r3, #0]
  __HAL_I2C_ENABLE(hi2c);
 800260e:	2201      	movs	r2, #1
 8002610:	6819      	ldr	r1, [r3, #0]
 8002612:	430a      	orrs	r2, r1
 8002614:	601a      	str	r2, [r3, #0]
  hi2c->State = HAL_I2C_STATE_READY;
 8002616:	2320      	movs	r3, #32
  hi2c->ErrorCode = HAL_I2C_ERROR_NONE;
 8002618:	6460      	str	r0, [r4, #68]	; 0x44
  hi2c->State = HAL_I2C_STATE_READY;
 800261a:	702b      	strb	r3, [r5, #0]
  hi2c->PreviousState = I2C_STATE_NONE;
 800261c:	6320      	str	r0, [r4, #48]	; 0x30
  hi2c->Mode = HAL_I2C_MODE_NONE;
 800261e:	3442      	adds	r4, #66	; 0x42
 8002620:	7020      	strb	r0, [r4, #0]

  return HAL_OK;
}
 8002622:	bd70      	pop	{r4, r5, r6, pc}
    hi2c->Instance->OAR1 = (I2C_OAR1_OA1EN | I2C_OAR1_OA1MODE | hi2c->Init.OwnAddress1);
 8002624:	2184      	movs	r1, #132	; 0x84
 8002626:	0209      	lsls	r1, r1, #8
 8002628:	4331      	orrs	r1, r6
 800262a:	6099      	str	r1, [r3, #8]
  if (hi2c->Init.AddressingMode == I2C_ADDRESSINGMODE_10BIT)
 800262c:	2802      	cmp	r0, #2
 800262e:	d1db      	bne.n	80025e8 <HAL_I2C_Init+0x50>
    hi2c->Instance->CR2 = (I2C_CR2_ADD10);
 8002630:	2180      	movs	r1, #128	; 0x80
 8002632:	0109      	lsls	r1, r1, #4
 8002634:	6059      	str	r1, [r3, #4]
 8002636:	e7d7      	b.n	80025e8 <HAL_I2C_Init+0x50>
 8002638:	f0ffffff 	.word	0xf0ffffff
 800263c:	ffff7fff 	.word	0xffff7fff
 8002640:	02008000 	.word	0x02008000

08002644 <HAL_I2CEx_ConfigAnalogFilter>:
  *                the configuration information for the specified I2Cx peripheral.
  * @param  AnalogFilter New state of the Analog filter.
  * @retval HAL status
  */
HAL_StatusTypeDef HAL_I2CEx_ConfigAnalogFilter(I2C_HandleTypeDef *hi2c, uint32_t AnalogFilter)
{
 8002644:	b5f0      	push	{r4, r5, r6, r7, lr}
  /* Check the parameters */
  assert_param(IS_I2C_ALL_INSTANCE(hi2c->Instance));
  assert_param(IS_I2C_ANALOG_FILTER(AnalogFilter));

  if (hi2c->State == HAL_I2C_STATE_READY)
 8002646:	0004      	movs	r4, r0
 8002648:	3441      	adds	r4, #65	; 0x41
 800264a:	7822      	ldrb	r2, [r4, #0]
{
 800264c:	0003      	movs	r3, r0
 800264e:	000f      	movs	r7, r1

    return HAL_OK;
  }
  else
  {
    return HAL_BUSY;
 8002650:	2002      	movs	r0, #2
  if (hi2c->State == HAL_I2C_STATE_READY)
 8002652:	b2d6      	uxtb	r6, r2
 8002654:	2a20      	cmp	r2, #32
 8002656:	d118      	bne.n	800268a <HAL_I2CEx_ConfigAnalogFilter+0x46>
    __HAL_LOCK(hi2c);
 8002658:	001d      	movs	r5, r3
 800265a:	3540      	adds	r5, #64	; 0x40
 800265c:	782a      	ldrb	r2, [r5, #0]
 800265e:	2a01      	cmp	r2, #1
 8002660:	d013      	beq.n	800268a <HAL_I2CEx_ConfigAnalogFilter+0x46>
    hi2c->State = HAL_I2C_STATE_BUSY;
 8002662:	2224      	movs	r2, #36	; 0x24
 8002664:	7022      	strb	r2, [r4, #0]
    __HAL_I2C_DISABLE(hi2c);
 8002666:	681b      	ldr	r3, [r3, #0]
 8002668:	3a23      	subs	r2, #35	; 0x23
 800266a:	6819      	ldr	r1, [r3, #0]
    hi2c->Instance->CR1 &= ~(I2C_CR1_ANFOFF);
 800266c:	4807      	ldr	r0, [pc, #28]	; (800268c <HAL_I2CEx_ConfigAnalogFilter+0x48>)
    __HAL_I2C_DISABLE(hi2c);
 800266e:	4391      	bics	r1, r2
 8002670:	6019      	str	r1, [r3, #0]
    hi2c->Instance->CR1 &= ~(I2C_CR1_ANFOFF);
 8002672:	6819      	ldr	r1, [r3, #0]
 8002674:	4001      	ands	r1, r0
    __HAL_UNLOCK(hi2c);
 8002676:	2000      	movs	r0, #0
    hi2c->Instance->CR1 &= ~(I2C_CR1_ANFOFF);
 8002678:	6019      	str	r1, [r3, #0]
    hi2c->Instance->CR1 |= AnalogFilter;
 800267a:	6819      	ldr	r1, [r3, #0]
 800267c:	4339      	orrs	r1, r7
 800267e:	6019      	str	r1, [r3, #0]
    __HAL_I2C_ENABLE(hi2c);
 8002680:	6819      	ldr	r1, [r3, #0]
 8002682:	430a      	orrs	r2, r1
 8002684:	601a      	str	r2, [r3, #0]
    hi2c->State = HAL_I2C_STATE_READY;
 8002686:	7026      	strb	r6, [r4, #0]
    __HAL_UNLOCK(hi2c);
 8002688:	7028      	strb	r0, [r5, #0]
  }
}
 800268a:	bdf0      	pop	{r4, r5, r6, r7, pc}
 800268c:	ffffefff 	.word	0xffffefff

08002690 <HAL_I2CEx_ConfigDigitalFilter>:

  /* Check the parameters */
  assert_param(IS_I2C_ALL_INSTANCE(hi2c->Instance));
  assert_param(IS_I2C_DIGITAL_FILTER(DigitalFilter));

  if (hi2c->State == HAL_I2C_STATE_READY)
 8002690:	0002      	movs	r2, r0
{
 8002692:	b5f0      	push	{r4, r5, r6, r7, lr}
  if (hi2c->State == HAL_I2C_STATE_READY)
 8002694:	3241      	adds	r2, #65	; 0x41
 8002696:	7814      	ldrb	r4, [r2, #0]
{
 8002698:	0003      	movs	r3, r0
  if (hi2c->State == HAL_I2C_STATE_READY)
 800269a:	b2e5      	uxtb	r5, r4

    return HAL_OK;
  }
  else
  {
    return HAL_BUSY;
 800269c:	2002      	movs	r0, #2
  if (hi2c->State == HAL_I2C_STATE_READY)
 800269e:	2c20      	cmp	r4, #32
 80026a0:	d117      	bne.n	80026d2 <HAL_I2CEx_ConfigDigitalFilter+0x42>
    __HAL_LOCK(hi2c);
 80026a2:	001c      	movs	r4, r3
 80026a4:	3440      	adds	r4, #64	; 0x40
 80026a6:	7826      	ldrb	r6, [r4, #0]
 80026a8:	2e01      	cmp	r6, #1
 80026aa:	d012      	beq.n	80026d2 <HAL_I2CEx_ConfigDigitalFilter+0x42>
    hi2c->State = HAL_I2C_STATE_BUSY;
 80026ac:	3022      	adds	r0, #34	; 0x22
 80026ae:	7010      	strb	r0, [r2, #0]
    __HAL_I2C_DISABLE(hi2c);
 80026b0:	681b      	ldr	r3, [r3, #0]
 80026b2:	3823      	subs	r0, #35	; 0x23
 80026b4:	681e      	ldr	r6, [r3, #0]
    tmpreg &= ~(I2C_CR1_DNF);
 80026b6:	4f07      	ldr	r7, [pc, #28]	; (80026d4 <HAL_I2CEx_ConfigDigitalFilter+0x44>)
    __HAL_I2C_DISABLE(hi2c);
 80026b8:	4386      	bics	r6, r0
 80026ba:	601e      	str	r6, [r3, #0]
    tmpreg = hi2c->Instance->CR1;
 80026bc:	681e      	ldr	r6, [r3, #0]
    tmpreg |= DigitalFilter << 8U;
 80026be:	0209      	lsls	r1, r1, #8
    tmpreg &= ~(I2C_CR1_DNF);
 80026c0:	403e      	ands	r6, r7
    tmpreg |= DigitalFilter << 8U;
 80026c2:	4331      	orrs	r1, r6
    hi2c->Instance->CR1 = tmpreg;
 80026c4:	6019      	str	r1, [r3, #0]
    __HAL_I2C_ENABLE(hi2c);
 80026c6:	6819      	ldr	r1, [r3, #0]
 80026c8:	4308      	orrs	r0, r1
 80026ca:	6018      	str	r0, [r3, #0]
    __HAL_UNLOCK(hi2c);
 80026cc:	2000      	movs	r0, #0
    hi2c->State = HAL_I2C_STATE_READY;
 80026ce:	7015      	strb	r5, [r2, #0]
    __HAL_UNLOCK(hi2c);
 80026d0:	7020      	strb	r0, [r4, #0]
  }
}
 80026d2:	bdf0      	pop	{r4, r5, r6, r7, pc}
 80026d4:	fffff0ff 	.word	0xfffff0ff

080026d8 <HAL_PCD_Init>:
  *         parameters in the PCD_InitTypeDef and initialize the associated handle.
  * @param  hpcd PCD handle
  * @retval HAL status
  */
HAL_StatusTypeDef HAL_PCD_Init(PCD_HandleTypeDef *hpcd)
{
 80026d8:	b5f0      	push	{r4, r5, r6, r7, lr}
 80026da:	0004      	movs	r4, r0
  uint8_t i;

  /* Check the PCD handle allocation */
  if (hpcd == NULL)
  {
    return HAL_ERROR;
 80026dc:	2501      	movs	r5, #1
{
 80026de:	b087      	sub	sp, #28
  if (hpcd == NULL)
 80026e0:	2800      	cmp	r0, #0
 80026e2:	d032      	beq.n	800274a <HAL_PCD_Init+0x72>
  }

  /* Check the parameters */
  assert_param(IS_PCD_ALL_INSTANCE(hpcd->Instance));

  if (hpcd->State == HAL_PCD_STATE_RESET)
 80026e4:	4d31      	ldr	r5, [pc, #196]	; (80027ac <HAL_PCD_Init+0xd4>)
 80026e6:	5d43      	ldrb	r3, [r0, r5]
 80026e8:	b2da      	uxtb	r2, r3
 80026ea:	2b00      	cmp	r3, #0
 80026ec:	d104      	bne.n	80026f8 <HAL_PCD_Init+0x20>
  {
    /* Allocate lock resource and initialize it */
    hpcd->Lock = HAL_UNLOCKED;
 80026ee:	23aa      	movs	r3, #170	; 0xaa
 80026f0:	009b      	lsls	r3, r3, #2
 80026f2:	54c2      	strb	r2, [r0, r3]

    /* Init the low level hardware */
    hpcd->MspInitCallback(hpcd);
#else
    /* Init the low level hardware : GPIO, CLOCK, NVIC... */
    HAL_PCD_MspInit(hpcd);
 80026f4:	f003 fc7a 	bl	8005fec <HAL_PCD_MspInit>
#endif /* (USE_HAL_PCD_REGISTER_CALLBACKS) */
  }

  hpcd->State = HAL_PCD_STATE_BUSY;
 80026f8:	2303      	movs	r3, #3
 80026fa:	5563      	strb	r3, [r4, r5]

  /* Disable the Interrupts */
  __HAL_PCD_DISABLE(hpcd);
 80026fc:	6820      	ldr	r0, [r4, #0]
 80026fe:	f002 f8c1 	bl	8004884 <USB_DisableGlobalInt>

  /* Init endpoints structures */
  for (i = 0U; i < hpcd->Init.dev_endpoints; i++)
 8002702:	2300      	movs	r3, #0
  {
    /* Init ep structure */
    hpcd->IN_ep[i].is_in = 1U;
 8002704:	2701      	movs	r7, #1
    hpcd->IN_ep[i].num = i;
    hpcd->IN_ep[i].tx_fifo_num = i;
    /* Control until ep is activated */
    hpcd->IN_ep[i].type = EP_TYPE_CTRL;
 8002706:	0019      	movs	r1, r3
  for (i = 0U; i < hpcd->Init.dev_endpoints; i++)
 8002708:	6860      	ldr	r0, [r4, #4]
 800270a:	4283      	cmp	r3, r0
 800270c:	d320      	bcc.n	8002750 <HAL_PCD_Init+0x78>
    hpcd->IN_ep[i].maxpacket = 0U;
    hpcd->IN_ep[i].xfer_buff = 0U;
    hpcd->IN_ep[i].xfer_len = 0U;
  }

  for (i = 0U; i < hpcd->Init.dev_endpoints; i++)
 800270e:	2200      	movs	r2, #0
  {
    hpcd->OUT_ep[i].is_in = 0U;
 8002710:	2628      	movs	r6, #40	; 0x28
 8002712:	0011      	movs	r1, r2
  for (i = 0U; i < hpcd->Init.dev_endpoints; i++)
 8002714:	4290      	cmp	r0, r2
 8002716:	d834      	bhi.n	8002782 <HAL_PCD_Init+0xaa>
    hpcd->OUT_ep[i].xfer_buff = 0U;
    hpcd->OUT_ep[i].xfer_len = 0U;
  }

  /* Init Device */
  (void)USB_DevInit(hpcd->Instance, hpcd->Init);
 8002718:	0023      	movs	r3, r4
 800271a:	466a      	mov	r2, sp
 800271c:	3310      	adds	r3, #16
 800271e:	cb43      	ldmia	r3!, {r0, r1, r6}
 8002720:	c243      	stmia	r2!, {r0, r1, r6}
 8002722:	cb03      	ldmia	r3!, {r0, r1}
 8002724:	c203      	stmia	r2!, {r0, r1}
 8002726:	68a2      	ldr	r2, [r4, #8]
 8002728:	68e3      	ldr	r3, [r4, #12]
 800272a:	6861      	ldr	r1, [r4, #4]
 800272c:	6820      	ldr	r0, [r4, #0]
 800272e:	f002 f8b3 	bl	8004898 <USB_DevInit>

  hpcd->USB_Address = 0U;
 8002732:	2300      	movs	r3, #0
 8002734:	1d62      	adds	r2, r4, #5
 8002736:	77d3      	strb	r3, [r2, #31]
  hpcd->State = HAL_PCD_STATE_READY;
 8002738:	2201      	movs	r2, #1
 800273a:	5562      	strb	r2, [r4, r5]
  if (hpcd->Init.lpm_enable == 1U)
  {
    (void)HAL_PCDEx_ActivateLPM(hpcd);
  }

  return HAL_OK;
 800273c:	001d      	movs	r5, r3
  if (hpcd->Init.lpm_enable == 1U)
 800273e:	69e3      	ldr	r3, [r4, #28]
 8002740:	4293      	cmp	r3, r2
 8002742:	d102      	bne.n	800274a <HAL_PCD_Init+0x72>
    (void)HAL_PCDEx_ActivateLPM(hpcd);
 8002744:	0020      	movs	r0, r4
 8002746:	f000 fe82 	bl	800344e <HAL_PCDEx_ActivateLPM>
}
 800274a:	0028      	movs	r0, r5
 800274c:	b007      	add	sp, #28
 800274e:	bdf0      	pop	{r4, r5, r6, r7, pc}
    hpcd->IN_ep[i].is_in = 1U;
 8002750:	2629      	movs	r6, #41	; 0x29
 8002752:	2228      	movs	r2, #40	; 0x28
 8002754:	46b4      	mov	ip, r6
 8002756:	435a      	muls	r2, r3
 8002758:	18a2      	adds	r2, r4, r2
 800275a:	4494      	add	ip, r2
 800275c:	4666      	mov	r6, ip
 800275e:	7037      	strb	r7, [r6, #0]
    hpcd->IN_ep[i].num = i;
 8002760:	2628      	movs	r6, #40	; 0x28
 8002762:	46b4      	mov	ip, r6
 8002764:	4494      	add	ip, r2
 8002766:	4666      	mov	r6, ip
 8002768:	7033      	strb	r3, [r6, #0]
    hpcd->IN_ep[i].type = EP_TYPE_CTRL;
 800276a:	262b      	movs	r6, #43	; 0x2b
 800276c:	46b4      	mov	ip, r6
 800276e:	4494      	add	ip, r2
 8002770:	4666      	mov	r6, ip
    hpcd->IN_ep[i].tx_fifo_num = i;
 8002772:	86d3      	strh	r3, [r2, #54]	; 0x36
  for (i = 0U; i < hpcd->Init.dev_endpoints; i++)
 8002774:	3301      	adds	r3, #1
    hpcd->IN_ep[i].type = EP_TYPE_CTRL;
 8002776:	7031      	strb	r1, [r6, #0]
  for (i = 0U; i < hpcd->Init.dev_endpoints; i++)
 8002778:	b2db      	uxtb	r3, r3
    hpcd->IN_ep[i].maxpacket = 0U;
 800277a:	6391      	str	r1, [r2, #56]	; 0x38
    hpcd->IN_ep[i].xfer_buff = 0U;
 800277c:	63d1      	str	r1, [r2, #60]	; 0x3c
    hpcd->IN_ep[i].xfer_len = 0U;
 800277e:	6411      	str	r1, [r2, #64]	; 0x40
  for (i = 0U; i < hpcd->Init.dev_endpoints; i++)
 8002780:	e7c3      	b.n	800270a <HAL_PCD_Init+0x32>
    hpcd->OUT_ep[i].is_in = 0U;
 8002782:	0033      	movs	r3, r6
 8002784:	4353      	muls	r3, r2
 8002786:	18e3      	adds	r3, r4, r3
 8002788:	001f      	movs	r7, r3
 800278a:	376a      	adds	r7, #106	; 0x6a
 800278c:	37ff      	adds	r7, #255	; 0xff
 800278e:	7039      	strb	r1, [r7, #0]
    hpcd->OUT_ep[i].num = i;
 8002790:	3f01      	subs	r7, #1
 8002792:	703a      	strb	r2, [r7, #0]
    hpcd->OUT_ep[i].type = EP_TYPE_CTRL;
 8002794:	70f9      	strb	r1, [r7, #3]
    hpcd->OUT_ep[i].xfer_len = 0U;
 8002796:	3381      	adds	r3, #129	; 0x81
    hpcd->OUT_ep[i].maxpacket = 0U;
 8002798:	3f6c      	subs	r7, #108	; 0x6c
 800279a:	67f9      	str	r1, [r7, #124]	; 0x7c
    hpcd->OUT_ep[i].xfer_len = 0U;
 800279c:	33ff      	adds	r3, #255	; 0xff
    hpcd->OUT_ep[i].xfer_buff = 0U;
 800279e:	3780      	adds	r7, #128	; 0x80
  for (i = 0U; i < hpcd->Init.dev_endpoints; i++)
 80027a0:	3201      	adds	r2, #1
    hpcd->OUT_ep[i].xfer_buff = 0U;
 80027a2:	6039      	str	r1, [r7, #0]
  for (i = 0U; i < hpcd->Init.dev_endpoints; i++)
 80027a4:	b2d2      	uxtb	r2, r2
    hpcd->OUT_ep[i].xfer_len = 0U;
 80027a6:	6019      	str	r1, [r3, #0]
  for (i = 0U; i < hpcd->Init.dev_endpoints; i++)
 80027a8:	e7b4      	b.n	8002714 <HAL_PCD_Init+0x3c>
 80027aa:	46c0      	nop			; (mov r8, r8)
 80027ac:	000002a9 	.word	0x000002a9

080027b0 <HAL_PCD_Start>:
  * @brief  Start the USB device
  * @param  hpcd PCD handle
  * @retval HAL status
  */
HAL_StatusTypeDef HAL_PCD_Start(PCD_HandleTypeDef *hpcd)
{
 80027b0:	b570      	push	{r4, r5, r6, lr}
  __HAL_LOCK(hpcd);
 80027b2:	25aa      	movs	r5, #170	; 0xaa
 80027b4:	00ad      	lsls	r5, r5, #2
 80027b6:	5d43      	ldrb	r3, [r0, r5]
{
 80027b8:	0004      	movs	r4, r0
  __HAL_LOCK(hpcd);
 80027ba:	2002      	movs	r0, #2
 80027bc:	2b01      	cmp	r3, #1
 80027be:	d009      	beq.n	80027d4 <HAL_PCD_Start+0x24>
 80027c0:	2301      	movs	r3, #1
 80027c2:	5563      	strb	r3, [r4, r5]
  __HAL_PCD_ENABLE(hpcd);
 80027c4:	6820      	ldr	r0, [r4, #0]
 80027c6:	f002 f853 	bl	8004870 <USB_EnableGlobalInt>
  (void)USB_DevConnect(hpcd->Instance);
 80027ca:	6820      	ldr	r0, [r4, #0]
 80027cc:	f002 fab3 	bl	8004d36 <USB_DevConnect>
  __HAL_UNLOCK(hpcd);
 80027d0:	2000      	movs	r0, #0
 80027d2:	5560      	strb	r0, [r4, r5]

  return HAL_OK;
}
 80027d4:	bd70      	pop	{r4, r5, r6, pc}

080027d6 <HAL_PCD_SetAddress>:
  * @param  hpcd PCD handle
  * @param  address new device address
  * @retval HAL status
  */
HAL_StatusTypeDef HAL_PCD_SetAddress(PCD_HandleTypeDef *hpcd, uint8_t address)
{
 80027d6:	b570      	push	{r4, r5, r6, lr}
  __HAL_LOCK(hpcd);
 80027d8:	25aa      	movs	r5, #170	; 0xaa
 80027da:	00ad      	lsls	r5, r5, #2
 80027dc:	5d43      	ldrb	r3, [r0, r5]
{
 80027de:	0004      	movs	r4, r0
  __HAL_LOCK(hpcd);
 80027e0:	2002      	movs	r0, #2
 80027e2:	2b01      	cmp	r3, #1
 80027e4:	d008      	beq.n	80027f8 <HAL_PCD_SetAddress+0x22>
 80027e6:	2301      	movs	r3, #1
 80027e8:	5563      	strb	r3, [r4, r5]
  hpcd->USB_Address = address;
 80027ea:	1d63      	adds	r3, r4, #5
 80027ec:	77d9      	strb	r1, [r3, #31]
  (void)USB_SetDevAddress(hpcd->Instance, address);
 80027ee:	6820      	ldr	r0, [r4, #0]
 80027f0:	f002 fa9a 	bl	8004d28 <USB_SetDevAddress>
  __HAL_UNLOCK(hpcd);
 80027f4:	2000      	movs	r0, #0
 80027f6:	5560      	strb	r0, [r4, r5]

  return HAL_OK;
}
 80027f8:	bd70      	pop	{r4, r5, r6, pc}
	...

080027fc <HAL_PCD_IRQHandler>:
{
 80027fc:	b5f0      	push	{r4, r5, r6, r7, lr}
 80027fe:	0004      	movs	r4, r0
 8002800:	b085      	sub	sp, #20
  if (__HAL_PCD_GET_FLAG(hpcd, USB_ISTR_CTR))
 8002802:	6800      	ldr	r0, [r0, #0]
 8002804:	f002 fa9f 	bl	8004d46 <USB_ReadInterrupts>
 8002808:	0403      	lsls	r3, r0, #16
 800280a:	d500      	bpl.n	800280e <HAL_PCD_IRQHandler+0x12>
 800280c:	e0db      	b.n	80029c6 <HAL_PCD_IRQHandler+0x1ca>
  if (__HAL_PCD_GET_FLAG(hpcd, USB_ISTR_RESET))
 800280e:	6820      	ldr	r0, [r4, #0]
 8002810:	f002 fa99 	bl	8004d46 <USB_ReadInterrupts>
 8002814:	0543      	lsls	r3, r0, #21
 8002816:	d50c      	bpl.n	8002832 <HAL_PCD_IRQHandler+0x36>
    __HAL_PCD_CLEAR_FLAG(hpcd, USB_ISTR_RESET);
 8002818:	6823      	ldr	r3, [r4, #0]
 800281a:	49b3      	ldr	r1, [pc, #716]	; (8002ae8 <HAL_PCD_IRQHandler+0x2ec>)
 800281c:	3306      	adds	r3, #6
 800281e:	8fda      	ldrh	r2, [r3, #62]	; 0x3e
    HAL_PCD_ResetCallback(hpcd);
 8002820:	0020      	movs	r0, r4
    __HAL_PCD_CLEAR_FLAG(hpcd, USB_ISTR_RESET);
 8002822:	400a      	ands	r2, r1
 8002824:	87da      	strh	r2, [r3, #62]	; 0x3e
    HAL_PCD_ResetCallback(hpcd);
 8002826:	f003 fc25 	bl	8006074 <HAL_PCD_ResetCallback>
    (void)HAL_PCD_SetAddress(hpcd, 0U);
 800282a:	2100      	movs	r1, #0
 800282c:	0020      	movs	r0, r4
 800282e:	f7ff ffd2 	bl	80027d6 <HAL_PCD_SetAddress>
  if (__HAL_PCD_GET_FLAG(hpcd, USB_ISTR_PMAOVR))
 8002832:	6820      	ldr	r0, [r4, #0]
 8002834:	f002 fa87 	bl	8004d46 <USB_ReadInterrupts>
 8002838:	0443      	lsls	r3, r0, #17
 800283a:	d505      	bpl.n	8002848 <HAL_PCD_IRQHandler+0x4c>
    __HAL_PCD_CLEAR_FLAG(hpcd, USB_ISTR_PMAOVR);
 800283c:	6823      	ldr	r3, [r4, #0]
 800283e:	49ab      	ldr	r1, [pc, #684]	; (8002aec <HAL_PCD_IRQHandler+0x2f0>)
 8002840:	3306      	adds	r3, #6
 8002842:	8fda      	ldrh	r2, [r3, #62]	; 0x3e
 8002844:	400a      	ands	r2, r1
 8002846:	87da      	strh	r2, [r3, #62]	; 0x3e
  if (__HAL_PCD_GET_FLAG(hpcd, USB_ISTR_ERR))
 8002848:	6820      	ldr	r0, [r4, #0]
 800284a:	f002 fa7c 	bl	8004d46 <USB_ReadInterrupts>
 800284e:	0483      	lsls	r3, r0, #18
 8002850:	d505      	bpl.n	800285e <HAL_PCD_IRQHandler+0x62>
    __HAL_PCD_CLEAR_FLAG(hpcd, USB_ISTR_ERR);
 8002852:	6823      	ldr	r3, [r4, #0]
 8002854:	49a6      	ldr	r1, [pc, #664]	; (8002af0 <HAL_PCD_IRQHandler+0x2f4>)
 8002856:	3306      	adds	r3, #6
 8002858:	8fda      	ldrh	r2, [r3, #62]	; 0x3e
 800285a:	400a      	ands	r2, r1
 800285c:	87da      	strh	r2, [r3, #62]	; 0x3e
  if (__HAL_PCD_GET_FLAG(hpcd, USB_ISTR_WKUP))
 800285e:	6820      	ldr	r0, [r4, #0]
 8002860:	f002 fa71 	bl	8004d46 <USB_ReadInterrupts>
 8002864:	04c3      	lsls	r3, r0, #19
 8002866:	d51c      	bpl.n	80028a2 <HAL_PCD_IRQHandler+0xa6>
    hpcd->Instance->CNTR &= (uint16_t) ~(USB_CNTR_LPMODE);
 8002868:	2104      	movs	r1, #4
 800286a:	6823      	ldr	r3, [r4, #0]
 800286c:	3302      	adds	r3, #2
 800286e:	8fda      	ldrh	r2, [r3, #62]	; 0x3e
 8002870:	438a      	bics	r2, r1
 8002872:	87da      	strh	r2, [r3, #62]	; 0x3e
    hpcd->Instance->CNTR &= (uint16_t) ~(USB_CNTR_FSUSP);
 8002874:	8fda      	ldrh	r2, [r3, #62]	; 0x3e
 8002876:	1849      	adds	r1, r1, r1
 8002878:	438a      	bics	r2, r1
 800287a:	87da      	strh	r2, [r3, #62]	; 0x3e
    if (hpcd->LPM_State == LPM_L1)
 800287c:	23b8      	movs	r3, #184	; 0xb8
 800287e:	009b      	lsls	r3, r3, #2
 8002880:	5ce2      	ldrb	r2, [r4, r3]
 8002882:	2a01      	cmp	r2, #1
 8002884:	d104      	bne.n	8002890 <HAL_PCD_IRQHandler+0x94>
      hpcd->LPM_State = LPM_L0;
 8002886:	2100      	movs	r1, #0
      HAL_PCDEx_LPM_Callback(hpcd, PCD_LPM_L0_ACTIVE);
 8002888:	0020      	movs	r0, r4
      hpcd->LPM_State = LPM_L0;
 800288a:	54e1      	strb	r1, [r4, r3]
      HAL_PCDEx_LPM_Callback(hpcd, PCD_LPM_L0_ACTIVE);
 800288c:	f000 fdf3 	bl	8003476 <HAL_PCDEx_LPM_Callback>
    HAL_PCD_ResumeCallback(hpcd);
 8002890:	0020      	movs	r0, r4
 8002892:	f003 fc13 	bl	80060bc <HAL_PCD_ResumeCallback>
    __HAL_PCD_CLEAR_FLAG(hpcd, USB_ISTR_WKUP);
 8002896:	6823      	ldr	r3, [r4, #0]
 8002898:	4996      	ldr	r1, [pc, #600]	; (8002af4 <HAL_PCD_IRQHandler+0x2f8>)
 800289a:	3306      	adds	r3, #6
 800289c:	8fda      	ldrh	r2, [r3, #62]	; 0x3e
 800289e:	400a      	ands	r2, r1
 80028a0:	87da      	strh	r2, [r3, #62]	; 0x3e
  if (__HAL_PCD_GET_FLAG(hpcd, USB_ISTR_SUSP))
 80028a2:	6820      	ldr	r0, [r4, #0]
 80028a4:	f002 fa4f 	bl	8004d46 <USB_ReadInterrupts>
 80028a8:	0503      	lsls	r3, r0, #20
 80028aa:	d511      	bpl.n	80028d0 <HAL_PCD_IRQHandler+0xd4>
    hpcd->Instance->CNTR |= (uint16_t)USB_CNTR_FSUSP;
 80028ac:	2108      	movs	r1, #8
 80028ae:	6823      	ldr	r3, [r4, #0]
 80028b0:	1c9a      	adds	r2, r3, #2
 80028b2:	8fd0      	ldrh	r0, [r2, #62]	; 0x3e
    __HAL_PCD_CLEAR_FLAG(hpcd, USB_ISTR_SUSP);
 80028b4:	3306      	adds	r3, #6
    hpcd->Instance->CNTR |= (uint16_t)USB_CNTR_FSUSP;
 80028b6:	4301      	orrs	r1, r0
 80028b8:	87d1      	strh	r1, [r2, #62]	; 0x3e
    __HAL_PCD_CLEAR_FLAG(hpcd, USB_ISTR_SUSP);
 80028ba:	8fd9      	ldrh	r1, [r3, #62]	; 0x3e
 80028bc:	488e      	ldr	r0, [pc, #568]	; (8002af8 <HAL_PCD_IRQHandler+0x2fc>)
 80028be:	4001      	ands	r1, r0
 80028c0:	87d9      	strh	r1, [r3, #62]	; 0x3e
    hpcd->Instance->CNTR |= (uint16_t)USB_CNTR_LPMODE;
 80028c2:	2304      	movs	r3, #4
 80028c4:	8fd1      	ldrh	r1, [r2, #62]	; 0x3e
    HAL_PCD_SuspendCallback(hpcd);
 80028c6:	0020      	movs	r0, r4
    hpcd->Instance->CNTR |= (uint16_t)USB_CNTR_LPMODE;
 80028c8:	430b      	orrs	r3, r1
 80028ca:	87d3      	strh	r3, [r2, #62]	; 0x3e
    HAL_PCD_SuspendCallback(hpcd);
 80028cc:	f003 fbe4 	bl	8006098 <HAL_PCD_SuspendCallback>
  if (__HAL_PCD_GET_FLAG(hpcd, USB_ISTR_L1REQ))
 80028d0:	6820      	ldr	r0, [r4, #0]
 80028d2:	f002 fa38 	bl	8004d46 <USB_ReadInterrupts>
 80028d6:	2580      	movs	r5, #128	; 0x80
 80028d8:	4228      	tst	r0, r5
 80028da:	d021      	beq.n	8002920 <HAL_PCD_IRQHandler+0x124>
    if (hpcd->LPM_State == LPM_L0)
 80028dc:	20b8      	movs	r0, #184	; 0xb8
    __HAL_PCD_CLEAR_FLAG(hpcd, USB_ISTR_L1REQ);
 80028de:	6823      	ldr	r3, [r4, #0]
    if (hpcd->LPM_State == LPM_L0)
 80028e0:	0080      	lsls	r0, r0, #2
    __HAL_PCD_CLEAR_FLAG(hpcd, USB_ISTR_L1REQ);
 80028e2:	1d99      	adds	r1, r3, #6
 80028e4:	8fca      	ldrh	r2, [r1, #62]	; 0x3e
 80028e6:	43aa      	bics	r2, r5
 80028e8:	87ca      	strh	r2, [r1, #62]	; 0x3e
    if (hpcd->LPM_State == LPM_L0)
 80028ea:	5c22      	ldrb	r2, [r4, r0]
 80028ec:	2a00      	cmp	r2, #0
 80028ee:	d001      	beq.n	80028f4 <HAL_PCD_IRQHandler+0xf8>
 80028f0:	f000 fc95 	bl	800321e <HAL_PCD_IRQHandler+0xa22>
      hpcd->Instance->CNTR |= (uint16_t)USB_CNTR_LPMODE;
 80028f4:	1c99      	adds	r1, r3, #2
 80028f6:	8fcd      	ldrh	r5, [r1, #62]	; 0x3e
 80028f8:	3204      	adds	r2, #4
 80028fa:	432a      	orrs	r2, r5
 80028fc:	87ca      	strh	r2, [r1, #62]	; 0x3e
      hpcd->Instance->CNTR |= (uint16_t)USB_CNTR_FSUSP;
 80028fe:	2208      	movs	r2, #8
 8002900:	8fcd      	ldrh	r5, [r1, #62]	; 0x3e
      hpcd->BESL = ((uint32_t)hpcd->Instance->LPMCSR & USB_LPMCSR_BESL) >> 2;
 8002902:	3354      	adds	r3, #84	; 0x54
      hpcd->Instance->CNTR |= (uint16_t)USB_CNTR_FSUSP;
 8002904:	432a      	orrs	r2, r5
 8002906:	87ca      	strh	r2, [r1, #62]	; 0x3e
      hpcd->LPM_State = LPM_L1;
 8002908:	2101      	movs	r1, #1
      hpcd->BESL = ((uint32_t)hpcd->Instance->LPMCSR & USB_LPMCSR_BESL) >> 2;
 800290a:	223c      	movs	r2, #60	; 0x3c
      hpcd->LPM_State = LPM_L1;
 800290c:	5421      	strb	r1, [r4, r0]
      hpcd->BESL = ((uint32_t)hpcd->Instance->LPMCSR & USB_LPMCSR_BESL) >> 2;
 800290e:	881b      	ldrh	r3, [r3, #0]
      HAL_PCDEx_LPM_Callback(hpcd, PCD_LPM_L1_ACTIVE);
 8002910:	0020      	movs	r0, r4
      hpcd->BESL = ((uint32_t)hpcd->Instance->LPMCSR & USB_LPMCSR_BESL) >> 2;
 8002912:	089b      	lsrs	r3, r3, #2
 8002914:	4013      	ands	r3, r2
 8002916:	22b9      	movs	r2, #185	; 0xb9
 8002918:	0092      	lsls	r2, r2, #2
 800291a:	50a3      	str	r3, [r4, r2]
      HAL_PCDEx_LPM_Callback(hpcd, PCD_LPM_L1_ACTIVE);
 800291c:	f000 fdab 	bl	8003476 <HAL_PCDEx_LPM_Callback>
  if (__HAL_PCD_GET_FLAG(hpcd, USB_ISTR_SOF))
 8002920:	6820      	ldr	r0, [r4, #0]
 8002922:	f002 fa10 	bl	8004d46 <USB_ReadInterrupts>
 8002926:	0583      	lsls	r3, r0, #22
 8002928:	d508      	bpl.n	800293c <HAL_PCD_IRQHandler+0x140>
    __HAL_PCD_CLEAR_FLAG(hpcd, USB_ISTR_SOF);
 800292a:	6823      	ldr	r3, [r4, #0]
 800292c:	4973      	ldr	r1, [pc, #460]	; (8002afc <HAL_PCD_IRQHandler+0x300>)
 800292e:	3306      	adds	r3, #6
 8002930:	8fda      	ldrh	r2, [r3, #62]	; 0x3e
    HAL_PCD_SOFCallback(hpcd);
 8002932:	0020      	movs	r0, r4
    __HAL_PCD_CLEAR_FLAG(hpcd, USB_ISTR_SOF);
 8002934:	400a      	ands	r2, r1
 8002936:	87da      	strh	r2, [r3, #62]	; 0x3e
    HAL_PCD_SOFCallback(hpcd);
 8002938:	f003 fb95 	bl	8006066 <HAL_PCD_SOFCallback>
  if (__HAL_PCD_GET_FLAG(hpcd, USB_ISTR_ESOF))
 800293c:	6820      	ldr	r0, [r4, #0]
 800293e:	f002 fa02 	bl	8004d46 <USB_ReadInterrupts>
 8002942:	05c3      	lsls	r3, r0, #23
 8002944:	d505      	bpl.n	8002952 <HAL_PCD_IRQHandler+0x156>
    __HAL_PCD_CLEAR_FLAG(hpcd, USB_ISTR_ESOF);
 8002946:	6823      	ldr	r3, [r4, #0]
 8002948:	496d      	ldr	r1, [pc, #436]	; (8002b00 <HAL_PCD_IRQHandler+0x304>)
 800294a:	3306      	adds	r3, #6
 800294c:	8fda      	ldrh	r2, [r3, #62]	; 0x3e
 800294e:	400a      	ands	r2, r1
 8002950:	87da      	strh	r2, [r3, #62]	; 0x3e
}
 8002952:	b005      	add	sp, #20
 8002954:	bdf0      	pop	{r4, r5, r6, r7, pc}
  while ((hpcd->Instance->ISTR & USB_ISTR_CTR) != 0U)
  {
    wIstr = hpcd->Instance->ISTR;

    /* extract highest priority endpoint number */
    epindex = (uint8_t)(wIstr & USB_ISTR_EP_ID);
 8002956:	210f      	movs	r1, #15
    wIstr = hpcd->Instance->ISTR;
 8002958:	8fd3      	ldrh	r3, [r2, #62]	; 0x3e
    epindex = (uint8_t)(wIstr & USB_ISTR_EP_ID);
 800295a:	4019      	ands	r1, r3
 800295c:	9100      	str	r1, [sp, #0]

    if (epindex == 0U)
 800295e:	210f      	movs	r1, #15
    wIstr = hpcd->Instance->ISTR;
 8002960:	b29a      	uxth	r2, r3
    if (epindex == 0U)
 8002962:	420b      	tst	r3, r1
 8002964:	d000      	beq.n	8002968 <HAL_PCD_IRQHandler+0x16c>
 8002966:	e0dd      	b.n	8002b24 <HAL_PCD_IRQHandler+0x328>
    {
      /* Decode and service control endpoint interrupt */

      /* DIR bit = origin of the interrupt */
      if ((wIstr & USB_ISTR_DIR) == 0U)
 8002968:	2310      	movs	r3, #16
 800296a:	0011      	movs	r1, r2
 800296c:	4019      	ands	r1, r3
 800296e:	421a      	tst	r2, r3
 8002970:	d130      	bne.n	80029d4 <HAL_PCD_IRQHandler+0x1d8>
      {
        /* DIR = 0 */

        /* DIR = 0 => IN  int */
        /* DIR = 0 implies that (EP_CTR_TX = 1) always */
        PCD_CLEAR_TX_EP_CTR(hpcd->Instance, PCD_ENDP0);
 8002972:	8803      	ldrh	r3, [r0, #0]
 8002974:	4a63      	ldr	r2, [pc, #396]	; (8002b04 <HAL_PCD_IRQHandler+0x308>)
 8002976:	4013      	ands	r3, r2
 8002978:	2280      	movs	r2, #128	; 0x80
 800297a:	0212      	lsls	r2, r2, #8
 800297c:	4313      	orrs	r3, r2
 800297e:	8003      	strh	r3, [r0, #0]
        ep = &hpcd->IN_ep[0];

        ep->xfer_count = PCD_GET_EP_TX_CNT(hpcd->Instance, ep->num);
 8002980:	0003      	movs	r3, r0
 8002982:	3350      	adds	r3, #80	; 0x50
 8002984:	881a      	ldrh	r2, [r3, #0]
 8002986:	0023      	movs	r3, r4
 8002988:	3328      	adds	r3, #40	; 0x28
 800298a:	781b      	ldrb	r3, [r3, #0]
 800298c:	00db      	lsls	r3, r3, #3
 800298e:	18c3      	adds	r3, r0, r3
 8002990:	189b      	adds	r3, r3, r2
 8002992:	4a5d      	ldr	r2, [pc, #372]	; (8002b08 <HAL_PCD_IRQHandler+0x30c>)

        /* TX COMPLETE */
#if (USE_HAL_PCD_REGISTER_CALLBACKS == 1U)
        hpcd->DataInStageCallback(hpcd, 0U);
#else
        HAL_PCD_DataInStageCallback(hpcd, 0U);
 8002994:	0020      	movs	r0, r4
        ep->xfer_count = PCD_GET_EP_TX_CNT(hpcd->Instance, ep->num);
 8002996:	189b      	adds	r3, r3, r2
 8002998:	881b      	ldrh	r3, [r3, #0]
        ep->xfer_buff += ep->xfer_count;
 800299a:	6be2      	ldr	r2, [r4, #60]	; 0x3c
        ep->xfer_count = PCD_GET_EP_TX_CNT(hpcd->Instance, ep->num);
 800299c:	059b      	lsls	r3, r3, #22
 800299e:	0d9b      	lsrs	r3, r3, #22
 80029a0:	6463      	str	r3, [r4, #68]	; 0x44
        ep->xfer_buff += ep->xfer_count;
 80029a2:	18d3      	adds	r3, r2, r3
 80029a4:	63e3      	str	r3, [r4, #60]	; 0x3c
        HAL_PCD_DataInStageCallback(hpcd, 0U);
 80029a6:	f003 fb53 	bl	8006050 <HAL_PCD_DataInStageCallback>
#endif /* USE_HAL_PCD_REGISTER_CALLBACKS */

        if ((hpcd->USB_Address > 0U) && (ep->xfer_len == 0U))
 80029aa:	1d63      	adds	r3, r4, #5
 80029ac:	7fda      	ldrb	r2, [r3, #31]
 80029ae:	2a00      	cmp	r2, #0
 80029b0:	d009      	beq.n	80029c6 <HAL_PCD_IRQHandler+0x1ca>
 80029b2:	6c20      	ldr	r0, [r4, #64]	; 0x40
 80029b4:	2800      	cmp	r0, #0
 80029b6:	d106      	bne.n	80029c6 <HAL_PCD_IRQHandler+0x1ca>
        {
          hpcd->Instance->DADDR = ((uint16_t)hpcd->USB_Address | USB_DADDR_EF);
 80029b8:	2280      	movs	r2, #128	; 0x80
 80029ba:	7fd9      	ldrb	r1, [r3, #31]
 80029bc:	4311      	orrs	r1, r2
 80029be:	6822      	ldr	r2, [r4, #0]
 80029c0:	324c      	adds	r2, #76	; 0x4c
 80029c2:	8011      	strh	r1, [r2, #0]
          hpcd->USB_Address = 0U;
 80029c4:	77d8      	strb	r0, [r3, #31]
  while ((hpcd->Instance->ISTR & USB_ISTR_CTR) != 0U)
 80029c6:	6820      	ldr	r0, [r4, #0]
 80029c8:	1d82      	adds	r2, r0, #6
 80029ca:	8fd3      	ldrh	r3, [r2, #62]	; 0x3e
 80029cc:	b21b      	sxth	r3, r3
 80029ce:	2b00      	cmp	r3, #0
 80029d0:	dbc1      	blt.n	8002956 <HAL_PCD_IRQHandler+0x15a>
 80029d2:	e71c      	b.n	800280e <HAL_PCD_IRQHandler+0x12>
        /* DIR = 1 */

        /* DIR = 1 & CTR_RX => SETUP or OUT int */
        /* DIR = 1 & (CTR_TX | CTR_RX) => 2 int pending */
        ep = &hpcd->OUT_ep[0];
        wEPVal = PCD_GET_ENDPOINT(hpcd->Instance, PCD_ENDP0);
 80029d4:	8802      	ldrh	r2, [r0, #0]

        if ((wEPVal & USB_EP_SETUP) != 0U)
 80029d6:	2180      	movs	r1, #128	; 0x80
 80029d8:	0016      	movs	r6, r2
 80029da:	0109      	lsls	r1, r1, #4
        wEPVal = PCD_GET_ENDPOINT(hpcd->Instance, PCD_ENDP0);
 80029dc:	b293      	uxth	r3, r2
        if ((wEPVal & USB_EP_SETUP) != 0U)
 80029de:	400e      	ands	r6, r1
 80029e0:	420a      	tst	r2, r1
 80029e2:	d022      	beq.n	8002a2a <HAL_PCD_IRQHandler+0x22e>
        {
          /* Get SETUP Packet */
          ep->xfer_count = PCD_GET_EP_RX_CNT(hpcd->Instance, ep->num);
 80029e4:	0003      	movs	r3, r0
 80029e6:	3350      	adds	r3, #80	; 0x50
 80029e8:	881a      	ldrh	r2, [r3, #0]
 80029ea:	23b4      	movs	r3, #180	; 0xb4
 80029ec:	005b      	lsls	r3, r3, #1
 80029ee:	5ce3      	ldrb	r3, [r4, r3]

          USB_ReadPMA(hpcd->Instance, (uint8_t *)hpcd->Setup,
 80029f0:	21ac      	movs	r1, #172	; 0xac
          ep->xfer_count = PCD_GET_EP_RX_CNT(hpcd->Instance, ep->num);
 80029f2:	00db      	lsls	r3, r3, #3
 80029f4:	18c3      	adds	r3, r0, r3
 80029f6:	189b      	adds	r3, r3, r2
 80029f8:	4a44      	ldr	r2, [pc, #272]	; (8002b0c <HAL_PCD_IRQHandler+0x310>)
          USB_ReadPMA(hpcd->Instance, (uint8_t *)hpcd->Setup,
 80029fa:	0089      	lsls	r1, r1, #2
          ep->xfer_count = PCD_GET_EP_RX_CNT(hpcd->Instance, ep->num);
 80029fc:	189b      	adds	r3, r3, r2
 80029fe:	0022      	movs	r2, r4
 8002a00:	881b      	ldrh	r3, [r3, #0]
 8002a02:	3269      	adds	r2, #105	; 0x69
 8002a04:	059b      	lsls	r3, r3, #22
 8002a06:	0d9b      	lsrs	r3, r3, #22
 8002a08:	32ff      	adds	r2, #255	; 0xff
 8002a0a:	61d3      	str	r3, [r2, #28]
          USB_ReadPMA(hpcd->Instance, (uint8_t *)hpcd->Setup,
 8002a0c:	1861      	adds	r1, r4, r1
 8002a0e:	88d2      	ldrh	r2, [r2, #6]
 8002a10:	f002 fc5c 	bl	80052cc <USB_ReadPMA>
                      ep->pmaadress, (uint16_t)ep->xfer_count);

          /* SETUP bit kept frozen while CTR_RX = 1 */
          PCD_CLEAR_RX_EP_CTR(hpcd->Instance, PCD_ENDP0);
 8002a14:	6822      	ldr	r2, [r4, #0]
 8002a16:	493e      	ldr	r1, [pc, #248]	; (8002b10 <HAL_PCD_IRQHandler+0x314>)
 8002a18:	8813      	ldrh	r3, [r2, #0]

          /* Process SETUP Packet*/
#if (USE_HAL_PCD_REGISTER_CALLBACKS == 1U)
          hpcd->SetupStageCallback(hpcd);
#else
          HAL_PCD_SetupStageCallback(hpcd);
 8002a1a:	0020      	movs	r0, r4
          PCD_CLEAR_RX_EP_CTR(hpcd->Instance, PCD_ENDP0);
 8002a1c:	400b      	ands	r3, r1
 8002a1e:	2180      	movs	r1, #128	; 0x80
 8002a20:	430b      	orrs	r3, r1
 8002a22:	8013      	strh	r3, [r2, #0]
          HAL_PCD_SetupStageCallback(hpcd);
 8002a24:	f003 fafe 	bl	8006024 <HAL_PCD_SetupStageCallback>
 8002a28:	e7cd      	b.n	80029c6 <HAL_PCD_IRQHandler+0x1ca>
#endif /* USE_HAL_PCD_REGISTER_CALLBACKS */
        }
        else if ((wEPVal & USB_EP_CTR_RX) != 0U)
 8002a2a:	b21b      	sxth	r3, r3
 8002a2c:	2b00      	cmp	r3, #0
 8002a2e:	daca      	bge.n	80029c6 <HAL_PCD_IRQHandler+0x1ca>
        {
          PCD_CLEAR_RX_EP_CTR(hpcd->Instance, PCD_ENDP0);
 8002a30:	8803      	ldrh	r3, [r0, #0]
 8002a32:	4a37      	ldr	r2, [pc, #220]	; (8002b10 <HAL_PCD_IRQHandler+0x314>)

          /* Get Control Data OUT Packet */
          ep->xfer_count = PCD_GET_EP_RX_CNT(hpcd->Instance, ep->num);
 8002a34:	0025      	movs	r5, r4
          PCD_CLEAR_RX_EP_CTR(hpcd->Instance, PCD_ENDP0);
 8002a36:	4013      	ands	r3, r2
 8002a38:	2280      	movs	r2, #128	; 0x80
 8002a3a:	4313      	orrs	r3, r2
 8002a3c:	8003      	strh	r3, [r0, #0]
          ep->xfer_count = PCD_GET_EP_RX_CNT(hpcd->Instance, ep->num);
 8002a3e:	0003      	movs	r3, r0
 8002a40:	3350      	adds	r3, #80	; 0x50
 8002a42:	881a      	ldrh	r2, [r3, #0]
 8002a44:	23b4      	movs	r3, #180	; 0xb4
 8002a46:	005b      	lsls	r3, r3, #1
 8002a48:	5ce3      	ldrb	r3, [r4, r3]
 8002a4a:	3569      	adds	r5, #105	; 0x69
 8002a4c:	00db      	lsls	r3, r3, #3
 8002a4e:	18c3      	adds	r3, r0, r3
 8002a50:	189b      	adds	r3, r3, r2
 8002a52:	4a2e      	ldr	r2, [pc, #184]	; (8002b0c <HAL_PCD_IRQHandler+0x310>)
 8002a54:	35ff      	adds	r5, #255	; 0xff
 8002a56:	189b      	adds	r3, r3, r2
 8002a58:	881b      	ldrh	r3, [r3, #0]
 8002a5a:	059b      	lsls	r3, r3, #22
 8002a5c:	0d9b      	lsrs	r3, r3, #22
 8002a5e:	61eb      	str	r3, [r5, #28]

          if ((ep->xfer_count != 0U) && (ep->xfer_buff != 0U))
 8002a60:	d00d      	beq.n	8002a7e <HAL_PCD_IRQHandler+0x282>
 8002a62:	6969      	ldr	r1, [r5, #20]
 8002a64:	2900      	cmp	r1, #0
 8002a66:	d00a      	beq.n	8002a7e <HAL_PCD_IRQHandler+0x282>
          {
            USB_ReadPMA(hpcd->Instance, ep->xfer_buff,
 8002a68:	88ea      	ldrh	r2, [r5, #6]
 8002a6a:	f002 fc2f 	bl	80052cc <USB_ReadPMA>
                        ep->pmaadress, (uint16_t)ep->xfer_count);

            ep->xfer_buff += ep->xfer_count;
 8002a6e:	696b      	ldr	r3, [r5, #20]
 8002a70:	69ea      	ldr	r2, [r5, #28]

            /* Process Control Data OUT Packet */
#if (USE_HAL_PCD_REGISTER_CALLBACKS == 1U)
            hpcd->DataOutStageCallback(hpcd, 0U);
#else
            HAL_PCD_DataOutStageCallback(hpcd, 0U);
 8002a72:	0031      	movs	r1, r6
            ep->xfer_buff += ep->xfer_count;
 8002a74:	189b      	adds	r3, r3, r2
            HAL_PCD_DataOutStageCallback(hpcd, 0U);
 8002a76:	0020      	movs	r0, r4
            ep->xfer_buff += ep->xfer_count;
 8002a78:	616b      	str	r3, [r5, #20]
            HAL_PCD_DataOutStageCallback(hpcd, 0U);
 8002a7a:	f003 fadc 	bl	8006036 <HAL_PCD_DataOutStageCallback>
#endif /* USE_HAL_PCD_REGISTER_CALLBACKS */
          }

          if ((PCD_GET_ENDPOINT(hpcd->Instance, PCD_ENDP0) & USB_EP_SETUP) == 0U)
 8002a7e:	6821      	ldr	r1, [r4, #0]
 8002a80:	880b      	ldrh	r3, [r1, #0]
 8002a82:	051b      	lsls	r3, r3, #20
 8002a84:	d49f      	bmi.n	80029c6 <HAL_PCD_IRQHandler+0x1ca>
          {
            PCD_SET_EP_RX_CNT(hpcd->Instance, PCD_ENDP0, ep->maxpacket);
 8002a86:	000b      	movs	r3, r1
 8002a88:	4a20      	ldr	r2, [pc, #128]	; (8002b0c <HAL_PCD_IRQHandler+0x310>)
 8002a8a:	3350      	adds	r3, #80	; 0x50
 8002a8c:	881b      	ldrh	r3, [r3, #0]
 8002a8e:	188a      	adds	r2, r1, r2
 8002a90:	18d2      	adds	r2, r2, r3
 8002a92:	692b      	ldr	r3, [r5, #16]
 8002a94:	2b00      	cmp	r3, #0
 8002a96:	d109      	bne.n	8002aac <HAL_PCD_IRQHandler+0x2b0>
 8002a98:	8813      	ldrh	r3, [r2, #0]
 8002a9a:	481e      	ldr	r0, [pc, #120]	; (8002b14 <HAL_PCD_IRQHandler+0x318>)
 8002a9c:	4003      	ands	r3, r0
 8002a9e:	2080      	movs	r0, #128	; 0x80
 8002aa0:	8013      	strh	r3, [r2, #0]
 8002aa2:	8813      	ldrh	r3, [r2, #0]
 8002aa4:	0200      	lsls	r0, r0, #8
 8002aa6:	4303      	orrs	r3, r0
 8002aa8:	8013      	strh	r3, [r2, #0]
 8002aaa:	e008      	b.n	8002abe <HAL_PCD_IRQHandler+0x2c2>
 8002aac:	2b3e      	cmp	r3, #62	; 0x3e
 8002aae:	d810      	bhi.n	8002ad2 <HAL_PCD_IRQHandler+0x2d6>
 8002ab0:	2501      	movs	r5, #1
 8002ab2:	0858      	lsrs	r0, r3, #1
 8002ab4:	402b      	ands	r3, r5
 8002ab6:	18c0      	adds	r0, r0, r3
 8002ab8:	0280      	lsls	r0, r0, #10
 8002aba:	b280      	uxth	r0, r0
 8002abc:	8010      	strh	r0, [r2, #0]
            PCD_SET_EP_RX_STATUS(hpcd->Instance, PCD_ENDP0, USB_EP_RX_VALID);
 8002abe:	880b      	ldrh	r3, [r1, #0]
 8002ac0:	4a15      	ldr	r2, [pc, #84]	; (8002b18 <HAL_PCD_IRQHandler+0x31c>)
 8002ac2:	401a      	ands	r2, r3
 8002ac4:	23c0      	movs	r3, #192	; 0xc0
 8002ac6:	019b      	lsls	r3, r3, #6
      }
    }
  }

  /*enable endpoint IN*/
  PCD_SET_EP_TX_STATUS(hpcd->Instance, ep->num, USB_EP_TX_VALID);
 8002ac8:	4053      	eors	r3, r2
 8002aca:	4a14      	ldr	r2, [pc, #80]	; (8002b1c <HAL_PCD_IRQHandler+0x320>)
 8002acc:	4313      	orrs	r3, r2
 8002ace:	800b      	strh	r3, [r1, #0]

  return HAL_OK;
 8002ad0:	e779      	b.n	80029c6 <HAL_PCD_IRQHandler+0x1ca>
            PCD_SET_EP_RX_CNT(hpcd->Instance, PCD_ENDP0, ep->maxpacket);
 8002ad2:	251f      	movs	r5, #31
 8002ad4:	0958      	lsrs	r0, r3, #5
 8002ad6:	402b      	ands	r3, r5
 8002ad8:	425d      	negs	r5, r3
 8002ada:	416b      	adcs	r3, r5
 8002adc:	1ac0      	subs	r0, r0, r3
 8002ade:	4b10      	ldr	r3, [pc, #64]	; (8002b20 <HAL_PCD_IRQHandler+0x324>)
 8002ae0:	0280      	lsls	r0, r0, #10
 8002ae2:	4303      	orrs	r3, r0
 8002ae4:	b29b      	uxth	r3, r3
 8002ae6:	e7df      	b.n	8002aa8 <HAL_PCD_IRQHandler+0x2ac>
 8002ae8:	fffffbff 	.word	0xfffffbff
 8002aec:	ffffbfff 	.word	0xffffbfff
 8002af0:	ffffdfff 	.word	0xffffdfff
 8002af4:	ffffefff 	.word	0xffffefff
 8002af8:	fffff7ff 	.word	0xfffff7ff
 8002afc:	fffffdff 	.word	0xfffffdff
 8002b00:	fffffeff 	.word	0xfffffeff
 8002b04:	ffff8f0f 	.word	0xffff8f0f
 8002b08:	00000402 	.word	0x00000402
 8002b0c:	00000406 	.word	0x00000406
 8002b10:	00000f8f 	.word	0x00000f8f
 8002b14:	ffff83ff 	.word	0xffff83ff
 8002b18:	ffffbf8f 	.word	0xffffbf8f
 8002b1c:	00008080 	.word	0x00008080
 8002b20:	ffff8000 	.word	0xffff8000
      wEPVal = PCD_GET_ENDPOINT(hpcd->Instance, epindex);
 8002b24:	9b00      	ldr	r3, [sp, #0]
 8002b26:	009f      	lsls	r7, r3, #2
 8002b28:	19c2      	adds	r2, r0, r7
 8002b2a:	8813      	ldrh	r3, [r2, #0]
 8002b2c:	b299      	uxth	r1, r3
      if ((wEPVal & USB_EP_CTR_RX) != 0U)
 8002b2e:	b21b      	sxth	r3, r3
      wEPVal = PCD_GET_ENDPOINT(hpcd->Instance, epindex);
 8002b30:	9101      	str	r1, [sp, #4]
      if ((wEPVal & USB_EP_CTR_RX) != 0U)
 8002b32:	2b00      	cmp	r3, #0
 8002b34:	db00      	blt.n	8002b38 <HAL_PCD_IRQHandler+0x33c>
 8002b36:	e0f2      	b.n	8002d1e <HAL_PCD_IRQHandler+0x522>
        PCD_CLEAR_RX_EP_CTR(hpcd->Instance, epindex);
 8002b38:	8813      	ldrh	r3, [r2, #0]
 8002b3a:	49c7      	ldr	r1, [pc, #796]	; (8002e58 <HAL_PCD_IRQHandler+0x65c>)
 8002b3c:	400b      	ands	r3, r1
 8002b3e:	2180      	movs	r1, #128	; 0x80
 8002b40:	430b      	orrs	r3, r1
 8002b42:	8013      	strh	r3, [r2, #0]
        if (ep->doublebuffer == 0U)
 8002b44:	2328      	movs	r3, #40	; 0x28
 8002b46:	9a00      	ldr	r2, [sp, #0]
 8002b48:	4353      	muls	r3, r2
 8002b4a:	18e3      	adds	r3, r4, r3
 8002b4c:	001a      	movs	r2, r3
 8002b4e:	001d      	movs	r5, r3
 8002b50:	3275      	adds	r2, #117	; 0x75
 8002b52:	32ff      	adds	r2, #255	; 0xff
 8002b54:	7812      	ldrb	r2, [r2, #0]
 8002b56:	3569      	adds	r5, #105	; 0x69
 8002b58:	35ff      	adds	r5, #255	; 0xff
 8002b5a:	2a00      	cmp	r2, #0
 8002b5c:	d11a      	bne.n	8002b94 <HAL_PCD_IRQHandler+0x398>
          count = (uint16_t)PCD_GET_EP_RX_CNT(hpcd->Instance, ep->num);
 8002b5e:	0002      	movs	r2, r0
 8002b60:	3250      	adds	r2, #80	; 0x50
 8002b62:	8811      	ldrh	r1, [r2, #0]
 8002b64:	782a      	ldrb	r2, [r5, #0]
 8002b66:	00d2      	lsls	r2, r2, #3
 8002b68:	1852      	adds	r2, r2, r1
 8002b6a:	49bc      	ldr	r1, [pc, #752]	; (8002e5c <HAL_PCD_IRQHandler+0x660>)
 8002b6c:	1812      	adds	r2, r2, r0
 8002b6e:	1852      	adds	r2, r2, r1
 8002b70:	8812      	ldrh	r2, [r2, #0]
 8002b72:	0592      	lsls	r2, r2, #22
 8002b74:	0d95      	lsrs	r5, r2, #22
          if (count != 0U)
 8002b76:	2a00      	cmp	r2, #0
 8002b78:	d100      	bne.n	8002b7c <HAL_PCD_IRQHandler+0x380>
 8002b7a:	e0af      	b.n	8002cdc <HAL_PCD_IRQHandler+0x4e0>
            USB_ReadPMA(hpcd->Instance, ep->xfer_buff, ep->pmaadress, count);
 8002b7c:	001a      	movs	r2, r3
 8002b7e:	326f      	adds	r2, #111	; 0x6f
                USB_ReadPMA(hpcd->Instance, ep->xfer_buff, ep->pmaaddr1, count);
 8002b80:	337d      	adds	r3, #125	; 0x7d
 8002b82:	33ff      	adds	r3, #255	; 0xff
 8002b84:	0019      	movs	r1, r3
 8002b86:	32ff      	adds	r2, #255	; 0xff
 8002b88:	002b      	movs	r3, r5
 8002b8a:	8812      	ldrh	r2, [r2, #0]
 8002b8c:	6809      	ldr	r1, [r1, #0]
 8002b8e:	f002 fb9d 	bl	80052cc <USB_ReadPMA>
 8002b92:	e0a3      	b.n	8002cdc <HAL_PCD_IRQHandler+0x4e0>
          if (ep->type == EP_TYPE_BULK)
 8002b94:	0019      	movs	r1, r3
 8002b96:	316c      	adds	r1, #108	; 0x6c
 8002b98:	31ff      	adds	r1, #255	; 0xff
 8002b9a:	7809      	ldrb	r1, [r1, #0]
 8002b9c:	782a      	ldrb	r2, [r5, #0]
 8002b9e:	2902      	cmp	r1, #2
 8002ba0:	d000      	beq.n	8002ba4 <HAL_PCD_IRQHandler+0x3a8>
 8002ba2:	e080      	b.n	8002ca6 <HAL_PCD_IRQHandler+0x4aa>
  if ((wEPVal & USB_EP_DTOG_RX) != 0U)
 8002ba4:	2680      	movs	r6, #128	; 0x80
 8002ba6:	01f6      	lsls	r6, r6, #7
 8002ba8:	46b4      	mov	ip, r6
 8002baa:	4665      	mov	r5, ip
 8002bac:	9e01      	ldr	r6, [sp, #4]
 8002bae:	3381      	adds	r3, #129	; 0x81
 8002bb0:	402e      	ands	r6, r5
 8002bb2:	9603      	str	r6, [sp, #12]
 8002bb4:	0006      	movs	r6, r0
 8002bb6:	3650      	adds	r6, #80	; 0x50
 8002bb8:	9602      	str	r6, [sp, #8]
 8002bba:	4666      	mov	r6, ip
 8002bbc:	9d01      	ldr	r5, [sp, #4]
 8002bbe:	33ff      	adds	r3, #255	; 0xff
 8002bc0:	6819      	ldr	r1, [r3, #0]
 8002bc2:	4235      	tst	r5, r6
 8002bc4:	d037      	beq.n	8002c36 <HAL_PCD_IRQHandler+0x43a>
    count = (uint16_t)PCD_GET_EP_DBUF0_CNT(hpcd->Instance, ep->num);
 8002bc6:	9d02      	ldr	r5, [sp, #8]
 8002bc8:	882e      	ldrh	r6, [r5, #0]
 8002bca:	00d5      	lsls	r5, r2, #3
 8002bcc:	1976      	adds	r6, r6, r5
 8002bce:	4da4      	ldr	r5, [pc, #656]	; (8002e60 <HAL_PCD_IRQHandler+0x664>)
 8002bd0:	1836      	adds	r6, r6, r0
 8002bd2:	1976      	adds	r6, r6, r5
 8002bd4:	8835      	ldrh	r5, [r6, #0]
 8002bd6:	05ad      	lsls	r5, r5, #22
 8002bd8:	0dad      	lsrs	r5, r5, #22
    if (ep->xfer_len >= count)
 8002bda:	428d      	cmp	r5, r1
 8002bdc:	d90d      	bls.n	8002bfa <HAL_PCD_IRQHandler+0x3fe>
 8002bde:	2100      	movs	r1, #0
 8002be0:	6019      	str	r1, [r3, #0]
      PCD_SET_EP_RX_STATUS(hpcd->Instance, ep->num, USB_EP_RX_NAK);
 8002be2:	0092      	lsls	r2, r2, #2
 8002be4:	1882      	adds	r2, r0, r2
 8002be6:	8813      	ldrh	r3, [r2, #0]
 8002be8:	499e      	ldr	r1, [pc, #632]	; (8002e64 <HAL_PCD_IRQHandler+0x668>)
 8002bea:	4019      	ands	r1, r3
 8002bec:	2380      	movs	r3, #128	; 0x80
 8002bee:	019b      	lsls	r3, r3, #6
 8002bf0:	404b      	eors	r3, r1
 8002bf2:	499d      	ldr	r1, [pc, #628]	; (8002e68 <HAL_PCD_IRQHandler+0x66c>)
 8002bf4:	430b      	orrs	r3, r1
 8002bf6:	8013      	strh	r3, [r2, #0]
 8002bf8:	e002      	b.n	8002c00 <HAL_PCD_IRQHandler+0x404>
      ep->xfer_len -= count;
 8002bfa:	1b49      	subs	r1, r1, r5
 8002bfc:	6019      	str	r1, [r3, #0]
    if (ep->xfer_len == 0U)
 8002bfe:	d0f0      	beq.n	8002be2 <HAL_PCD_IRQHandler+0x3e6>
    if ((wEPVal & USB_EP_DTOG_TX) != 0U)
 8002c00:	9b01      	ldr	r3, [sp, #4]
 8002c02:	065b      	lsls	r3, r3, #25
 8002c04:	d50e      	bpl.n	8002c24 <HAL_PCD_IRQHandler+0x428>
      PCD_FreeUserBuffer(hpcd->Instance, ep->num, 0U);
 8002c06:	2328      	movs	r3, #40	; 0x28
 8002c08:	9a00      	ldr	r2, [sp, #0]
 8002c0a:	4998      	ldr	r1, [pc, #608]	; (8002e6c <HAL_PCD_IRQHandler+0x670>)
 8002c0c:	4353      	muls	r3, r2
 8002c0e:	18e3      	adds	r3, r4, r3
 8002c10:	3369      	adds	r3, #105	; 0x69
 8002c12:	33ff      	adds	r3, #255	; 0xff
 8002c14:	781b      	ldrb	r3, [r3, #0]
 8002c16:	009b      	lsls	r3, r3, #2
 8002c18:	18c3      	adds	r3, r0, r3
 8002c1a:	881a      	ldrh	r2, [r3, #0]
 8002c1c:	400a      	ands	r2, r1
 8002c1e:	4994      	ldr	r1, [pc, #592]	; (8002e70 <HAL_PCD_IRQHandler+0x674>)
 8002c20:	430a      	orrs	r2, r1
 8002c22:	801a      	strh	r2, [r3, #0]
    if (count != 0U)
 8002c24:	2d00      	cmp	r5, #0
 8002c26:	d059      	beq.n	8002cdc <HAL_PCD_IRQHandler+0x4e0>
      USB_ReadPMA(hpcd->Instance, ep->xfer_buff, ep->pmaaddr0, count);
 8002c28:	2328      	movs	r3, #40	; 0x28
 8002c2a:	9a00      	ldr	r2, [sp, #0]
 8002c2c:	4353      	muls	r3, r2
 8002c2e:	18e3      	adds	r3, r4, r3
                USB_ReadPMA(hpcd->Instance, ep->xfer_buff, ep->pmaaddr0, count);
 8002c30:	001a      	movs	r2, r3
 8002c32:	3271      	adds	r2, #113	; 0x71
 8002c34:	e7a4      	b.n	8002b80 <HAL_PCD_IRQHandler+0x384>
    count = (uint16_t)PCD_GET_EP_DBUF1_CNT(hpcd->Instance, ep->num);
 8002c36:	9d02      	ldr	r5, [sp, #8]
 8002c38:	882e      	ldrh	r6, [r5, #0]
 8002c3a:	00d5      	lsls	r5, r2, #3
 8002c3c:	1976      	adds	r6, r6, r5
 8002c3e:	4d87      	ldr	r5, [pc, #540]	; (8002e5c <HAL_PCD_IRQHandler+0x660>)
 8002c40:	1836      	adds	r6, r6, r0
 8002c42:	1976      	adds	r6, r6, r5
 8002c44:	8835      	ldrh	r5, [r6, #0]
 8002c46:	05ad      	lsls	r5, r5, #22
 8002c48:	0dad      	lsrs	r5, r5, #22
    if (ep->xfer_len >= count)
 8002c4a:	428d      	cmp	r5, r1
 8002c4c:	d90d      	bls.n	8002c6a <HAL_PCD_IRQHandler+0x46e>
 8002c4e:	9903      	ldr	r1, [sp, #12]
 8002c50:	6019      	str	r1, [r3, #0]
      PCD_SET_EP_RX_STATUS(hpcd->Instance, ep->num, USB_EP_RX_NAK);
 8002c52:	0092      	lsls	r2, r2, #2
 8002c54:	1882      	adds	r2, r0, r2
 8002c56:	8813      	ldrh	r3, [r2, #0]
 8002c58:	4982      	ldr	r1, [pc, #520]	; (8002e64 <HAL_PCD_IRQHandler+0x668>)
 8002c5a:	4019      	ands	r1, r3
 8002c5c:	2380      	movs	r3, #128	; 0x80
 8002c5e:	019b      	lsls	r3, r3, #6
 8002c60:	404b      	eors	r3, r1
 8002c62:	4981      	ldr	r1, [pc, #516]	; (8002e68 <HAL_PCD_IRQHandler+0x66c>)
 8002c64:	430b      	orrs	r3, r1
 8002c66:	8013      	strh	r3, [r2, #0]
 8002c68:	e002      	b.n	8002c70 <HAL_PCD_IRQHandler+0x474>
      ep->xfer_len -= count;
 8002c6a:	1b49      	subs	r1, r1, r5
 8002c6c:	6019      	str	r1, [r3, #0]
    if (ep->xfer_len == 0U)
 8002c6e:	d0f0      	beq.n	8002c52 <HAL_PCD_IRQHandler+0x456>
    if ((wEPVal & USB_EP_DTOG_TX) == 0U)
 8002c70:	9b01      	ldr	r3, [sp, #4]
 8002c72:	065b      	lsls	r3, r3, #25
 8002c74:	d40e      	bmi.n	8002c94 <HAL_PCD_IRQHandler+0x498>
      PCD_FreeUserBuffer(hpcd->Instance, ep->num, 0U);
 8002c76:	2328      	movs	r3, #40	; 0x28
 8002c78:	9a00      	ldr	r2, [sp, #0]
 8002c7a:	497c      	ldr	r1, [pc, #496]	; (8002e6c <HAL_PCD_IRQHandler+0x670>)
 8002c7c:	4353      	muls	r3, r2
 8002c7e:	18e3      	adds	r3, r4, r3
 8002c80:	3369      	adds	r3, #105	; 0x69
 8002c82:	33ff      	adds	r3, #255	; 0xff
 8002c84:	781b      	ldrb	r3, [r3, #0]
 8002c86:	009b      	lsls	r3, r3, #2
 8002c88:	18c3      	adds	r3, r0, r3
 8002c8a:	881a      	ldrh	r2, [r3, #0]
 8002c8c:	400a      	ands	r2, r1
 8002c8e:	4978      	ldr	r1, [pc, #480]	; (8002e70 <HAL_PCD_IRQHandler+0x674>)
 8002c90:	430a      	orrs	r2, r1
 8002c92:	801a      	strh	r2, [r3, #0]
    if (count != 0U)
 8002c94:	2d00      	cmp	r5, #0
 8002c96:	d021      	beq.n	8002cdc <HAL_PCD_IRQHandler+0x4e0>
      USB_ReadPMA(hpcd->Instance, ep->xfer_buff, ep->pmaaddr1, count);
 8002c98:	2328      	movs	r3, #40	; 0x28
 8002c9a:	9a00      	ldr	r2, [sp, #0]
 8002c9c:	4353      	muls	r3, r2
 8002c9e:	18e3      	adds	r3, r4, r3
                USB_ReadPMA(hpcd->Instance, ep->xfer_buff, ep->pmaaddr1, count);
 8002ca0:	001a      	movs	r2, r3
 8002ca2:	3273      	adds	r2, #115	; 0x73
 8002ca4:	e76c      	b.n	8002b80 <HAL_PCD_IRQHandler+0x384>
            PCD_FreeUserBuffer(hpcd->Instance, ep->num, 0U);
 8002ca6:	0092      	lsls	r2, r2, #2
 8002ca8:	1882      	adds	r2, r0, r2
 8002caa:	8816      	ldrh	r6, [r2, #0]
 8002cac:	496f      	ldr	r1, [pc, #444]	; (8002e6c <HAL_PCD_IRQHandler+0x670>)
 8002cae:	4031      	ands	r1, r6
 8002cb0:	4e6f      	ldr	r6, [pc, #444]	; (8002e70 <HAL_PCD_IRQHandler+0x674>)
 8002cb2:	4331      	orrs	r1, r6
 8002cb4:	8011      	strh	r1, [r2, #0]
            if ((PCD_GET_ENDPOINT(hpcd->Instance, ep->num) & USB_EP_DTOG_RX) != 0U)
 8002cb6:	782a      	ldrb	r2, [r5, #0]
 8002cb8:	0091      	lsls	r1, r2, #2
 8002cba:	1841      	adds	r1, r0, r1
 8002cbc:	880d      	ldrh	r5, [r1, #0]
 8002cbe:	0001      	movs	r1, r0
 8002cc0:	3150      	adds	r1, #80	; 0x50
              count = (uint16_t)PCD_GET_EP_DBUF0_CNT(hpcd->Instance, ep->num);
 8002cc2:	8809      	ldrh	r1, [r1, #0]
 8002cc4:	00d2      	lsls	r2, r2, #3
 8002cc6:	1852      	adds	r2, r2, r1
 8002cc8:	1812      	adds	r2, r2, r0
            if ((PCD_GET_ENDPOINT(hpcd->Instance, ep->num) & USB_EP_DTOG_RX) != 0U)
 8002cca:	046d      	lsls	r5, r5, #17
 8002ccc:	d55f      	bpl.n	8002d8e <HAL_PCD_IRQHandler+0x592>
              count = (uint16_t)PCD_GET_EP_DBUF0_CNT(hpcd->Instance, ep->num);
 8002cce:	4964      	ldr	r1, [pc, #400]	; (8002e60 <HAL_PCD_IRQHandler+0x664>)
 8002cd0:	1852      	adds	r2, r2, r1
 8002cd2:	8812      	ldrh	r2, [r2, #0]
 8002cd4:	0592      	lsls	r2, r2, #22
 8002cd6:	0d95      	lsrs	r5, r2, #22
              if (count != 0U)
 8002cd8:	2a00      	cmp	r2, #0
 8002cda:	d1a9      	bne.n	8002c30 <HAL_PCD_IRQHandler+0x434>
        ep->xfer_count += count;
 8002cdc:	2328      	movs	r3, #40	; 0x28
 8002cde:	9900      	ldr	r1, [sp, #0]
 8002ce0:	4359      	muls	r1, r3
 8002ce2:	1862      	adds	r2, r4, r1
 8002ce4:	0016      	movs	r6, r2
 8002ce6:	3685      	adds	r6, #133	; 0x85
 8002ce8:	36ff      	adds	r6, #255	; 0xff
 8002cea:	6830      	ldr	r0, [r6, #0]
        ep->xfer_buff += count;
 8002cec:	3e08      	subs	r6, #8
        ep->xfer_count += count;
 8002cee:	1940      	adds	r0, r0, r5
 8002cf0:	60b0      	str	r0, [r6, #8]
        ep->xfer_buff += count;
 8002cf2:	6830      	ldr	r0, [r6, #0]
 8002cf4:	1940      	adds	r0, r0, r5
 8002cf6:	6030      	str	r0, [r6, #0]
        if ((ep->xfer_len == 0U) || (count < ep->maxpacket))
 8002cf8:	0010      	movs	r0, r2
 8002cfa:	3081      	adds	r0, #129	; 0x81
 8002cfc:	30ff      	adds	r0, #255	; 0xff
 8002cfe:	6800      	ldr	r0, [r0, #0]
 8002d00:	2800      	cmp	r0, #0
 8002d02:	d003      	beq.n	8002d0c <HAL_PCD_IRQHandler+0x510>
 8002d04:	32fc      	adds	r2, #252	; 0xfc
 8002d06:	6fd2      	ldr	r2, [r2, #124]	; 0x7c
 8002d08:	4295      	cmp	r5, r2
 8002d0a:	d248      	bcs.n	8002d9e <HAL_PCD_IRQHandler+0x5a2>
          HAL_PCD_DataOutStageCallback(hpcd, ep->num);
 8002d0c:	9a00      	ldr	r2, [sp, #0]
 8002d0e:	0020      	movs	r0, r4
 8002d10:	4353      	muls	r3, r2
 8002d12:	18e3      	adds	r3, r4, r3
 8002d14:	3369      	adds	r3, #105	; 0x69
 8002d16:	33ff      	adds	r3, #255	; 0xff
 8002d18:	7819      	ldrb	r1, [r3, #0]
 8002d1a:	f003 f98c 	bl	8006036 <HAL_PCD_DataOutStageCallback>
      if ((wEPVal & USB_EP_CTR_TX) != 0U)
 8002d1e:	2280      	movs	r2, #128	; 0x80
 8002d20:	9b01      	ldr	r3, [sp, #4]
 8002d22:	4213      	tst	r3, r2
 8002d24:	d100      	bne.n	8002d28 <HAL_PCD_IRQHandler+0x52c>
 8002d26:	e64e      	b.n	80029c6 <HAL_PCD_IRQHandler+0x1ca>
 8002d28:	6820      	ldr	r0, [r4, #0]
        PCD_CLEAR_TX_EP_CTR(hpcd->Instance, epindex);
 8002d2a:	4b52      	ldr	r3, [pc, #328]	; (8002e74 <HAL_PCD_IRQHandler+0x678>)
 8002d2c:	19c1      	adds	r1, r0, r7
 8002d2e:	880a      	ldrh	r2, [r1, #0]
 8002d30:	9d00      	ldr	r5, [sp, #0]
 8002d32:	401a      	ands	r2, r3
 8002d34:	4b50      	ldr	r3, [pc, #320]	; (8002e78 <HAL_PCD_IRQHandler+0x67c>)
 8002d36:	431a      	orrs	r2, r3
 8002d38:	b292      	uxth	r2, r2
 8002d3a:	800a      	strh	r2, [r1, #0]
        if (ep->type != EP_TYPE_BULK)
 8002d3c:	2228      	movs	r2, #40	; 0x28
 8002d3e:	4355      	muls	r5, r2
 8002d40:	1965      	adds	r5, r4, r5
 8002d42:	002a      	movs	r2, r5
 8002d44:	002e      	movs	r6, r5
 8002d46:	322b      	adds	r2, #43	; 0x2b
 8002d48:	7812      	ldrb	r2, [r2, #0]
 8002d4a:	3628      	adds	r6, #40	; 0x28
 8002d4c:	2a02      	cmp	r2, #2
 8002d4e:	d057      	beq.n	8002e00 <HAL_PCD_IRQHandler+0x604>
          ep->xfer_len = 0U;
 8002d50:	2200      	movs	r2, #0
          if ((wEPVal & USB_EP_DTOG_TX) != 0U)
 8002d52:	2140      	movs	r1, #64	; 0x40
          ep->xfer_len = 0U;
 8002d54:	642a      	str	r2, [r5, #64]	; 0x40
 8002d56:	4694      	mov	ip, r2
          if ((wEPVal & USB_EP_DTOG_TX) != 0U)
 8002d58:	9f01      	ldr	r7, [sp, #4]
 8002d5a:	9a01      	ldr	r2, [sp, #4]
 8002d5c:	400f      	ands	r7, r1
 8002d5e:	3529      	adds	r5, #41	; 0x29
 8002d60:	420a      	tst	r2, r1
 8002d62:	d034      	beq.n	8002dce <HAL_PCD_IRQHandler+0x5d2>
            PCD_SET_EP_DBUF0_CNT(hpcd->Instance, ep->num, ep->is_in, 0U);
 8002d64:	782d      	ldrb	r5, [r5, #0]
 8002d66:	7831      	ldrb	r1, [r6, #0]
 8002d68:	4565      	cmp	r5, ip
 8002d6a:	d11f      	bne.n	8002dac <HAL_PCD_IRQHandler+0x5b0>
 8002d6c:	0002      	movs	r2, r0
 8002d6e:	4d3c      	ldr	r5, [pc, #240]	; (8002e60 <HAL_PCD_IRQHandler+0x664>)
 8002d70:	3250      	adds	r2, #80	; 0x50
 8002d72:	8812      	ldrh	r2, [r2, #0]
 8002d74:	1940      	adds	r0, r0, r5
 8002d76:	1880      	adds	r0, r0, r2
 8002d78:	00c9      	lsls	r1, r1, #3
 8002d7a:	1840      	adds	r0, r0, r1
            PCD_SET_EP_DBUF1_CNT(hpcd->Instance, ep->num, ep->is_in, 0U);
 8002d7c:	8802      	ldrh	r2, [r0, #0]
 8002d7e:	493f      	ldr	r1, [pc, #252]	; (8002e7c <HAL_PCD_IRQHandler+0x680>)
 8002d80:	400a      	ands	r2, r1
 8002d82:	8002      	strh	r2, [r0, #0]
 8002d84:	8802      	ldrh	r2, [r0, #0]
 8002d86:	4313      	orrs	r3, r2
 8002d88:	b29b      	uxth	r3, r3
 8002d8a:	8003      	strh	r3, [r0, #0]
 8002d8c:	e01a      	b.n	8002dc4 <HAL_PCD_IRQHandler+0x5c8>
              count = (uint16_t)PCD_GET_EP_DBUF1_CNT(hpcd->Instance, ep->num);
 8002d8e:	4933      	ldr	r1, [pc, #204]	; (8002e5c <HAL_PCD_IRQHandler+0x660>)
 8002d90:	1852      	adds	r2, r2, r1
 8002d92:	8812      	ldrh	r2, [r2, #0]
 8002d94:	0592      	lsls	r2, r2, #22
 8002d96:	0d95      	lsrs	r5, r2, #22
              if (count != 0U)
 8002d98:	2a00      	cmp	r2, #0
 8002d9a:	d09f      	beq.n	8002cdc <HAL_PCD_IRQHandler+0x4e0>
 8002d9c:	e780      	b.n	8002ca0 <HAL_PCD_IRQHandler+0x4a4>
        ep = &hpcd->OUT_ep[epindex];
 8002d9e:	3169      	adds	r1, #105	; 0x69
 8002da0:	31ff      	adds	r1, #255	; 0xff
          (void) USB_EPStartXfer(hpcd->Instance, ep);
 8002da2:	6820      	ldr	r0, [r4, #0]
        ep = &hpcd->OUT_ep[epindex];
 8002da4:	1861      	adds	r1, r4, r1
          (void) USB_EPStartXfer(hpcd->Instance, ep);
 8002da6:	f001 ffe7 	bl	8004d78 <USB_EPStartXfer>
 8002daa:	e7b8      	b.n	8002d1e <HAL_PCD_IRQHandler+0x522>
            PCD_SET_EP_DBUF0_CNT(hpcd->Instance, ep->num, ep->is_in, 0U);
 8002dac:	2d01      	cmp	r5, #1
 8002dae:	d109      	bne.n	8002dc4 <HAL_PCD_IRQHandler+0x5c8>
 8002db0:	0003      	movs	r3, r0
 8002db2:	4a2b      	ldr	r2, [pc, #172]	; (8002e60 <HAL_PCD_IRQHandler+0x664>)
 8002db4:	3350      	adds	r3, #80	; 0x50
 8002db6:	881b      	ldrh	r3, [r3, #0]
 8002db8:	1880      	adds	r0, r0, r2
 8002dba:	18c0      	adds	r0, r0, r3
 8002dbc:	4663      	mov	r3, ip
 8002dbe:	00c9      	lsls	r1, r1, #3
 8002dc0:	1841      	adds	r1, r0, r1
 8002dc2:	800b      	strh	r3, [r1, #0]
            HAL_PCD_DataInStageCallback(hpcd, ep->num);
 8002dc4:	0020      	movs	r0, r4
 8002dc6:	7831      	ldrb	r1, [r6, #0]
 8002dc8:	f003 f942 	bl	8006050 <HAL_PCD_DataInStageCallback>
 8002dcc:	e5fb      	b.n	80029c6 <HAL_PCD_IRQHandler+0x1ca>
            PCD_SET_EP_DBUF1_CNT(hpcd->Instance, ep->num, ep->is_in, 0U);
 8002dce:	7829      	ldrb	r1, [r5, #0]
 8002dd0:	7832      	ldrb	r2, [r6, #0]
 8002dd2:	2900      	cmp	r1, #0
 8002dd4:	d108      	bne.n	8002de8 <HAL_PCD_IRQHandler+0x5ec>
 8002dd6:	0001      	movs	r1, r0
 8002dd8:	4d20      	ldr	r5, [pc, #128]	; (8002e5c <HAL_PCD_IRQHandler+0x660>)
 8002dda:	3150      	adds	r1, #80	; 0x50
 8002ddc:	8809      	ldrh	r1, [r1, #0]
 8002dde:	1940      	adds	r0, r0, r5
 8002de0:	1840      	adds	r0, r0, r1
 8002de2:	00d2      	lsls	r2, r2, #3
 8002de4:	1880      	adds	r0, r0, r2
 8002de6:	e7c9      	b.n	8002d7c <HAL_PCD_IRQHandler+0x580>
 8002de8:	2901      	cmp	r1, #1
 8002dea:	d1eb      	bne.n	8002dc4 <HAL_PCD_IRQHandler+0x5c8>
 8002dec:	0003      	movs	r3, r0
 8002dee:	491b      	ldr	r1, [pc, #108]	; (8002e5c <HAL_PCD_IRQHandler+0x660>)
 8002df0:	3350      	adds	r3, #80	; 0x50
 8002df2:	881b      	ldrh	r3, [r3, #0]
 8002df4:	1840      	adds	r0, r0, r1
 8002df6:	18c0      	adds	r0, r0, r3
 8002df8:	00d2      	lsls	r2, r2, #3
 8002dfa:	1882      	adds	r2, r0, r2
 8002dfc:	8017      	strh	r7, [r2, #0]
          HAL_PCD_DataInStageCallback(hpcd, ep->num);
 8002dfe:	e7e1      	b.n	8002dc4 <HAL_PCD_IRQHandler+0x5c8>
        if ((ep->type == EP_TYPE_BULK) && ((wEPVal & USB_EP_KIND) == 0U))
 8002e00:	2780      	movs	r7, #128	; 0x80
 8002e02:	9901      	ldr	r1, [sp, #4]
 8002e04:	007f      	lsls	r7, r7, #1
 8002e06:	4039      	ands	r1, r7
 8002e08:	7833      	ldrb	r3, [r6, #0]
 8002e0a:	468c      	mov	ip, r1
 8002e0c:	9901      	ldr	r1, [sp, #4]
 8002e0e:	9303      	str	r3, [sp, #12]
 8002e10:	00da      	lsls	r2, r3, #3
 8002e12:	6c2b      	ldr	r3, [r5, #64]	; 0x40
 8002e14:	4239      	tst	r1, r7
 8002e16:	d133      	bne.n	8002e80 <HAL_PCD_IRQHandler+0x684>
          TxByteNbre = (uint16_t)PCD_GET_EP_TX_CNT(hpcd->Instance, ep->num);
 8002e18:	0007      	movs	r7, r0
 8002e1a:	3750      	adds	r7, #80	; 0x50
 8002e1c:	883f      	ldrh	r7, [r7, #0]
 8002e1e:	4910      	ldr	r1, [pc, #64]	; (8002e60 <HAL_PCD_IRQHandler+0x664>)
 8002e20:	19c7      	adds	r7, r0, r7
 8002e22:	18ba      	adds	r2, r7, r2
 8002e24:	1852      	adds	r2, r2, r1
 8002e26:	8812      	ldrh	r2, [r2, #0]
 8002e28:	0592      	lsls	r2, r2, #22
          if (ep->xfer_len > TxByteNbre)
 8002e2a:	0d92      	lsrs	r2, r2, #22
 8002e2c:	429a      	cmp	r2, r3
 8002e2e:	d302      	bcc.n	8002e36 <HAL_PCD_IRQHandler+0x63a>
 8002e30:	4663      	mov	r3, ip
 8002e32:	642b      	str	r3, [r5, #64]	; 0x40
 8002e34:	e7c6      	b.n	8002dc4 <HAL_PCD_IRQHandler+0x5c8>
        ep = &hpcd->IN_ep[epindex];
 8002e36:	2128      	movs	r1, #40	; 0x28
            ep->xfer_len -= TxByteNbre;
 8002e38:	1a9b      	subs	r3, r3, r2
 8002e3a:	642b      	str	r3, [r5, #64]	; 0x40
            ep->xfer_buff += TxByteNbre;
 8002e3c:	6beb      	ldr	r3, [r5, #60]	; 0x3c
 8002e3e:	189b      	adds	r3, r3, r2
 8002e40:	63eb      	str	r3, [r5, #60]	; 0x3c
            ep->xfer_count += TxByteNbre;
 8002e42:	6c6b      	ldr	r3, [r5, #68]	; 0x44
 8002e44:	189a      	adds	r2, r3, r2
        ep = &hpcd->IN_ep[epindex];
 8002e46:	9b00      	ldr	r3, [sp, #0]
            ep->xfer_count += TxByteNbre;
 8002e48:	646a      	str	r2, [r5, #68]	; 0x44
        ep = &hpcd->IN_ep[epindex];
 8002e4a:	3301      	adds	r3, #1
 8002e4c:	4359      	muls	r1, r3
 8002e4e:	1861      	adds	r1, r4, r1
            (void)USB_EPStartXfer(hpcd->Instance, ep);
 8002e50:	f001 ff92 	bl	8004d78 <USB_EPStartXfer>
 8002e54:	e5b7      	b.n	80029c6 <HAL_PCD_IRQHandler+0x1ca>
 8002e56:	46c0      	nop			; (mov r8, r8)
 8002e58:	00000f8f 	.word	0x00000f8f
 8002e5c:	00000406 	.word	0x00000406
 8002e60:	00000402 	.word	0x00000402
 8002e64:	ffffbf8f 	.word	0xffffbf8f
 8002e68:	00008080 	.word	0x00008080
 8002e6c:	ffff8f8f 	.word	0xffff8f8f
 8002e70:	000080c0 	.word	0x000080c0
 8002e74:	ffff8f0f 	.word	0xffff8f0f
 8002e78:	ffff8000 	.word	0xffff8000
 8002e7c:	ffff83ff 	.word	0xffff83ff
  if ((wEPVal & USB_EP_DTOG_TX) != 0U)
 8002e80:	2750      	movs	r7, #80	; 0x50
 8002e82:	2640      	movs	r6, #64	; 0x40
 8002e84:	46bc      	mov	ip, r7
 8002e86:	9901      	ldr	r1, [sp, #4]
 8002e88:	9f01      	ldr	r7, [sp, #4]
 8002e8a:	4031      	ands	r1, r6
 8002e8c:	4484      	add	ip, r0
 8002e8e:	4237      	tst	r7, r6
 8002e90:	d100      	bne.n	8002e94 <HAL_PCD_IRQHandler+0x698>
 8002e92:	e0dd      	b.n	8003050 <HAL_PCD_IRQHandler+0x854>
    TxByteNbre = (uint16_t)PCD_GET_EP_DBUF0_CNT(hpcd->Instance, ep->num);
 8002e94:	4661      	mov	r1, ip
 8002e96:	4ec8      	ldr	r6, [pc, #800]	; (80031b8 <HAL_PCD_IRQHandler+0x9bc>)
 8002e98:	8809      	ldrh	r1, [r1, #0]
 8002e9a:	1986      	adds	r6, r0, r6
 8002e9c:	1871      	adds	r1, r6, r1
 8002e9e:	5a89      	ldrh	r1, [r1, r2]
      ep->xfer_len = 0U;
 8002ea0:	2700      	movs	r7, #0
    TxByteNbre = (uint16_t)PCD_GET_EP_DBUF0_CNT(hpcd->Instance, ep->num);
 8002ea2:	0589      	lsls	r1, r1, #22
 8002ea4:	9602      	str	r6, [sp, #8]
    if (ep->xfer_len > TxByteNbre)
 8002ea6:	0d89      	lsrs	r1, r1, #22
 8002ea8:	4299      	cmp	r1, r3
 8002eaa:	d200      	bcs.n	8002eae <HAL_PCD_IRQHandler+0x6b2>
      ep->xfer_len -= TxByteNbre;
 8002eac:	1a5f      	subs	r7, r3, r1
 8002eae:	2328      	movs	r3, #40	; 0x28
 8002eb0:	9e00      	ldr	r6, [sp, #0]
 8002eb2:	4373      	muls	r3, r6
 8002eb4:	2680      	movs	r6, #128	; 0x80
 8002eb6:	18e3      	adds	r3, r4, r3
 8002eb8:	641f      	str	r7, [r3, #64]	; 0x40
    if (ep->xfer_len == 0U)
 8002eba:	9b01      	ldr	r3, [sp, #4]
 8002ebc:	01f6      	lsls	r6, r6, #7
 8002ebe:	4033      	ands	r3, r6
 8002ec0:	001e      	movs	r6, r3
 8002ec2:	2f00      	cmp	r7, #0
 8002ec4:	d153      	bne.n	8002f6e <HAL_PCD_IRQHandler+0x772>
      PCD_SET_EP_DBUF0_CNT(hpcd->Instance, ep->num, ep->is_in, 0U);
 8002ec6:	0029      	movs	r1, r5
 8002ec8:	3129      	adds	r1, #41	; 0x29
 8002eca:	780b      	ldrb	r3, [r1, #0]
 8002ecc:	9100      	str	r1, [sp, #0]
 8002ece:	2b00      	cmp	r3, #0
 8002ed0:	d136      	bne.n	8002f40 <HAL_PCD_IRQHandler+0x744>
 8002ed2:	4663      	mov	r3, ip
 8002ed4:	9f02      	ldr	r7, [sp, #8]
 8002ed6:	881b      	ldrh	r3, [r3, #0]
 8002ed8:	18fb      	adds	r3, r7, r3
 8002eda:	189a      	adds	r2, r3, r2
 8002edc:	8813      	ldrh	r3, [r2, #0]
 8002ede:	4fb7      	ldr	r7, [pc, #732]	; (80031bc <HAL_PCD_IRQHandler+0x9c0>)
 8002ee0:	403b      	ands	r3, r7
 8002ee2:	8013      	strh	r3, [r2, #0]
 8002ee4:	8813      	ldrh	r3, [r2, #0]
 8002ee6:	4fb6      	ldr	r7, [pc, #728]	; (80031c0 <HAL_PCD_IRQHandler+0x9c4>)
 8002ee8:	433b      	orrs	r3, r7
 8002eea:	b29b      	uxth	r3, r3
 8002eec:	8013      	strh	r3, [r2, #0]
      PCD_SET_EP_DBUF1_CNT(hpcd->Instance, ep->num, ep->is_in, 0U);
 8002eee:	002f      	movs	r7, r5
 8002ef0:	9b00      	ldr	r3, [sp, #0]
 8002ef2:	3728      	adds	r7, #40	; 0x28
 8002ef4:	781a      	ldrb	r2, [r3, #0]
 8002ef6:	783b      	ldrb	r3, [r7, #0]
 8002ef8:	2a00      	cmp	r2, #0
 8002efa:	d12b      	bne.n	8002f54 <HAL_PCD_IRQHandler+0x758>
 8002efc:	4662      	mov	r2, ip
 8002efe:	49b1      	ldr	r1, [pc, #708]	; (80031c4 <HAL_PCD_IRQHandler+0x9c8>)
 8002f00:	8812      	ldrh	r2, [r2, #0]
 8002f02:	1840      	adds	r0, r0, r1
 8002f04:	1880      	adds	r0, r0, r2
 8002f06:	00db      	lsls	r3, r3, #3
 8002f08:	18c0      	adds	r0, r0, r3
 8002f0a:	8803      	ldrh	r3, [r0, #0]
 8002f0c:	4aab      	ldr	r2, [pc, #684]	; (80031bc <HAL_PCD_IRQHandler+0x9c0>)
 8002f0e:	4013      	ands	r3, r2
 8002f10:	8003      	strh	r3, [r0, #0]
 8002f12:	8801      	ldrh	r1, [r0, #0]
 8002f14:	4baa      	ldr	r3, [pc, #680]	; (80031c0 <HAL_PCD_IRQHandler+0x9c4>)
 8002f16:	4319      	orrs	r1, r3
 8002f18:	b289      	uxth	r1, r1
 8002f1a:	8001      	strh	r1, [r0, #0]
      HAL_PCD_DataInStageCallback(hpcd, ep->num);
 8002f1c:	0020      	movs	r0, r4
 8002f1e:	7839      	ldrb	r1, [r7, #0]
 8002f20:	f003 f896 	bl	8006050 <HAL_PCD_DataInStageCallback>
      if ((wEPVal & USB_EP_DTOG_RX) != 0U)
 8002f24:	2e00      	cmp	r6, #0
 8002f26:	d100      	bne.n	8002f2a <HAL_PCD_IRQHandler+0x72e>
 8002f28:	e0dc      	b.n	80030e4 <HAL_PCD_IRQHandler+0x8e8>
        PCD_FreeUserBuffer(hpcd->Instance, ep->num, 1U);
 8002f2a:	783b      	ldrb	r3, [r7, #0]
 8002f2c:	6822      	ldr	r2, [r4, #0]
 8002f2e:	009b      	lsls	r3, r3, #2
 8002f30:	18d2      	adds	r2, r2, r3
 8002f32:	8813      	ldrh	r3, [r2, #0]
 8002f34:	49a4      	ldr	r1, [pc, #656]	; (80031c8 <HAL_PCD_IRQHandler+0x9cc>)
 8002f36:	400b      	ands	r3, r1
 8002f38:	49a4      	ldr	r1, [pc, #656]	; (80031cc <HAL_PCD_IRQHandler+0x9d0>)
 8002f3a:	430b      	orrs	r3, r1
 8002f3c:	8013      	strh	r3, [r2, #0]
 8002f3e:	e0d1      	b.n	80030e4 <HAL_PCD_IRQHandler+0x8e8>
      PCD_SET_EP_DBUF0_CNT(hpcd->Instance, ep->num, ep->is_in, 0U);
 8002f40:	2b01      	cmp	r3, #1
 8002f42:	d1d4      	bne.n	8002eee <HAL_PCD_IRQHandler+0x6f2>
 8002f44:	0003      	movs	r3, r0
 8002f46:	3350      	adds	r3, #80	; 0x50
 8002f48:	881b      	ldrh	r3, [r3, #0]
 8002f4a:	9902      	ldr	r1, [sp, #8]
 8002f4c:	18cb      	adds	r3, r1, r3
 8002f4e:	189b      	adds	r3, r3, r2
 8002f50:	801f      	strh	r7, [r3, #0]
 8002f52:	e7cc      	b.n	8002eee <HAL_PCD_IRQHandler+0x6f2>
      PCD_SET_EP_DBUF1_CNT(hpcd->Instance, ep->num, ep->is_in, 0U);
 8002f54:	2a01      	cmp	r2, #1
 8002f56:	d1e1      	bne.n	8002f1c <HAL_PCD_IRQHandler+0x720>
 8002f58:	0002      	movs	r2, r0
 8002f5a:	499a      	ldr	r1, [pc, #616]	; (80031c4 <HAL_PCD_IRQHandler+0x9c8>)
 8002f5c:	3250      	adds	r2, #80	; 0x50
 8002f5e:	8812      	ldrh	r2, [r2, #0]
 8002f60:	1840      	adds	r0, r0, r1
 8002f62:	1880      	adds	r0, r0, r2
 8002f64:	2200      	movs	r2, #0
 8002f66:	00db      	lsls	r3, r3, #3
 8002f68:	18c3      	adds	r3, r0, r3
 8002f6a:	801a      	strh	r2, [r3, #0]
 8002f6c:	e7d6      	b.n	8002f1c <HAL_PCD_IRQHandler+0x720>
      if ((wEPVal & USB_EP_DTOG_RX) != 0U)
 8002f6e:	2b00      	cmp	r3, #0
 8002f70:	d008      	beq.n	8002f84 <HAL_PCD_IRQHandler+0x788>
        PCD_FreeUserBuffer(hpcd->Instance, ep->num, 1U);
 8002f72:	9b03      	ldr	r3, [sp, #12]
 8002f74:	009a      	lsls	r2, r3, #2
 8002f76:	1882      	adds	r2, r0, r2
 8002f78:	8816      	ldrh	r6, [r2, #0]
 8002f7a:	4b93      	ldr	r3, [pc, #588]	; (80031c8 <HAL_PCD_IRQHandler+0x9cc>)
 8002f7c:	4033      	ands	r3, r6
 8002f7e:	4e93      	ldr	r6, [pc, #588]	; (80031cc <HAL_PCD_IRQHandler+0x9d0>)
 8002f80:	4333      	orrs	r3, r6
 8002f82:	8013      	strh	r3, [r2, #0]
      if (ep->xfer_fill_db == 1U)
 8002f84:	2328      	movs	r3, #40	; 0x28
 8002f86:	9a00      	ldr	r2, [sp, #0]
 8002f88:	4353      	muls	r3, r2
 8002f8a:	18e3      	adds	r3, r4, r3
 8002f8c:	001f      	movs	r7, r3
 8002f8e:	374c      	adds	r7, #76	; 0x4c
 8002f90:	783a      	ldrb	r2, [r7, #0]
 8002f92:	2a01      	cmp	r2, #1
 8002f94:	d000      	beq.n	8002f98 <HAL_PCD_IRQHandler+0x79c>
 8002f96:	e0a5      	b.n	80030e4 <HAL_PCD_IRQHandler+0x8e8>
        ep->xfer_buff += TxByteNbre;
 8002f98:	6bda      	ldr	r2, [r3, #60]	; 0x3c
        if (ep->xfer_len_db >= ep->maxpacket)
 8002f9a:	6b9e      	ldr	r6, [r3, #56]	; 0x38
        ep->xfer_buff += TxByteNbre;
 8002f9c:	4694      	mov	ip, r2
 8002f9e:	448c      	add	ip, r1
 8002fa0:	4662      	mov	r2, ip
 8002fa2:	63da      	str	r2, [r3, #60]	; 0x3c
        ep->xfer_count += TxByteNbre;
 8002fa4:	6c5a      	ldr	r2, [r3, #68]	; 0x44
 8002fa6:	1852      	adds	r2, r2, r1
 8002fa8:	645a      	str	r2, [r3, #68]	; 0x44
        if (ep->xfer_len_db >= ep->maxpacket)
 8002faa:	6c9a      	ldr	r2, [r3, #72]	; 0x48
 8002fac:	42b2      	cmp	r2, r6
 8002fae:	d325      	bcc.n	8002ffc <HAL_PCD_IRQHandler+0x800>
          ep->xfer_len_db -= len;
 8002fb0:	1b92      	subs	r2, r2, r6
 8002fb2:	649a      	str	r2, [r3, #72]	; 0x48
        PCD_SET_EP_DBUF0_CNT(hpcd->Instance, ep->num, ep->is_in, len);
 8002fb4:	002b      	movs	r3, r5
 8002fb6:	002f      	movs	r7, r5
 8002fb8:	3329      	adds	r3, #41	; 0x29
 8002fba:	781a      	ldrb	r2, [r3, #0]
 8002fbc:	3728      	adds	r7, #40	; 0x28
 8002fbe:	b2b3      	uxth	r3, r6
 8002fc0:	2a00      	cmp	r2, #0
 8002fc2:	d139      	bne.n	8003038 <HAL_PCD_IRQHandler+0x83c>
 8002fc4:	0002      	movs	r2, r0
 8002fc6:	3250      	adds	r2, #80	; 0x50
 8002fc8:	8811      	ldrh	r1, [r2, #0]
 8002fca:	783a      	ldrb	r2, [r7, #0]
 8002fcc:	9f02      	ldr	r7, [sp, #8]
 8002fce:	00d2      	lsls	r2, r2, #3
 8002fd0:	1879      	adds	r1, r7, r1
 8002fd2:	1852      	adds	r2, r2, r1
 8002fd4:	2e00      	cmp	r6, #0
 8002fd6:	d11b      	bne.n	8003010 <HAL_PCD_IRQHandler+0x814>
 8002fd8:	8811      	ldrh	r1, [r2, #0]
 8002fda:	4e78      	ldr	r6, [pc, #480]	; (80031bc <HAL_PCD_IRQHandler+0x9c0>)
 8002fdc:	4031      	ands	r1, r6
 8002fde:	8011      	strh	r1, [r2, #0]
 8002fe0:	8817      	ldrh	r7, [r2, #0]
 8002fe2:	4977      	ldr	r1, [pc, #476]	; (80031c0 <HAL_PCD_IRQHandler+0x9c4>)
 8002fe4:	430f      	orrs	r7, r1
 8002fe6:	b2bf      	uxth	r7, r7
 8002fe8:	8017      	strh	r7, [r2, #0]
        USB_WritePMA(hpcd->Instance, ep->xfer_buff,  ep->pmaaddr0, (uint16_t)len);
 8002fea:	2128      	movs	r1, #40	; 0x28
 8002fec:	9a00      	ldr	r2, [sp, #0]
 8002fee:	4351      	muls	r1, r2
 8002ff0:	1861      	adds	r1, r4, r1
 8002ff2:	8e0a      	ldrh	r2, [r1, #48]	; 0x30
 8002ff4:	4661      	mov	r1, ip
        USB_WritePMA(hpcd->Instance, ep->xfer_buff,  ep->pmaaddr1, (uint16_t)len);
 8002ff6:	f001 feaa 	bl	8004d4e <USB_WritePMA>
 8002ffa:	e073      	b.n	80030e4 <HAL_PCD_IRQHandler+0x8e8>
        else if (ep->xfer_len_db == 0U)
 8002ffc:	2a00      	cmp	r2, #0
 8002ffe:	d102      	bne.n	8003006 <HAL_PCD_IRQHandler+0x80a>
    if (ep->xfer_len > TxByteNbre)
 8003000:	000e      	movs	r6, r1
          ep->xfer_fill_db = 0U;
 8003002:	703a      	strb	r2, [r7, #0]
 8003004:	e7d6      	b.n	8002fb4 <HAL_PCD_IRQHandler+0x7b8>
          ep->xfer_fill_db = 0U;
 8003006:	2100      	movs	r1, #0
          ep->xfer_len_db = 0U;
 8003008:	0016      	movs	r6, r2
          ep->xfer_fill_db = 0U;
 800300a:	7039      	strb	r1, [r7, #0]
          ep->xfer_len_db = 0U;
 800300c:	6499      	str	r1, [r3, #72]	; 0x48
 800300e:	e7d1      	b.n	8002fb4 <HAL_PCD_IRQHandler+0x7b8>
        PCD_SET_EP_DBUF0_CNT(hpcd->Instance, ep->num, ep->is_in, len);
 8003010:	2e3e      	cmp	r6, #62	; 0x3e
 8003012:	d807      	bhi.n	8003024 <HAL_PCD_IRQHandler+0x828>
 8003014:	2701      	movs	r7, #1
 8003016:	0871      	lsrs	r1, r6, #1
 8003018:	403e      	ands	r6, r7
 800301a:	1989      	adds	r1, r1, r6
 800301c:	0289      	lsls	r1, r1, #10
 800301e:	b289      	uxth	r1, r1
 8003020:	8011      	strh	r1, [r2, #0]
 8003022:	e7e2      	b.n	8002fea <HAL_PCD_IRQHandler+0x7ee>
 8003024:	271f      	movs	r7, #31
 8003026:	0971      	lsrs	r1, r6, #5
 8003028:	403e      	ands	r6, r7
 800302a:	4277      	negs	r7, r6
 800302c:	4177      	adcs	r7, r6
 800302e:	4e64      	ldr	r6, [pc, #400]	; (80031c0 <HAL_PCD_IRQHandler+0x9c4>)
 8003030:	1bc9      	subs	r1, r1, r7
 8003032:	0289      	lsls	r1, r1, #10
 8003034:	4331      	orrs	r1, r6
 8003036:	e7f2      	b.n	800301e <HAL_PCD_IRQHandler+0x822>
 8003038:	2a01      	cmp	r2, #1
 800303a:	d1d6      	bne.n	8002fea <HAL_PCD_IRQHandler+0x7ee>
 800303c:	0002      	movs	r2, r0
 800303e:	3250      	adds	r2, #80	; 0x50
 8003040:	8812      	ldrh	r2, [r2, #0]
 8003042:	7839      	ldrb	r1, [r7, #0]
 8003044:	9e02      	ldr	r6, [sp, #8]
 8003046:	00c9      	lsls	r1, r1, #3
 8003048:	18b2      	adds	r2, r6, r2
 800304a:	188a      	adds	r2, r1, r2
 800304c:	8013      	strh	r3, [r2, #0]
 800304e:	e7cc      	b.n	8002fea <HAL_PCD_IRQHandler+0x7ee>
    TxByteNbre = (uint16_t)PCD_GET_EP_DBUF1_CNT(hpcd->Instance, ep->num);
 8003050:	4666      	mov	r6, ip
 8003052:	4f5c      	ldr	r7, [pc, #368]	; (80031c4 <HAL_PCD_IRQHandler+0x9c8>)
 8003054:	8836      	ldrh	r6, [r6, #0]
 8003056:	19c7      	adds	r7, r0, r7
 8003058:	19be      	adds	r6, r7, r6
 800305a:	9702      	str	r7, [sp, #8]
 800305c:	5ab7      	ldrh	r7, [r6, r2]
 800305e:	05bf      	lsls	r7, r7, #22
    if (ep->xfer_len >= TxByteNbre)
 8003060:	0dbf      	lsrs	r7, r7, #22
 8003062:	429f      	cmp	r7, r3
 8003064:	d800      	bhi.n	8003068 <HAL_PCD_IRQHandler+0x86c>
      ep->xfer_len -= TxByteNbre;
 8003066:	1bd9      	subs	r1, r3, r7
 8003068:	2328      	movs	r3, #40	; 0x28
 800306a:	9e00      	ldr	r6, [sp, #0]
 800306c:	4373      	muls	r3, r6
 800306e:	2680      	movs	r6, #128	; 0x80
 8003070:	18e3      	adds	r3, r4, r3
 8003072:	6419      	str	r1, [r3, #64]	; 0x40
    if (ep->xfer_len == 0U)
 8003074:	9b01      	ldr	r3, [sp, #4]
 8003076:	01f6      	lsls	r6, r6, #7
 8003078:	4033      	ands	r3, r6
 800307a:	001e      	movs	r6, r3
 800307c:	2900      	cmp	r1, #0
 800307e:	d151      	bne.n	8003124 <HAL_PCD_IRQHandler+0x928>
      PCD_SET_EP_DBUF0_CNT(hpcd->Instance, ep->num, ep->is_in, 0U);
 8003080:	002b      	movs	r3, r5
 8003082:	3329      	adds	r3, #41	; 0x29
 8003084:	781b      	ldrb	r3, [r3, #0]
 8003086:	2b00      	cmp	r3, #0
 8003088:	d136      	bne.n	80030f8 <HAL_PCD_IRQHandler+0x8fc>
 800308a:	4663      	mov	r3, ip
 800308c:	8819      	ldrh	r1, [r3, #0]
 800308e:	4b4a      	ldr	r3, [pc, #296]	; (80031b8 <HAL_PCD_IRQHandler+0x9bc>)
 8003090:	18c3      	adds	r3, r0, r3
 8003092:	185b      	adds	r3, r3, r1
 8003094:	189a      	adds	r2, r3, r2
 8003096:	8813      	ldrh	r3, [r2, #0]
 8003098:	4948      	ldr	r1, [pc, #288]	; (80031bc <HAL_PCD_IRQHandler+0x9c0>)
 800309a:	400b      	ands	r3, r1
 800309c:	8013      	strh	r3, [r2, #0]
 800309e:	8813      	ldrh	r3, [r2, #0]
 80030a0:	4947      	ldr	r1, [pc, #284]	; (80031c0 <HAL_PCD_IRQHandler+0x9c4>)
 80030a2:	430b      	orrs	r3, r1
 80030a4:	b29b      	uxth	r3, r3
 80030a6:	8013      	strh	r3, [r2, #0]
      PCD_SET_EP_DBUF1_CNT(hpcd->Instance, ep->num, ep->is_in, 0U);
 80030a8:	002b      	movs	r3, r5
 80030aa:	002f      	movs	r7, r5
 80030ac:	3329      	adds	r3, #41	; 0x29
 80030ae:	781a      	ldrb	r2, [r3, #0]
 80030b0:	3728      	adds	r7, #40	; 0x28
 80030b2:	783b      	ldrb	r3, [r7, #0]
 80030b4:	2a00      	cmp	r2, #0
 80030b6:	d12a      	bne.n	800310e <HAL_PCD_IRQHandler+0x912>
 80030b8:	4662      	mov	r2, ip
 80030ba:	9902      	ldr	r1, [sp, #8]
 80030bc:	8812      	ldrh	r2, [r2, #0]
 80030be:	00db      	lsls	r3, r3, #3
 80030c0:	188a      	adds	r2, r1, r2
 80030c2:	189b      	adds	r3, r3, r2
 80030c4:	881a      	ldrh	r2, [r3, #0]
 80030c6:	493d      	ldr	r1, [pc, #244]	; (80031bc <HAL_PCD_IRQHandler+0x9c0>)
 80030c8:	400a      	ands	r2, r1
 80030ca:	801a      	strh	r2, [r3, #0]
 80030cc:	8819      	ldrh	r1, [r3, #0]
 80030ce:	4a3c      	ldr	r2, [pc, #240]	; (80031c0 <HAL_PCD_IRQHandler+0x9c4>)
 80030d0:	4311      	orrs	r1, r2
 80030d2:	b289      	uxth	r1, r1
 80030d4:	8019      	strh	r1, [r3, #0]
      HAL_PCD_DataInStageCallback(hpcd, ep->num);
 80030d6:	0020      	movs	r0, r4
 80030d8:	7839      	ldrb	r1, [r7, #0]
 80030da:	f002 ffb9 	bl	8006050 <HAL_PCD_DataInStageCallback>
      if ((wEPVal & USB_EP_DTOG_RX) == 0U)
 80030de:	2e00      	cmp	r6, #0
 80030e0:	d100      	bne.n	80030e4 <HAL_PCD_IRQHandler+0x8e8>
 80030e2:	e722      	b.n	8002f2a <HAL_PCD_IRQHandler+0x72e>
  PCD_SET_EP_TX_STATUS(hpcd->Instance, ep->num, USB_EP_TX_VALID);
 80030e4:	3528      	adds	r5, #40	; 0x28
 80030e6:	782b      	ldrb	r3, [r5, #0]
 80030e8:	6822      	ldr	r2, [r4, #0]
 80030ea:	009b      	lsls	r3, r3, #2
 80030ec:	18d1      	adds	r1, r2, r3
 80030ee:	880b      	ldrh	r3, [r1, #0]
 80030f0:	4a37      	ldr	r2, [pc, #220]	; (80031d0 <HAL_PCD_IRQHandler+0x9d4>)
 80030f2:	401a      	ands	r2, r3
 80030f4:	2330      	movs	r3, #48	; 0x30
 80030f6:	e4e7      	b.n	8002ac8 <HAL_PCD_IRQHandler+0x2cc>
      PCD_SET_EP_DBUF0_CNT(hpcd->Instance, ep->num, ep->is_in, 0U);
 80030f8:	2b01      	cmp	r3, #1
 80030fa:	d1d5      	bne.n	80030a8 <HAL_PCD_IRQHandler+0x8ac>
 80030fc:	0003      	movs	r3, r0
 80030fe:	3350      	adds	r3, #80	; 0x50
 8003100:	881f      	ldrh	r7, [r3, #0]
 8003102:	4b2d      	ldr	r3, [pc, #180]	; (80031b8 <HAL_PCD_IRQHandler+0x9bc>)
 8003104:	18c3      	adds	r3, r0, r3
 8003106:	19db      	adds	r3, r3, r7
 8003108:	189b      	adds	r3, r3, r2
 800310a:	8019      	strh	r1, [r3, #0]
 800310c:	e7cc      	b.n	80030a8 <HAL_PCD_IRQHandler+0x8ac>
      PCD_SET_EP_DBUF1_CNT(hpcd->Instance, ep->num, ep->is_in, 0U);
 800310e:	2a01      	cmp	r2, #1
 8003110:	d1e1      	bne.n	80030d6 <HAL_PCD_IRQHandler+0x8da>
 8003112:	3050      	adds	r0, #80	; 0x50
 8003114:	8802      	ldrh	r2, [r0, #0]
 8003116:	9902      	ldr	r1, [sp, #8]
 8003118:	00db      	lsls	r3, r3, #3
 800311a:	188a      	adds	r2, r1, r2
 800311c:	189b      	adds	r3, r3, r2
 800311e:	2200      	movs	r2, #0
 8003120:	801a      	strh	r2, [r3, #0]
 8003122:	e7d8      	b.n	80030d6 <HAL_PCD_IRQHandler+0x8da>
      if ((wEPVal & USB_EP_DTOG_RX) == 0U)
 8003124:	2b00      	cmp	r3, #0
 8003126:	d108      	bne.n	800313a <HAL_PCD_IRQHandler+0x93e>
        PCD_FreeUserBuffer(hpcd->Instance, ep->num, 1U);
 8003128:	9b03      	ldr	r3, [sp, #12]
 800312a:	4a27      	ldr	r2, [pc, #156]	; (80031c8 <HAL_PCD_IRQHandler+0x9cc>)
 800312c:	009b      	lsls	r3, r3, #2
 800312e:	18c3      	adds	r3, r0, r3
 8003130:	8819      	ldrh	r1, [r3, #0]
 8003132:	400a      	ands	r2, r1
 8003134:	4925      	ldr	r1, [pc, #148]	; (80031cc <HAL_PCD_IRQHandler+0x9d0>)
 8003136:	430a      	orrs	r2, r1
 8003138:	801a      	strh	r2, [r3, #0]
      if (ep->xfer_fill_db == 1U)
 800313a:	2328      	movs	r3, #40	; 0x28
 800313c:	9a00      	ldr	r2, [sp, #0]
 800313e:	4353      	muls	r3, r2
 8003140:	224c      	movs	r2, #76	; 0x4c
 8003142:	4694      	mov	ip, r2
 8003144:	18e3      	adds	r3, r4, r3
 8003146:	449c      	add	ip, r3
 8003148:	4662      	mov	r2, ip
 800314a:	7812      	ldrb	r2, [r2, #0]
 800314c:	2a01      	cmp	r2, #1
 800314e:	d1c9      	bne.n	80030e4 <HAL_PCD_IRQHandler+0x8e8>
        ep->xfer_buff += TxByteNbre;
 8003150:	6bda      	ldr	r2, [r3, #60]	; 0x3c
        if (ep->xfer_len_db >= ep->maxpacket)
 8003152:	6c9e      	ldr	r6, [r3, #72]	; 0x48
        ep->xfer_buff += TxByteNbre;
 8003154:	19d1      	adds	r1, r2, r7
        ep->xfer_count += TxByteNbre;
 8003156:	6c5a      	ldr	r2, [r3, #68]	; 0x44
        ep->xfer_buff += TxByteNbre;
 8003158:	63d9      	str	r1, [r3, #60]	; 0x3c
        ep->xfer_count += TxByteNbre;
 800315a:	19d2      	adds	r2, r2, r7
 800315c:	645a      	str	r2, [r3, #68]	; 0x44
        if (ep->xfer_len_db >= ep->maxpacket)
 800315e:	6b9a      	ldr	r2, [r3, #56]	; 0x38
 8003160:	4296      	cmp	r6, r2
 8003162:	d31c      	bcc.n	800319e <HAL_PCD_IRQHandler+0x9a2>
          ep->xfer_len_db -= len;
 8003164:	1ab6      	subs	r6, r6, r2
 8003166:	649e      	str	r6, [r3, #72]	; 0x48
        PCD_SET_EP_DBUF1_CNT(hpcd->Instance, ep->num, ep->is_in, len);
 8003168:	002b      	movs	r3, r5
 800316a:	002e      	movs	r6, r5
 800316c:	3329      	adds	r3, #41	; 0x29
 800316e:	781f      	ldrb	r7, [r3, #0]
 8003170:	b293      	uxth	r3, r2
 8003172:	9301      	str	r3, [sp, #4]
 8003174:	3628      	adds	r6, #40	; 0x28
 8003176:	2f00      	cmp	r7, #0
 8003178:	d144      	bne.n	8003204 <HAL_PCD_IRQHandler+0xa08>
 800317a:	0007      	movs	r7, r0
 800317c:	3750      	adds	r7, #80	; 0x50
 800317e:	883f      	ldrh	r7, [r7, #0]
 8003180:	7836      	ldrb	r6, [r6, #0]
 8003182:	9b02      	ldr	r3, [sp, #8]
 8003184:	00f6      	lsls	r6, r6, #3
 8003186:	19df      	adds	r7, r3, r7
 8003188:	19f6      	adds	r6, r6, r7
 800318a:	2a00      	cmp	r2, #0
 800318c:	d122      	bne.n	80031d4 <HAL_PCD_IRQHandler+0x9d8>
 800318e:	8832      	ldrh	r2, [r6, #0]
 8003190:	4f0a      	ldr	r7, [pc, #40]	; (80031bc <HAL_PCD_IRQHandler+0x9c0>)
 8003192:	403a      	ands	r2, r7
 8003194:	8032      	strh	r2, [r6, #0]
 8003196:	8837      	ldrh	r7, [r6, #0]
 8003198:	4b09      	ldr	r3, [pc, #36]	; (80031c0 <HAL_PCD_IRQHandler+0x9c4>)
 800319a:	431f      	orrs	r7, r3
 800319c:	e021      	b.n	80031e2 <HAL_PCD_IRQHandler+0x9e6>
        else if (ep->xfer_len_db == 0U)
 800319e:	2e00      	cmp	r6, #0
 80031a0:	d103      	bne.n	80031aa <HAL_PCD_IRQHandler+0x9ae>
          ep->xfer_fill_db = 0U;
 80031a2:	4663      	mov	r3, ip
    if (ep->xfer_len >= TxByteNbre)
 80031a4:	003a      	movs	r2, r7
          ep->xfer_fill_db = 0U;
 80031a6:	701e      	strb	r6, [r3, #0]
 80031a8:	e7de      	b.n	8003168 <HAL_PCD_IRQHandler+0x96c>
          ep->xfer_len_db = 0U;
 80031aa:	2200      	movs	r2, #0
 80031ac:	649a      	str	r2, [r3, #72]	; 0x48
          ep->xfer_fill_db = 0;
 80031ae:	4663      	mov	r3, ip
 80031b0:	701a      	strb	r2, [r3, #0]
 80031b2:	0032      	movs	r2, r6
 80031b4:	e7d8      	b.n	8003168 <HAL_PCD_IRQHandler+0x96c>
 80031b6:	46c0      	nop			; (mov r8, r8)
 80031b8:	00000402 	.word	0x00000402
 80031bc:	ffff83ff 	.word	0xffff83ff
 80031c0:	ffff8000 	.word	0xffff8000
 80031c4:	00000406 	.word	0x00000406
 80031c8:	ffff8f8f 	.word	0xffff8f8f
 80031cc:	0000c080 	.word	0x0000c080
 80031d0:	ffff8fbf 	.word	0xffff8fbf
        PCD_SET_EP_DBUF1_CNT(hpcd->Instance, ep->num, ep->is_in, len);
 80031d4:	2a3e      	cmp	r2, #62	; 0x3e
 80031d6:	d80d      	bhi.n	80031f4 <HAL_PCD_IRQHandler+0x9f8>
 80031d8:	2301      	movs	r3, #1
 80031da:	0857      	lsrs	r7, r2, #1
 80031dc:	401a      	ands	r2, r3
 80031de:	18bf      	adds	r7, r7, r2
 80031e0:	02bf      	lsls	r7, r7, #10
 80031e2:	b2bf      	uxth	r7, r7
 80031e4:	8037      	strh	r7, [r6, #0]
        USB_WritePMA(hpcd->Instance, ep->xfer_buff,  ep->pmaaddr1, (uint16_t)len);
 80031e6:	2228      	movs	r2, #40	; 0x28
 80031e8:	9b00      	ldr	r3, [sp, #0]
 80031ea:	435a      	muls	r2, r3
 80031ec:	18a2      	adds	r2, r4, r2
 80031ee:	8e52      	ldrh	r2, [r2, #50]	; 0x32
 80031f0:	9b01      	ldr	r3, [sp, #4]
 80031f2:	e700      	b.n	8002ff6 <HAL_PCD_IRQHandler+0x7fa>
        PCD_SET_EP_DBUF1_CNT(hpcd->Instance, ep->num, ep->is_in, len);
 80031f4:	231f      	movs	r3, #31
 80031f6:	0957      	lsrs	r7, r2, #5
 80031f8:	401a      	ands	r2, r3
 80031fa:	4253      	negs	r3, r2
 80031fc:	4153      	adcs	r3, r2
 80031fe:	1aff      	subs	r7, r7, r3
 8003200:	02bf      	lsls	r7, r7, #10
 8003202:	e7c9      	b.n	8003198 <HAL_PCD_IRQHandler+0x99c>
 8003204:	2f01      	cmp	r7, #1
 8003206:	d1ee      	bne.n	80031e6 <HAL_PCD_IRQHandler+0x9ea>
 8003208:	0002      	movs	r2, r0
 800320a:	3250      	adds	r2, #80	; 0x50
 800320c:	8812      	ldrh	r2, [r2, #0]
 800320e:	7836      	ldrb	r6, [r6, #0]
 8003210:	9b02      	ldr	r3, [sp, #8]
 8003212:	00f6      	lsls	r6, r6, #3
 8003214:	189a      	adds	r2, r3, r2
 8003216:	9b01      	ldr	r3, [sp, #4]
 8003218:	18b2      	adds	r2, r6, r2
 800321a:	8013      	strh	r3, [r2, #0]
 800321c:	e7e3      	b.n	80031e6 <HAL_PCD_IRQHandler+0x9ea>
      HAL_PCD_SuspendCallback(hpcd);
 800321e:	0020      	movs	r0, r4
 8003220:	f002 ff3a 	bl	8006098 <HAL_PCD_SuspendCallback>
 8003224:	f7ff fb7c 	bl	8002920 <HAL_PCD_IRQHandler+0x124>

08003228 <HAL_PCD_EP_Open>:
{
 8003228:	b570      	push	{r4, r5, r6, lr}
 800322a:	0005      	movs	r5, r0
 800322c:	2007      	movs	r0, #7
 800322e:	4008      	ands	r0, r1
  if ((ep_addr & 0x80U) == 0x80U)
 8003230:	b249      	sxtb	r1, r1
 8003232:	2428      	movs	r4, #40	; 0x28
 8003234:	2900      	cmp	r1, #0
 8003236:	da1d      	bge.n	8003274 <HAL_PCD_EP_Open+0x4c>
    ep = &hpcd->IN_ep[ep_addr & EP_ADDR_MSK];
 8003238:	1c41      	adds	r1, r0, #1
 800323a:	4361      	muls	r1, r4
    ep->is_in = 1U;
 800323c:	3c27      	subs	r4, #39	; 0x27
    ep = &hpcd->IN_ep[ep_addr & EP_ADDR_MSK];
 800323e:	1869      	adds	r1, r5, r1
    ep->is_in = 1U;
 8003240:	704c      	strb	r4, [r1, #1]
  ep->maxpacket = ep_mps;
 8003242:	610a      	str	r2, [r1, #16]
  if (ep->is_in != 0U)
 8003244:	784a      	ldrb	r2, [r1, #1]
  ep->num = ep_addr & EP_ADDR_MSK;
 8003246:	7008      	strb	r0, [r1, #0]
  ep->type = ep_type;
 8003248:	70cb      	strb	r3, [r1, #3]
  if (ep->is_in != 0U)
 800324a:	2a00      	cmp	r2, #0
 800324c:	d000      	beq.n	8003250 <HAL_PCD_EP_Open+0x28>
    ep->tx_fifo_num = ep->num;
 800324e:	81c8      	strh	r0, [r1, #14]
  if (ep_type == EP_TYPE_BULK)
 8003250:	2b02      	cmp	r3, #2
 8003252:	d101      	bne.n	8003258 <HAL_PCD_EP_Open+0x30>
    ep->data_pid_start = 0U;
 8003254:	2300      	movs	r3, #0
 8003256:	710b      	strb	r3, [r1, #4]
  __HAL_LOCK(hpcd);
 8003258:	24aa      	movs	r4, #170	; 0xaa
 800325a:	00a4      	lsls	r4, r4, #2
 800325c:	5d2b      	ldrb	r3, [r5, r4]
 800325e:	2002      	movs	r0, #2
 8003260:	2b01      	cmp	r3, #1
 8003262:	d006      	beq.n	8003272 <HAL_PCD_EP_Open+0x4a>
 8003264:	2301      	movs	r3, #1
 8003266:	552b      	strb	r3, [r5, r4]
  (void)USB_ActivateEndpoint(hpcd->Instance, ep);
 8003268:	6828      	ldr	r0, [r5, #0]
 800326a:	f001 fb29 	bl	80048c0 <USB_ActivateEndpoint>
  __HAL_UNLOCK(hpcd);
 800326e:	2000      	movs	r0, #0
 8003270:	5528      	strb	r0, [r5, r4]
}
 8003272:	bd70      	pop	{r4, r5, r6, pc}
    ep = &hpcd->OUT_ep[ep_addr & EP_ADDR_MSK];
 8003274:	4344      	muls	r4, r0
 8003276:	0021      	movs	r1, r4
    ep->is_in = 0U;
 8003278:	2600      	movs	r6, #0
 800327a:	192c      	adds	r4, r5, r4
    ep = &hpcd->OUT_ep[ep_addr & EP_ADDR_MSK];
 800327c:	3169      	adds	r1, #105	; 0x69
    ep->is_in = 0U;
 800327e:	346a      	adds	r4, #106	; 0x6a
    ep = &hpcd->OUT_ep[ep_addr & EP_ADDR_MSK];
 8003280:	31ff      	adds	r1, #255	; 0xff
    ep->is_in = 0U;
 8003282:	34ff      	adds	r4, #255	; 0xff
    ep = &hpcd->OUT_ep[ep_addr & EP_ADDR_MSK];
 8003284:	1869      	adds	r1, r5, r1
    ep->is_in = 0U;
 8003286:	7026      	strb	r6, [r4, #0]
 8003288:	e7db      	b.n	8003242 <HAL_PCD_EP_Open+0x1a>

0800328a <HAL_PCD_EP_Close>:
{
 800328a:	b570      	push	{r4, r5, r6, lr}
 800328c:	0004      	movs	r4, r0
 800328e:	2007      	movs	r0, #7
 8003290:	4008      	ands	r0, r1
  if ((ep_addr & 0x80U) == 0x80U)
 8003292:	b249      	sxtb	r1, r1
 8003294:	2328      	movs	r3, #40	; 0x28
 8003296:	2900      	cmp	r1, #0
 8003298:	da13      	bge.n	80032c2 <HAL_PCD_EP_Close+0x38>
    ep = &hpcd->IN_ep[ep_addr & EP_ADDR_MSK];
 800329a:	1c41      	adds	r1, r0, #1
 800329c:	4359      	muls	r1, r3
    ep->is_in = 1U;
 800329e:	3b27      	subs	r3, #39	; 0x27
    ep = &hpcd->IN_ep[ep_addr & EP_ADDR_MSK];
 80032a0:	1861      	adds	r1, r4, r1
    ep->is_in = 1U;
 80032a2:	704b      	strb	r3, [r1, #1]
  __HAL_LOCK(hpcd);
 80032a4:	25aa      	movs	r5, #170	; 0xaa
  ep->num   = ep_addr & EP_ADDR_MSK;
 80032a6:	7008      	strb	r0, [r1, #0]
  __HAL_LOCK(hpcd);
 80032a8:	00ad      	lsls	r5, r5, #2
 80032aa:	5d63      	ldrb	r3, [r4, r5]
 80032ac:	2002      	movs	r0, #2
 80032ae:	2b01      	cmp	r3, #1
 80032b0:	d006      	beq.n	80032c0 <HAL_PCD_EP_Close+0x36>
 80032b2:	2301      	movs	r3, #1
 80032b4:	5563      	strb	r3, [r4, r5]
  (void)USB_DeactivateEndpoint(hpcd->Instance, ep);
 80032b6:	6820      	ldr	r0, [r4, #0]
 80032b8:	f001 fc40 	bl	8004b3c <USB_DeactivateEndpoint>
  __HAL_UNLOCK(hpcd);
 80032bc:	2000      	movs	r0, #0
 80032be:	5560      	strb	r0, [r4, r5]
}
 80032c0:	bd70      	pop	{r4, r5, r6, pc}
    ep = &hpcd->OUT_ep[ep_addr & EP_ADDR_MSK];
 80032c2:	4343      	muls	r3, r0
 80032c4:	0019      	movs	r1, r3
    ep->is_in = 0U;
 80032c6:	18e2      	adds	r2, r4, r3
 80032c8:	2300      	movs	r3, #0
    ep = &hpcd->OUT_ep[ep_addr & EP_ADDR_MSK];
 80032ca:	3169      	adds	r1, #105	; 0x69
    ep->is_in = 0U;
 80032cc:	326a      	adds	r2, #106	; 0x6a
    ep = &hpcd->OUT_ep[ep_addr & EP_ADDR_MSK];
 80032ce:	31ff      	adds	r1, #255	; 0xff
    ep->is_in = 0U;
 80032d0:	32ff      	adds	r2, #255	; 0xff
    ep = &hpcd->OUT_ep[ep_addr & EP_ADDR_MSK];
 80032d2:	1861      	adds	r1, r4, r1
    ep->is_in = 0U;
 80032d4:	7013      	strb	r3, [r2, #0]
 80032d6:	e7e5      	b.n	80032a4 <HAL_PCD_EP_Close+0x1a>

080032d8 <HAL_PCD_EP_Receive>:
{
 80032d8:	b570      	push	{r4, r5, r6, lr}
 80032da:	2407      	movs	r4, #7
 80032dc:	4021      	ands	r1, r4
  ep->xfer_buff = pBuf;
 80032de:	3421      	adds	r4, #33	; 0x21
 80032e0:	434c      	muls	r4, r1
 80032e2:	1905      	adds	r5, r0, r4
 80032e4:	002e      	movs	r6, r5
 80032e6:	367d      	adds	r6, #125	; 0x7d
 80032e8:	36ff      	adds	r6, #255	; 0xff
 80032ea:	6032      	str	r2, [r6, #0]
  ep->xfer_len = len;
 80032ec:	002a      	movs	r2, r5
 80032ee:	3281      	adds	r2, #129	; 0x81
 80032f0:	32ff      	adds	r2, #255	; 0xff
 80032f2:	6013      	str	r3, [r2, #0]
  ep->xfer_count = 0U;
 80032f4:	002b      	movs	r3, r5
 80032f6:	2600      	movs	r6, #0
 80032f8:	3385      	adds	r3, #133	; 0x85
 80032fa:	33ff      	adds	r3, #255	; 0xff
  ep->num = ep_addr & EP_ADDR_MSK;
 80032fc:	3569      	adds	r5, #105	; 0x69
  ep->xfer_count = 0U;
 80032fe:	601e      	str	r6, [r3, #0]
  ep->num = ep_addr & EP_ADDR_MSK;
 8003300:	35ff      	adds	r5, #255	; 0xff
  ep->is_in = 0U;
 8003302:	3b1b      	subs	r3, #27
 8003304:	701e      	strb	r6, [r3, #0]
  ep->num = ep_addr & EP_ADDR_MSK;
 8003306:	7029      	strb	r1, [r5, #0]
  ep = &hpcd->OUT_ep[ep_addr & EP_ADDR_MSK];
 8003308:	0021      	movs	r1, r4
 800330a:	3169      	adds	r1, #105	; 0x69
 800330c:	31ff      	adds	r1, #255	; 0xff
 800330e:	1841      	adds	r1, r0, r1
    (void)USB_EPStartXfer(hpcd->Instance, ep);
 8003310:	6800      	ldr	r0, [r0, #0]
 8003312:	f001 fd31 	bl	8004d78 <USB_EPStartXfer>
}
 8003316:	0030      	movs	r0, r6
 8003318:	bd70      	pop	{r4, r5, r6, pc}

0800331a <HAL_PCD_EP_GetRxCount>:
  return hpcd->OUT_ep[ep_addr & EP_ADDR_MSK].xfer_count;
 800331a:	2307      	movs	r3, #7
 800331c:	400b      	ands	r3, r1
 800331e:	2128      	movs	r1, #40	; 0x28
 8003320:	4359      	muls	r1, r3
 8003322:	1840      	adds	r0, r0, r1
 8003324:	3085      	adds	r0, #133	; 0x85
 8003326:	30ff      	adds	r0, #255	; 0xff
 8003328:	6800      	ldr	r0, [r0, #0]
}
 800332a:	4770      	bx	lr

0800332c <HAL_PCD_EP_Transmit>:
{
 800332c:	b570      	push	{r4, r5, r6, lr}
  ep->xfer_buff = pBuf;
 800332e:	2628      	movs	r6, #40	; 0x28
 8003330:	2407      	movs	r4, #7
 8003332:	4021      	ands	r1, r4
 8003334:	0034      	movs	r4, r6
 8003336:	434c      	muls	r4, r1
 8003338:	1904      	adds	r4, r0, r4
  ep->xfer_fill_db = 1U;
 800333a:	0025      	movs	r5, r4
  ep->xfer_buff = pBuf;
 800333c:	63e2      	str	r2, [r4, #60]	; 0x3c
  ep->xfer_fill_db = 1U;
 800333e:	2201      	movs	r2, #1
 8003340:	354c      	adds	r5, #76	; 0x4c
  ep->xfer_len = len;
 8003342:	6423      	str	r3, [r4, #64]	; 0x40
  ep->xfer_fill_db = 1U;
 8003344:	702a      	strb	r2, [r5, #0]
  ep->xfer_count = 0U;
 8003346:	2500      	movs	r5, #0
  ep->xfer_len_db = len;
 8003348:	64a3      	str	r3, [r4, #72]	; 0x48
  ep->is_in = 1U;
 800334a:	0023      	movs	r3, r4
  ep->xfer_count = 0U;
 800334c:	6465      	str	r5, [r4, #68]	; 0x44
  ep->is_in = 1U;
 800334e:	3329      	adds	r3, #41	; 0x29
  ep->num = ep_addr & EP_ADDR_MSK;
 8003350:	19a4      	adds	r4, r4, r6
  ep->is_in = 1U;
 8003352:	701a      	strb	r2, [r3, #0]
  ep->num = ep_addr & EP_ADDR_MSK;
 8003354:	7021      	strb	r1, [r4, #0]
  ep = &hpcd->IN_ep[ep_addr & EP_ADDR_MSK];
 8003356:	1889      	adds	r1, r1, r2
 8003358:	4371      	muls	r1, r6
 800335a:	1841      	adds	r1, r0, r1
    (void)USB_EPStartXfer(hpcd->Instance, ep);
 800335c:	6800      	ldr	r0, [r0, #0]
 800335e:	f001 fd0b 	bl	8004d78 <USB_EPStartXfer>
}
 8003362:	0028      	movs	r0, r5
 8003364:	bd70      	pop	{r4, r5, r6, pc}

08003366 <HAL_PCD_EP_SetStall>:
{
 8003366:	b570      	push	{r4, r5, r6, lr}
 8003368:	0004      	movs	r4, r0
 800336a:	2507      	movs	r5, #7
  if (((uint32_t)ep_addr & EP_ADDR_MSK) > hpcd->Init.dev_endpoints)
 800336c:	6863      	ldr	r3, [r4, #4]
    return HAL_ERROR;
 800336e:	2001      	movs	r0, #1
 8003370:	400d      	ands	r5, r1
  if (((uint32_t)ep_addr & EP_ADDR_MSK) > hpcd->Init.dev_endpoints)
 8003372:	429d      	cmp	r5, r3
 8003374:	d816      	bhi.n	80033a4 <HAL_PCD_EP_SetStall+0x3e>
  if ((0x80U & ep_addr) == 0x80U)
 8003376:	b24a      	sxtb	r2, r1
 8003378:	2328      	movs	r3, #40	; 0x28
 800337a:	2a00      	cmp	r2, #0
 800337c:	da13      	bge.n	80033a6 <HAL_PCD_EP_SetStall+0x40>
    ep = &hpcd->IN_ep[ep_addr & EP_ADDR_MSK];
 800337e:	1829      	adds	r1, r5, r0
 8003380:	4359      	muls	r1, r3
 8003382:	1861      	adds	r1, r4, r1
    ep->is_in = 1U;
 8003384:	7048      	strb	r0, [r1, #1]
  ep->num = ep_addr & EP_ADDR_MSK;
 8003386:	700d      	strb	r5, [r1, #0]
  ep->is_stall = 1U;
 8003388:	2301      	movs	r3, #1
  __HAL_LOCK(hpcd);
 800338a:	25aa      	movs	r5, #170	; 0xaa
  ep->is_stall = 1U;
 800338c:	708b      	strb	r3, [r1, #2]
  __HAL_LOCK(hpcd);
 800338e:	00ad      	lsls	r5, r5, #2
 8003390:	5d62      	ldrb	r2, [r4, r5]
 8003392:	2002      	movs	r0, #2
 8003394:	429a      	cmp	r2, r3
 8003396:	d005      	beq.n	80033a4 <HAL_PCD_EP_SetStall+0x3e>
 8003398:	5563      	strb	r3, [r4, r5]
  (void)USB_EPSetStall(hpcd->Instance, ep);
 800339a:	6820      	ldr	r0, [r4, #0]
 800339c:	f001 fc64 	bl	8004c68 <USB_EPSetStall>
  __HAL_UNLOCK(hpcd);
 80033a0:	2000      	movs	r0, #0
 80033a2:	5560      	strb	r0, [r4, r5]
}
 80033a4:	bd70      	pop	{r4, r5, r6, pc}
    ep = &hpcd->OUT_ep[ep_addr];
 80033a6:	434b      	muls	r3, r1
 80033a8:	0019      	movs	r1, r3
    ep->is_in = 0U;
 80033aa:	18e2      	adds	r2, r4, r3
 80033ac:	2300      	movs	r3, #0
    ep = &hpcd->OUT_ep[ep_addr];
 80033ae:	3169      	adds	r1, #105	; 0x69
    ep->is_in = 0U;
 80033b0:	326a      	adds	r2, #106	; 0x6a
    ep = &hpcd->OUT_ep[ep_addr];
 80033b2:	31ff      	adds	r1, #255	; 0xff
    ep->is_in = 0U;
 80033b4:	32ff      	adds	r2, #255	; 0xff
    ep = &hpcd->OUT_ep[ep_addr];
 80033b6:	1861      	adds	r1, r4, r1
    ep->is_in = 0U;
 80033b8:	7013      	strb	r3, [r2, #0]
 80033ba:	e7e4      	b.n	8003386 <HAL_PCD_EP_SetStall+0x20>

080033bc <HAL_PCD_EP_ClrStall>:
{
 80033bc:	b570      	push	{r4, r5, r6, lr}
 80033be:	0004      	movs	r4, r0
  if (((uint32_t)ep_addr & 0x0FU) > hpcd->Init.dev_endpoints)
 80033c0:	230f      	movs	r3, #15
 80033c2:	6862      	ldr	r2, [r4, #4]
    return HAL_ERROR;
 80033c4:	2001      	movs	r0, #1
  if (((uint32_t)ep_addr & 0x0FU) > hpcd->Init.dev_endpoints)
 80033c6:	400b      	ands	r3, r1
 80033c8:	4293      	cmp	r3, r2
 80033ca:	d81a      	bhi.n	8003402 <HAL_PCD_EP_ClrStall+0x46>
  if ((0x80U & ep_addr) == 0x80U)
 80033cc:	3006      	adds	r0, #6
 80033ce:	4008      	ands	r0, r1
 80033d0:	b249      	sxtb	r1, r1
 80033d2:	2328      	movs	r3, #40	; 0x28
 80033d4:	2900      	cmp	r1, #0
 80033d6:	da15      	bge.n	8003404 <HAL_PCD_EP_ClrStall+0x48>
    ep = &hpcd->IN_ep[ep_addr & EP_ADDR_MSK];
 80033d8:	1c41      	adds	r1, r0, #1
 80033da:	4359      	muls	r1, r3
    ep->is_in = 1U;
 80033dc:	3b27      	subs	r3, #39	; 0x27
    ep = &hpcd->IN_ep[ep_addr & EP_ADDR_MSK];
 80033de:	1861      	adds	r1, r4, r1
    ep->is_in = 1U;
 80033e0:	704b      	strb	r3, [r1, #1]
  ep->is_stall = 0U;
 80033e2:	2500      	movs	r5, #0
  __HAL_LOCK(hpcd);
 80033e4:	26aa      	movs	r6, #170	; 0xaa
  ep->num = ep_addr & EP_ADDR_MSK;
 80033e6:	7008      	strb	r0, [r1, #0]
  ep->is_stall = 0U;
 80033e8:	708d      	strb	r5, [r1, #2]
  __HAL_LOCK(hpcd);
 80033ea:	00b6      	lsls	r6, r6, #2
 80033ec:	5da3      	ldrb	r3, [r4, r6]
 80033ee:	2002      	movs	r0, #2
 80033f0:	2b01      	cmp	r3, #1
 80033f2:	d006      	beq.n	8003402 <HAL_PCD_EP_ClrStall+0x46>
 80033f4:	2301      	movs	r3, #1
 80033f6:	55a3      	strb	r3, [r4, r6]
  (void)USB_EPClearStall(hpcd->Instance, ep);
 80033f8:	6820      	ldr	r0, [r4, #0]
 80033fa:	f001 fc53 	bl	8004ca4 <USB_EPClearStall>
  return HAL_OK;
 80033fe:	0028      	movs	r0, r5
  __HAL_UNLOCK(hpcd);
 8003400:	55a5      	strb	r5, [r4, r6]
}
 8003402:	bd70      	pop	{r4, r5, r6, pc}
    ep = &hpcd->OUT_ep[ep_addr & EP_ADDR_MSK];
 8003404:	4343      	muls	r3, r0
 8003406:	0019      	movs	r1, r3
    ep->is_in = 0U;
 8003408:	18e2      	adds	r2, r4, r3
 800340a:	2300      	movs	r3, #0
    ep = &hpcd->OUT_ep[ep_addr & EP_ADDR_MSK];
 800340c:	3169      	adds	r1, #105	; 0x69
    ep->is_in = 0U;
 800340e:	326a      	adds	r2, #106	; 0x6a
    ep = &hpcd->OUT_ep[ep_addr & EP_ADDR_MSK];
 8003410:	31ff      	adds	r1, #255	; 0xff
    ep->is_in = 0U;
 8003412:	32ff      	adds	r2, #255	; 0xff
    ep = &hpcd->OUT_ep[ep_addr & EP_ADDR_MSK];
 8003414:	1861      	adds	r1, r4, r1
    ep->is_in = 0U;
 8003416:	7013      	strb	r3, [r2, #0]
 8003418:	e7e3      	b.n	80033e2 <HAL_PCD_EP_ClrStall+0x26>

0800341a <HAL_PCDEx_PMAConfig>:
  * @retval HAL status
  */

HAL_StatusTypeDef  HAL_PCDEx_PMAConfig(PCD_HandleTypeDef *hpcd, uint16_t ep_addr,
                                       uint16_t ep_kind, uint32_t pmaadress)
{
 800341a:	b510      	push	{r4, lr}
 800341c:	000c      	movs	r4, r1
  PCD_EPTypeDef *ep;

  /* initialize ep structure*/
  if ((0x80U & ep_addr) == 0x80U)
 800341e:	0621      	lsls	r1, r4, #24
 8003420:	d50c      	bpl.n	800343c <HAL_PCDEx_PMAConfig+0x22>
  {
    ep = &hpcd->IN_ep[ep_addr & EP_ADDR_MSK];
 8003422:	2107      	movs	r1, #7
 8003424:	4021      	ands	r1, r4
 8003426:	2428      	movs	r4, #40	; 0x28
 8003428:	3101      	adds	r1, #1
 800342a:	4361      	muls	r1, r4
  }
  else
  {
    ep = &hpcd->OUT_ep[ep_addr];
 800342c:	1840      	adds	r0, r0, r1
  }

  /* Here we check if the endpoint is single or double Buffer*/
  if (ep_kind == PCD_SNG_BUF)
 800342e:	b299      	uxth	r1, r3
 8003430:	2a00      	cmp	r2, #0
 8003432:	d108      	bne.n	8003446 <HAL_PCDEx_PMAConfig+0x2c>
  {
    /* Single Buffer */
    ep->doublebuffer = 0U;
 8003434:	7302      	strb	r2, [r0, #12]
    /* Configure the PMA */
    ep->pmaadress = (uint16_t)pmaadress;
 8003436:	80c1      	strh	r1, [r0, #6]
    ep->pmaaddr0 = (uint16_t)(pmaadress & 0xFFFFU);
    ep->pmaaddr1 = (uint16_t)((pmaadress & 0xFFFF0000U) >> 16);
  }

  return HAL_OK;
}
 8003438:	2000      	movs	r0, #0
 800343a:	bd10      	pop	{r4, pc}
    ep = &hpcd->OUT_ep[ep_addr];
 800343c:	2128      	movs	r1, #40	; 0x28
 800343e:	4361      	muls	r1, r4
 8003440:	3169      	adds	r1, #105	; 0x69
 8003442:	31ff      	adds	r1, #255	; 0xff
 8003444:	e7f2      	b.n	800342c <HAL_PCDEx_PMAConfig+0x12>
    ep->doublebuffer = 1U;
 8003446:	2201      	movs	r2, #1
    ep->pmaaddr0 = (uint16_t)(pmaadress & 0xFFFFU);
 8003448:	6083      	str	r3, [r0, #8]
    ep->doublebuffer = 1U;
 800344a:	7302      	strb	r2, [r0, #12]
    ep->pmaaddr1 = (uint16_t)((pmaadress & 0xFFFF0000U) >> 16);
 800344c:	e7f4      	b.n	8003438 <HAL_PCDEx_PMAConfig+0x1e>

0800344e <HAL_PCDEx_ActivateLPM>:
  * @retval HAL status
  */
HAL_StatusTypeDef HAL_PCDEx_ActivateLPM(PCD_HandleTypeDef *hpcd)
{

  USB_TypeDef *USBx = hpcd->Instance;
 800344e:	6803      	ldr	r3, [r0, #0]
{
 8003450:	0002      	movs	r2, r0
  hpcd->lpm_active = 1U;
 8003452:	20ba      	movs	r0, #186	; 0xba
 8003454:	2101      	movs	r1, #1
{
 8003456:	b510      	push	{r4, lr}
  hpcd->lpm_active = 1U;
 8003458:	0080      	lsls	r0, r0, #2
  hpcd->LPM_State = LPM_L0;
 800345a:	24b8      	movs	r4, #184	; 0xb8
  hpcd->lpm_active = 1U;
 800345c:	5011      	str	r1, [r2, r0]
  hpcd->LPM_State = LPM_L0;
 800345e:	2000      	movs	r0, #0
 8003460:	00a4      	lsls	r4, r4, #2
 8003462:	5510      	strb	r0, [r2, r4]

  USBx->LPMCSR |= USB_LPMCSR_LMPEN;
 8003464:	3354      	adds	r3, #84	; 0x54
 8003466:	881a      	ldrh	r2, [r3, #0]
 8003468:	4311      	orrs	r1, r2
  USBx->LPMCSR |= USB_LPMCSR_LPMACK;
 800346a:	2202      	movs	r2, #2
  USBx->LPMCSR |= USB_LPMCSR_LMPEN;
 800346c:	8019      	strh	r1, [r3, #0]
  USBx->LPMCSR |= USB_LPMCSR_LPMACK;
 800346e:	8819      	ldrh	r1, [r3, #0]
 8003470:	430a      	orrs	r2, r1
 8003472:	801a      	strh	r2, [r3, #0]

  return HAL_OK;
}
 8003474:	bd10      	pop	{r4, pc}

08003476 <HAL_PCDEx_LPM_Callback>:
  UNUSED(msg);

  /* NOTE : This function should not be modified, when the callback is needed,
            the HAL_PCDEx_LPM_Callback could be implemented in the user file
   */
}
 8003476:	4770      	bx	lr

08003478 <HAL_RCC_OscConfig>:
  *         supported by this macro. User should request a transition to HSE Off
  *         first and then HSE On or HSE Bypass.
  * @retval HAL status
  */
HAL_StatusTypeDef HAL_RCC_OscConfig(RCC_OscInitTypeDef  *RCC_OscInitStruct)
{
 8003478:	b5f0      	push	{r4, r5, r6, r7, lr}
 800347a:	0004      	movs	r4, r0
 800347c:	b085      	sub	sp, #20
  uint32_t tickstart;
  uint32_t pll_config;
  uint32_t pll_config2;

  /* Check Null pointer */
  if(RCC_OscInitStruct == NULL)
 800347e:	2800      	cmp	r0, #0
 8003480:	d04e      	beq.n	8003520 <HAL_RCC_OscConfig+0xa8>

  /* Check the parameters */
  assert_param(IS_RCC_OSCILLATORTYPE(RCC_OscInitStruct->OscillatorType));

  /*------------------------------- HSE Configuration ------------------------*/ 
  if(((RCC_OscInitStruct->OscillatorType) & RCC_OSCILLATORTYPE_HSE) == RCC_OSCILLATORTYPE_HSE)
 8003482:	6803      	ldr	r3, [r0, #0]
 8003484:	07db      	lsls	r3, r3, #31
 8003486:	d433      	bmi.n	80034f0 <HAL_RCC_OscConfig+0x78>
        }
      }
    }
  }
  /*----------------------------- HSI Configuration --------------------------*/ 
  if(((RCC_OscInitStruct->OscillatorType) & RCC_OSCILLATORTYPE_HSI) == RCC_OSCILLATORTYPE_HSI)
 8003488:	6823      	ldr	r3, [r4, #0]
 800348a:	079b      	lsls	r3, r3, #30
 800348c:	d500      	bpl.n	8003490 <HAL_RCC_OscConfig+0x18>
 800348e:	e08a      	b.n	80035a6 <HAL_RCC_OscConfig+0x12e>
        }
      }
    }
  }
  /*------------------------------ LSI Configuration -------------------------*/ 
  if(((RCC_OscInitStruct->OscillatorType) & RCC_OSCILLATORTYPE_LSI) == RCC_OSCILLATORTYPE_LSI)
 8003490:	6823      	ldr	r3, [r4, #0]
 8003492:	071b      	lsls	r3, r3, #28
 8003494:	d500      	bpl.n	8003498 <HAL_RCC_OscConfig+0x20>
 8003496:	e0ca      	b.n	800362e <HAL_RCC_OscConfig+0x1b6>
        }
      }
    }
  }
  /*------------------------------ LSE Configuration -------------------------*/ 
  if(((RCC_OscInitStruct->OscillatorType) & RCC_OSCILLATORTYPE_LSE) == RCC_OSCILLATORTYPE_LSE)
 8003498:	6823      	ldr	r3, [r4, #0]
 800349a:	075b      	lsls	r3, r3, #29
 800349c:	d500      	bpl.n	80034a0 <HAL_RCC_OscConfig+0x28>
 800349e:	e0ed      	b.n	800367c <HAL_RCC_OscConfig+0x204>
      __HAL_RCC_PWR_CLK_DISABLE();
    }
  }

  /*----------------------------- HSI14 Configuration --------------------------*/
  if(((RCC_OscInitStruct->OscillatorType) & RCC_OSCILLATORTYPE_HSI14) == RCC_OSCILLATORTYPE_HSI14)
 80034a0:	6823      	ldr	r3, [r4, #0]
 80034a2:	06db      	lsls	r3, r3, #27
 80034a4:	d51a      	bpl.n	80034dc <HAL_RCC_OscConfig+0x64>
    /* Check the parameters */
    assert_param(IS_RCC_HSI14(RCC_OscInitStruct->HSI14State));
    assert_param(IS_RCC_CALIBRATION_VALUE(RCC_OscInitStruct->HSI14CalibrationValue));

    /* Check the HSI14 State */
    if(RCC_OscInitStruct->HSI14State == RCC_HSI14_ON)
 80034a6:	6962      	ldr	r2, [r4, #20]
 80034a8:	2304      	movs	r3, #4
 80034aa:	4dbc      	ldr	r5, [pc, #752]	; (800379c <HAL_RCC_OscConfig+0x324>)
 80034ac:	2a01      	cmp	r2, #1
 80034ae:	d000      	beq.n	80034b2 <HAL_RCC_OscConfig+0x3a>
 80034b0:	e158      	b.n	8003764 <HAL_RCC_OscConfig+0x2ec>
    {
      /* Disable ADC control of the Internal High Speed oscillator HSI14 */
      __HAL_RCC_HSI14ADC_DISABLE();
 80034b2:	6b69      	ldr	r1, [r5, #52]	; 0x34

      /* Get Start Tick */
      tickstart = HAL_GetTick();
      
      /* Wait till HSI is ready */  
      while(__HAL_RCC_GET_FLAG(RCC_FLAG_HSI14RDY) == RESET)
 80034b4:	2702      	movs	r7, #2
      __HAL_RCC_HSI14ADC_DISABLE();
 80034b6:	430b      	orrs	r3, r1
 80034b8:	636b      	str	r3, [r5, #52]	; 0x34
      __HAL_RCC_HSI14_ENABLE();
 80034ba:	6b6b      	ldr	r3, [r5, #52]	; 0x34
 80034bc:	431a      	orrs	r2, r3
 80034be:	636a      	str	r2, [r5, #52]	; 0x34
      tickstart = HAL_GetTick();
 80034c0:	f7fe fc80 	bl	8001dc4 <HAL_GetTick>
 80034c4:	0006      	movs	r6, r0
      while(__HAL_RCC_GET_FLAG(RCC_FLAG_HSI14RDY) == RESET)
 80034c6:	6b6b      	ldr	r3, [r5, #52]	; 0x34
 80034c8:	423b      	tst	r3, r7
 80034ca:	d100      	bne.n	80034ce <HAL_RCC_OscConfig+0x56>
 80034cc:	e143      	b.n	8003756 <HAL_RCC_OscConfig+0x2de>
    {
      /* Enable ADC control of the Internal High Speed oscillator HSI14 */
      __HAL_RCC_HSI14ADC_ENABLE();

      /* Adjusts the Internal High Speed oscillator 14Mhz (HSI14) calibration value. */
      __HAL_RCC_HSI14_CALIBRATIONVALUE_ADJUST(RCC_OscInitStruct->HSI14CalibrationValue);
 80034ce:	21f8      	movs	r1, #248	; 0xf8
 80034d0:	6b6a      	ldr	r2, [r5, #52]	; 0x34
 80034d2:	69a3      	ldr	r3, [r4, #24]
 80034d4:	438a      	bics	r2, r1
 80034d6:	00db      	lsls	r3, r3, #3
 80034d8:	4313      	orrs	r3, r2
 80034da:	636b      	str	r3, [r5, #52]	; 0x34
    }
  }

#if defined(RCC_HSI48_SUPPORT)
  /*----------------------------- HSI48 Configuration --------------------------*/
  if(((RCC_OscInitStruct->OscillatorType) & RCC_OSCILLATORTYPE_HSI48) == RCC_OSCILLATORTYPE_HSI48)
 80034dc:	6823      	ldr	r3, [r4, #0]
 80034de:	069b      	lsls	r3, r3, #26
 80034e0:	d500      	bpl.n	80034e4 <HAL_RCC_OscConfig+0x6c>
 80034e2:	e167      	b.n	80037b4 <HAL_RCC_OscConfig+0x33c>
#endif /* RCC_HSI48_SUPPORT */
       
  /*-------------------------------- PLL Configuration -----------------------*/
  /* Check the parameters */
  assert_param(IS_RCC_PLL(RCC_OscInitStruct->PLL.PLLState));
  if ((RCC_OscInitStruct->PLL.PLLState) != RCC_PLL_NONE)
 80034e4:	6a63      	ldr	r3, [r4, #36]	; 0x24
 80034e6:	2b00      	cmp	r3, #0
 80034e8:	d000      	beq.n	80034ec <HAL_RCC_OscConfig+0x74>
 80034ea:	e1a4      	b.n	8003836 <HAL_RCC_OscConfig+0x3be>
        }
      }
    }
  }

  return HAL_OK;
 80034ec:	2000      	movs	r0, #0
 80034ee:	e02f      	b.n	8003550 <HAL_RCC_OscConfig+0xd8>
    if((__HAL_RCC_GET_SYSCLK_SOURCE() == RCC_SYSCLKSOURCE_STATUS_HSE) 
 80034f0:	210c      	movs	r1, #12
 80034f2:	4daa      	ldr	r5, [pc, #680]	; (800379c <HAL_RCC_OscConfig+0x324>)
 80034f4:	686a      	ldr	r2, [r5, #4]
 80034f6:	400a      	ands	r2, r1
 80034f8:	2a04      	cmp	r2, #4
 80034fa:	d00b      	beq.n	8003514 <HAL_RCC_OscConfig+0x9c>
       || ((__HAL_RCC_GET_SYSCLK_SOURCE() == RCC_SYSCLKSOURCE_STATUS_PLLCLK) && (__HAL_RCC_GET_PLL_OSCSOURCE() == RCC_PLLSOURCE_HSE)))
 80034fc:	686b      	ldr	r3, [r5, #4]
 80034fe:	400b      	ands	r3, r1
 8003500:	2b08      	cmp	r3, #8
 8003502:	d10f      	bne.n	8003524 <HAL_RCC_OscConfig+0xac>
 8003504:	22c0      	movs	r2, #192	; 0xc0
 8003506:	686b      	ldr	r3, [r5, #4]
 8003508:	0252      	lsls	r2, r2, #9
 800350a:	4013      	ands	r3, r2
 800350c:	2280      	movs	r2, #128	; 0x80
 800350e:	0252      	lsls	r2, r2, #9
 8003510:	4293      	cmp	r3, r2
 8003512:	d107      	bne.n	8003524 <HAL_RCC_OscConfig+0xac>
      if((__HAL_RCC_GET_FLAG(RCC_FLAG_HSERDY) != RESET) && (RCC_OscInitStruct->HSEState == RCC_HSE_OFF))
 8003514:	682b      	ldr	r3, [r5, #0]
 8003516:	039b      	lsls	r3, r3, #14
 8003518:	d5b6      	bpl.n	8003488 <HAL_RCC_OscConfig+0x10>
 800351a:	6863      	ldr	r3, [r4, #4]
 800351c:	2b00      	cmp	r3, #0
 800351e:	d1b3      	bne.n	8003488 <HAL_RCC_OscConfig+0x10>
          return HAL_ERROR;
 8003520:	2001      	movs	r0, #1
 8003522:	e015      	b.n	8003550 <HAL_RCC_OscConfig+0xd8>
      __HAL_RCC_HSE_CONFIG(RCC_OscInitStruct->HSEState);
 8003524:	6863      	ldr	r3, [r4, #4]
 8003526:	2b01      	cmp	r3, #1
 8003528:	d114      	bne.n	8003554 <HAL_RCC_OscConfig+0xdc>
 800352a:	2380      	movs	r3, #128	; 0x80
 800352c:	682a      	ldr	r2, [r5, #0]
 800352e:	025b      	lsls	r3, r3, #9
 8003530:	4313      	orrs	r3, r2
 8003532:	602b      	str	r3, [r5, #0]
        tickstart = HAL_GetTick();
 8003534:	f7fe fc46 	bl	8001dc4 <HAL_GetTick>
        while(__HAL_RCC_GET_FLAG(RCC_FLAG_HSERDY) == RESET)
 8003538:	2780      	movs	r7, #128	; 0x80
        tickstart = HAL_GetTick();
 800353a:	0006      	movs	r6, r0
        while(__HAL_RCC_GET_FLAG(RCC_FLAG_HSERDY) == RESET)
 800353c:	02bf      	lsls	r7, r7, #10
 800353e:	682b      	ldr	r3, [r5, #0]
 8003540:	423b      	tst	r3, r7
 8003542:	d1a1      	bne.n	8003488 <HAL_RCC_OscConfig+0x10>
          if((HAL_GetTick() - tickstart ) > HSE_TIMEOUT_VALUE)
 8003544:	f7fe fc3e 	bl	8001dc4 <HAL_GetTick>
 8003548:	1b80      	subs	r0, r0, r6
 800354a:	2864      	cmp	r0, #100	; 0x64
 800354c:	d9f7      	bls.n	800353e <HAL_RCC_OscConfig+0xc6>
            return HAL_TIMEOUT;
 800354e:	2003      	movs	r0, #3
}
 8003550:	b005      	add	sp, #20
 8003552:	bdf0      	pop	{r4, r5, r6, r7, pc}
      __HAL_RCC_HSE_CONFIG(RCC_OscInitStruct->HSEState);
 8003554:	2b00      	cmp	r3, #0
 8003556:	d116      	bne.n	8003586 <HAL_RCC_OscConfig+0x10e>
 8003558:	682b      	ldr	r3, [r5, #0]
 800355a:	4a91      	ldr	r2, [pc, #580]	; (80037a0 <HAL_RCC_OscConfig+0x328>)
        while(__HAL_RCC_GET_FLAG(RCC_FLAG_HSERDY) != RESET)
 800355c:	2780      	movs	r7, #128	; 0x80
      __HAL_RCC_HSE_CONFIG(RCC_OscInitStruct->HSEState);
 800355e:	4013      	ands	r3, r2
 8003560:	602b      	str	r3, [r5, #0]
 8003562:	682b      	ldr	r3, [r5, #0]
 8003564:	4a8f      	ldr	r2, [pc, #572]	; (80037a4 <HAL_RCC_OscConfig+0x32c>)
        while(__HAL_RCC_GET_FLAG(RCC_FLAG_HSERDY) != RESET)
 8003566:	02bf      	lsls	r7, r7, #10
      __HAL_RCC_HSE_CONFIG(RCC_OscInitStruct->HSEState);
 8003568:	4013      	ands	r3, r2
 800356a:	602b      	str	r3, [r5, #0]
        tickstart = HAL_GetTick();
 800356c:	f7fe fc2a 	bl	8001dc4 <HAL_GetTick>
 8003570:	0006      	movs	r6, r0
        while(__HAL_RCC_GET_FLAG(RCC_FLAG_HSERDY) != RESET)
 8003572:	682b      	ldr	r3, [r5, #0]
 8003574:	423b      	tst	r3, r7
 8003576:	d100      	bne.n	800357a <HAL_RCC_OscConfig+0x102>
 8003578:	e786      	b.n	8003488 <HAL_RCC_OscConfig+0x10>
           if((HAL_GetTick() - tickstart ) > HSE_TIMEOUT_VALUE)
 800357a:	f7fe fc23 	bl	8001dc4 <HAL_GetTick>
 800357e:	1b80      	subs	r0, r0, r6
 8003580:	2864      	cmp	r0, #100	; 0x64
 8003582:	d9f6      	bls.n	8003572 <HAL_RCC_OscConfig+0xfa>
 8003584:	e7e3      	b.n	800354e <HAL_RCC_OscConfig+0xd6>
      __HAL_RCC_HSE_CONFIG(RCC_OscInitStruct->HSEState);
 8003586:	2b05      	cmp	r3, #5
 8003588:	d105      	bne.n	8003596 <HAL_RCC_OscConfig+0x11e>
 800358a:	2380      	movs	r3, #128	; 0x80
 800358c:	682a      	ldr	r2, [r5, #0]
 800358e:	02db      	lsls	r3, r3, #11
 8003590:	4313      	orrs	r3, r2
 8003592:	602b      	str	r3, [r5, #0]
 8003594:	e7c9      	b.n	800352a <HAL_RCC_OscConfig+0xb2>
 8003596:	682b      	ldr	r3, [r5, #0]
 8003598:	4a81      	ldr	r2, [pc, #516]	; (80037a0 <HAL_RCC_OscConfig+0x328>)
 800359a:	4013      	ands	r3, r2
 800359c:	602b      	str	r3, [r5, #0]
 800359e:	682b      	ldr	r3, [r5, #0]
 80035a0:	4a80      	ldr	r2, [pc, #512]	; (80037a4 <HAL_RCC_OscConfig+0x32c>)
 80035a2:	4013      	ands	r3, r2
 80035a4:	e7c5      	b.n	8003532 <HAL_RCC_OscConfig+0xba>
    if((__HAL_RCC_GET_SYSCLK_SOURCE() == RCC_SYSCLKSOURCE_STATUS_HSI) 
 80035a6:	220c      	movs	r2, #12
 80035a8:	4d7c      	ldr	r5, [pc, #496]	; (800379c <HAL_RCC_OscConfig+0x324>)
 80035aa:	686b      	ldr	r3, [r5, #4]
 80035ac:	4213      	tst	r3, r2
 80035ae:	d00b      	beq.n	80035c8 <HAL_RCC_OscConfig+0x150>
       || ((__HAL_RCC_GET_SYSCLK_SOURCE() == RCC_SYSCLKSOURCE_STATUS_PLLCLK) && (__HAL_RCC_GET_PLL_OSCSOURCE() == RCC_PLLSOURCE_HSI)))
 80035b0:	686b      	ldr	r3, [r5, #4]
 80035b2:	4013      	ands	r3, r2
 80035b4:	2b08      	cmp	r3, #8
 80035b6:	d115      	bne.n	80035e4 <HAL_RCC_OscConfig+0x16c>
 80035b8:	22c0      	movs	r2, #192	; 0xc0
 80035ba:	686b      	ldr	r3, [r5, #4]
 80035bc:	0252      	lsls	r2, r2, #9
 80035be:	4013      	ands	r3, r2
 80035c0:	2280      	movs	r2, #128	; 0x80
 80035c2:	0212      	lsls	r2, r2, #8
 80035c4:	4293      	cmp	r3, r2
 80035c6:	d10d      	bne.n	80035e4 <HAL_RCC_OscConfig+0x16c>
      if((__HAL_RCC_GET_FLAG(RCC_FLAG_HSIRDY) != RESET) && (RCC_OscInitStruct->HSIState != RCC_HSI_ON))
 80035c8:	682b      	ldr	r3, [r5, #0]
 80035ca:	079b      	lsls	r3, r3, #30
 80035cc:	d502      	bpl.n	80035d4 <HAL_RCC_OscConfig+0x15c>
 80035ce:	68e3      	ldr	r3, [r4, #12]
 80035d0:	2b01      	cmp	r3, #1
 80035d2:	d1a5      	bne.n	8003520 <HAL_RCC_OscConfig+0xa8>
        __HAL_RCC_HSI_CALIBRATIONVALUE_ADJUST(RCC_OscInitStruct->HSICalibrationValue);
 80035d4:	21f8      	movs	r1, #248	; 0xf8
 80035d6:	682a      	ldr	r2, [r5, #0]
 80035d8:	6923      	ldr	r3, [r4, #16]
 80035da:	438a      	bics	r2, r1
 80035dc:	00db      	lsls	r3, r3, #3
 80035de:	4313      	orrs	r3, r2
 80035e0:	602b      	str	r3, [r5, #0]
 80035e2:	e755      	b.n	8003490 <HAL_RCC_OscConfig+0x18>
      if(RCC_OscInitStruct->HSIState != RCC_HSI_OFF)
 80035e4:	68e2      	ldr	r2, [r4, #12]
 80035e6:	2301      	movs	r3, #1
 80035e8:	2a00      	cmp	r2, #0
 80035ea:	d00f      	beq.n	800360c <HAL_RCC_OscConfig+0x194>
        __HAL_RCC_HSI_ENABLE();
 80035ec:	682a      	ldr	r2, [r5, #0]
        while(__HAL_RCC_GET_FLAG(RCC_FLAG_HSIRDY) == RESET)
 80035ee:	2702      	movs	r7, #2
        __HAL_RCC_HSI_ENABLE();
 80035f0:	4313      	orrs	r3, r2
 80035f2:	602b      	str	r3, [r5, #0]
        tickstart = HAL_GetTick();
 80035f4:	f7fe fbe6 	bl	8001dc4 <HAL_GetTick>
 80035f8:	0006      	movs	r6, r0
        while(__HAL_RCC_GET_FLAG(RCC_FLAG_HSIRDY) == RESET)
 80035fa:	682b      	ldr	r3, [r5, #0]
 80035fc:	423b      	tst	r3, r7
 80035fe:	d1e9      	bne.n	80035d4 <HAL_RCC_OscConfig+0x15c>
          if((HAL_GetTick() - tickstart ) > HSI_TIMEOUT_VALUE)
 8003600:	f7fe fbe0 	bl	8001dc4 <HAL_GetTick>
 8003604:	1b80      	subs	r0, r0, r6
 8003606:	2802      	cmp	r0, #2
 8003608:	d9f7      	bls.n	80035fa <HAL_RCC_OscConfig+0x182>
 800360a:	e7a0      	b.n	800354e <HAL_RCC_OscConfig+0xd6>
        __HAL_RCC_HSI_DISABLE();
 800360c:	682a      	ldr	r2, [r5, #0]
        while(__HAL_RCC_GET_FLAG(RCC_FLAG_HSIRDY) != RESET)
 800360e:	2702      	movs	r7, #2
        __HAL_RCC_HSI_DISABLE();
 8003610:	439a      	bics	r2, r3
 8003612:	602a      	str	r2, [r5, #0]
        tickstart = HAL_GetTick();
 8003614:	f7fe fbd6 	bl	8001dc4 <HAL_GetTick>
 8003618:	0006      	movs	r6, r0
        while(__HAL_RCC_GET_FLAG(RCC_FLAG_HSIRDY) != RESET)
 800361a:	682b      	ldr	r3, [r5, #0]
 800361c:	423b      	tst	r3, r7
 800361e:	d100      	bne.n	8003622 <HAL_RCC_OscConfig+0x1aa>
 8003620:	e736      	b.n	8003490 <HAL_RCC_OscConfig+0x18>
          if((HAL_GetTick() - tickstart ) > HSI_TIMEOUT_VALUE)
 8003622:	f7fe fbcf 	bl	8001dc4 <HAL_GetTick>
 8003626:	1b80      	subs	r0, r0, r6
 8003628:	2802      	cmp	r0, #2
 800362a:	d9f6      	bls.n	800361a <HAL_RCC_OscConfig+0x1a2>
 800362c:	e78f      	b.n	800354e <HAL_RCC_OscConfig+0xd6>
    if(RCC_OscInitStruct->LSIState != RCC_LSI_OFF)
 800362e:	69e2      	ldr	r2, [r4, #28]
 8003630:	2301      	movs	r3, #1
 8003632:	4d5a      	ldr	r5, [pc, #360]	; (800379c <HAL_RCC_OscConfig+0x324>)
 8003634:	2a00      	cmp	r2, #0
 8003636:	d010      	beq.n	800365a <HAL_RCC_OscConfig+0x1e2>
      __HAL_RCC_LSI_ENABLE();
 8003638:	6a6a      	ldr	r2, [r5, #36]	; 0x24
      while(__HAL_RCC_GET_FLAG(RCC_FLAG_LSIRDY) == RESET)
 800363a:	2702      	movs	r7, #2
      __HAL_RCC_LSI_ENABLE();
 800363c:	4313      	orrs	r3, r2
 800363e:	626b      	str	r3, [r5, #36]	; 0x24
      tickstart = HAL_GetTick();
 8003640:	f7fe fbc0 	bl	8001dc4 <HAL_GetTick>
 8003644:	0006      	movs	r6, r0
      while(__HAL_RCC_GET_FLAG(RCC_FLAG_LSIRDY) == RESET)
 8003646:	6a6b      	ldr	r3, [r5, #36]	; 0x24
 8003648:	423b      	tst	r3, r7
 800364a:	d000      	beq.n	800364e <HAL_RCC_OscConfig+0x1d6>
 800364c:	e724      	b.n	8003498 <HAL_RCC_OscConfig+0x20>
        if((HAL_GetTick() - tickstart ) > LSI_TIMEOUT_VALUE)
 800364e:	f7fe fbb9 	bl	8001dc4 <HAL_GetTick>
 8003652:	1b80      	subs	r0, r0, r6
 8003654:	2802      	cmp	r0, #2
 8003656:	d9f6      	bls.n	8003646 <HAL_RCC_OscConfig+0x1ce>
 8003658:	e779      	b.n	800354e <HAL_RCC_OscConfig+0xd6>
      __HAL_RCC_LSI_DISABLE();
 800365a:	6a6a      	ldr	r2, [r5, #36]	; 0x24
      while(__HAL_RCC_GET_FLAG(RCC_FLAG_LSIRDY) != RESET)
 800365c:	2702      	movs	r7, #2
      __HAL_RCC_LSI_DISABLE();
 800365e:	439a      	bics	r2, r3
 8003660:	626a      	str	r2, [r5, #36]	; 0x24
      tickstart = HAL_GetTick();
 8003662:	f7fe fbaf 	bl	8001dc4 <HAL_GetTick>
 8003666:	0006      	movs	r6, r0
      while(__HAL_RCC_GET_FLAG(RCC_FLAG_LSIRDY) != RESET)
 8003668:	6a6b      	ldr	r3, [r5, #36]	; 0x24
 800366a:	423b      	tst	r3, r7
 800366c:	d100      	bne.n	8003670 <HAL_RCC_OscConfig+0x1f8>
 800366e:	e713      	b.n	8003498 <HAL_RCC_OscConfig+0x20>
        if((HAL_GetTick() - tickstart ) > LSI_TIMEOUT_VALUE)
 8003670:	f7fe fba8 	bl	8001dc4 <HAL_GetTick>
 8003674:	1b80      	subs	r0, r0, r6
 8003676:	2802      	cmp	r0, #2
 8003678:	d9f6      	bls.n	8003668 <HAL_RCC_OscConfig+0x1f0>
 800367a:	e768      	b.n	800354e <HAL_RCC_OscConfig+0xd6>
    if(__HAL_RCC_PWR_IS_CLK_DISABLED())
 800367c:	2280      	movs	r2, #128	; 0x80
    FlagStatus       pwrclkchanged = RESET;
 800367e:	2100      	movs	r1, #0
    if(__HAL_RCC_PWR_IS_CLK_DISABLED())
 8003680:	4d46      	ldr	r5, [pc, #280]	; (800379c <HAL_RCC_OscConfig+0x324>)
 8003682:	0552      	lsls	r2, r2, #21
 8003684:	69eb      	ldr	r3, [r5, #28]
    FlagStatus       pwrclkchanged = RESET;
 8003686:	9100      	str	r1, [sp, #0]
    if(__HAL_RCC_PWR_IS_CLK_DISABLED())
 8003688:	4213      	tst	r3, r2
 800368a:	d108      	bne.n	800369e <HAL_RCC_OscConfig+0x226>
      __HAL_RCC_PWR_CLK_ENABLE();
 800368c:	69eb      	ldr	r3, [r5, #28]
 800368e:	4313      	orrs	r3, r2
 8003690:	61eb      	str	r3, [r5, #28]
 8003692:	69eb      	ldr	r3, [r5, #28]
 8003694:	4013      	ands	r3, r2
 8003696:	9303      	str	r3, [sp, #12]
 8003698:	9b03      	ldr	r3, [sp, #12]
      pwrclkchanged = SET;
 800369a:	2301      	movs	r3, #1
 800369c:	9300      	str	r3, [sp, #0]
    if(HAL_IS_BIT_CLR(PWR->CR, PWR_CR_DBP))
 800369e:	2780      	movs	r7, #128	; 0x80
 80036a0:	4e41      	ldr	r6, [pc, #260]	; (80037a8 <HAL_RCC_OscConfig+0x330>)
 80036a2:	007f      	lsls	r7, r7, #1
 80036a4:	6833      	ldr	r3, [r6, #0]
 80036a6:	423b      	tst	r3, r7
 80036a8:	d006      	beq.n	80036b8 <HAL_RCC_OscConfig+0x240>
    __HAL_RCC_LSE_CONFIG(RCC_OscInitStruct->LSEState);
 80036aa:	68a3      	ldr	r3, [r4, #8]
 80036ac:	2b01      	cmp	r3, #1
 80036ae:	d113      	bne.n	80036d8 <HAL_RCC_OscConfig+0x260>
 80036b0:	6a2a      	ldr	r2, [r5, #32]
 80036b2:	4313      	orrs	r3, r2
 80036b4:	622b      	str	r3, [r5, #32]
 80036b6:	e030      	b.n	800371a <HAL_RCC_OscConfig+0x2a2>
      SET_BIT(PWR->CR, PWR_CR_DBP);
 80036b8:	6833      	ldr	r3, [r6, #0]
 80036ba:	433b      	orrs	r3, r7
 80036bc:	6033      	str	r3, [r6, #0]
      tickstart = HAL_GetTick();
 80036be:	f7fe fb81 	bl	8001dc4 <HAL_GetTick>
 80036c2:	9001      	str	r0, [sp, #4]
      while(HAL_IS_BIT_CLR(PWR->CR, PWR_CR_DBP))
 80036c4:	6833      	ldr	r3, [r6, #0]
 80036c6:	423b      	tst	r3, r7
 80036c8:	d1ef      	bne.n	80036aa <HAL_RCC_OscConfig+0x232>
        if((HAL_GetTick() - tickstart) > RCC_DBP_TIMEOUT_VALUE)
 80036ca:	f7fe fb7b 	bl	8001dc4 <HAL_GetTick>
 80036ce:	9b01      	ldr	r3, [sp, #4]
 80036d0:	1ac0      	subs	r0, r0, r3
 80036d2:	2864      	cmp	r0, #100	; 0x64
 80036d4:	d9f6      	bls.n	80036c4 <HAL_RCC_OscConfig+0x24c>
 80036d6:	e73a      	b.n	800354e <HAL_RCC_OscConfig+0xd6>
    __HAL_RCC_LSE_CONFIG(RCC_OscInitStruct->LSEState);
 80036d8:	2201      	movs	r2, #1
 80036da:	2b00      	cmp	r3, #0
 80036dc:	d114      	bne.n	8003708 <HAL_RCC_OscConfig+0x290>
 80036de:	6a2b      	ldr	r3, [r5, #32]
      while(__HAL_RCC_GET_FLAG(RCC_FLAG_LSERDY) != RESET)
 80036e0:	2702      	movs	r7, #2
    __HAL_RCC_LSE_CONFIG(RCC_OscInitStruct->LSEState);
 80036e2:	4393      	bics	r3, r2
 80036e4:	622b      	str	r3, [r5, #32]
 80036e6:	6a2b      	ldr	r3, [r5, #32]
 80036e8:	3203      	adds	r2, #3
 80036ea:	4393      	bics	r3, r2
 80036ec:	622b      	str	r3, [r5, #32]
      tickstart = HAL_GetTick();
 80036ee:	f7fe fb69 	bl	8001dc4 <HAL_GetTick>
 80036f2:	0006      	movs	r6, r0
      while(__HAL_RCC_GET_FLAG(RCC_FLAG_LSERDY) != RESET)
 80036f4:	6a2b      	ldr	r3, [r5, #32]
 80036f6:	423b      	tst	r3, r7
 80036f8:	d016      	beq.n	8003728 <HAL_RCC_OscConfig+0x2b0>
        if((HAL_GetTick() - tickstart ) > RCC_LSE_TIMEOUT_VALUE)
 80036fa:	f7fe fb63 	bl	8001dc4 <HAL_GetTick>
 80036fe:	4b2b      	ldr	r3, [pc, #172]	; (80037ac <HAL_RCC_OscConfig+0x334>)
 8003700:	1b80      	subs	r0, r0, r6
 8003702:	4298      	cmp	r0, r3
 8003704:	d9f6      	bls.n	80036f4 <HAL_RCC_OscConfig+0x27c>
 8003706:	e722      	b.n	800354e <HAL_RCC_OscConfig+0xd6>
    __HAL_RCC_LSE_CONFIG(RCC_OscInitStruct->LSEState);
 8003708:	2b05      	cmp	r3, #5
 800370a:	d116      	bne.n	800373a <HAL_RCC_OscConfig+0x2c2>
 800370c:	6a29      	ldr	r1, [r5, #32]
 800370e:	3b01      	subs	r3, #1
 8003710:	430b      	orrs	r3, r1
 8003712:	622b      	str	r3, [r5, #32]
 8003714:	6a2b      	ldr	r3, [r5, #32]
 8003716:	431a      	orrs	r2, r3
 8003718:	622a      	str	r2, [r5, #32]
      tickstart = HAL_GetTick();
 800371a:	f7fe fb53 	bl	8001dc4 <HAL_GetTick>
      while(__HAL_RCC_GET_FLAG(RCC_FLAG_LSERDY) == RESET)
 800371e:	2702      	movs	r7, #2
      tickstart = HAL_GetTick();
 8003720:	0006      	movs	r6, r0
      while(__HAL_RCC_GET_FLAG(RCC_FLAG_LSERDY) == RESET)
 8003722:	6a2b      	ldr	r3, [r5, #32]
 8003724:	423b      	tst	r3, r7
 8003726:	d00f      	beq.n	8003748 <HAL_RCC_OscConfig+0x2d0>
    if(pwrclkchanged == SET)
 8003728:	9b00      	ldr	r3, [sp, #0]
 800372a:	2b01      	cmp	r3, #1
 800372c:	d000      	beq.n	8003730 <HAL_RCC_OscConfig+0x2b8>
 800372e:	e6b7      	b.n	80034a0 <HAL_RCC_OscConfig+0x28>
      __HAL_RCC_PWR_CLK_DISABLE();
 8003730:	69eb      	ldr	r3, [r5, #28]
 8003732:	4a1f      	ldr	r2, [pc, #124]	; (80037b0 <HAL_RCC_OscConfig+0x338>)
 8003734:	4013      	ands	r3, r2
 8003736:	61eb      	str	r3, [r5, #28]
 8003738:	e6b2      	b.n	80034a0 <HAL_RCC_OscConfig+0x28>
    __HAL_RCC_LSE_CONFIG(RCC_OscInitStruct->LSEState);
 800373a:	6a2b      	ldr	r3, [r5, #32]
 800373c:	4393      	bics	r3, r2
 800373e:	2204      	movs	r2, #4
 8003740:	622b      	str	r3, [r5, #32]
 8003742:	6a2b      	ldr	r3, [r5, #32]
 8003744:	4393      	bics	r3, r2
 8003746:	e7b5      	b.n	80036b4 <HAL_RCC_OscConfig+0x23c>
        if((HAL_GetTick() - tickstart ) > RCC_LSE_TIMEOUT_VALUE)
 8003748:	f7fe fb3c 	bl	8001dc4 <HAL_GetTick>
 800374c:	4b17      	ldr	r3, [pc, #92]	; (80037ac <HAL_RCC_OscConfig+0x334>)
 800374e:	1b80      	subs	r0, r0, r6
 8003750:	4298      	cmp	r0, r3
 8003752:	d9e6      	bls.n	8003722 <HAL_RCC_OscConfig+0x2aa>
 8003754:	e6fb      	b.n	800354e <HAL_RCC_OscConfig+0xd6>
        if((HAL_GetTick() - tickstart) > HSI14_TIMEOUT_VALUE)
 8003756:	f7fe fb35 	bl	8001dc4 <HAL_GetTick>
 800375a:	1b80      	subs	r0, r0, r6
 800375c:	2802      	cmp	r0, #2
 800375e:	d800      	bhi.n	8003762 <HAL_RCC_OscConfig+0x2ea>
 8003760:	e6b1      	b.n	80034c6 <HAL_RCC_OscConfig+0x4e>
 8003762:	e6f4      	b.n	800354e <HAL_RCC_OscConfig+0xd6>
    else if(RCC_OscInitStruct->HSI14State == RCC_HSI14_ADC_CONTROL)
 8003764:	3205      	adds	r2, #5
 8003766:	d103      	bne.n	8003770 <HAL_RCC_OscConfig+0x2f8>
      __HAL_RCC_HSI14ADC_ENABLE();
 8003768:	6b6a      	ldr	r2, [r5, #52]	; 0x34
 800376a:	439a      	bics	r2, r3
 800376c:	636a      	str	r2, [r5, #52]	; 0x34
 800376e:	e6ae      	b.n	80034ce <HAL_RCC_OscConfig+0x56>
      __HAL_RCC_HSI14ADC_DISABLE();
 8003770:	6b6a      	ldr	r2, [r5, #52]	; 0x34
      while(__HAL_RCC_GET_FLAG(RCC_FLAG_HSI14RDY) != RESET)
 8003772:	2702      	movs	r7, #2
      __HAL_RCC_HSI14ADC_DISABLE();
 8003774:	4313      	orrs	r3, r2
      __HAL_RCC_HSI14_DISABLE();
 8003776:	2201      	movs	r2, #1
      __HAL_RCC_HSI14ADC_DISABLE();
 8003778:	636b      	str	r3, [r5, #52]	; 0x34
      __HAL_RCC_HSI14_DISABLE();
 800377a:	6b6b      	ldr	r3, [r5, #52]	; 0x34
 800377c:	4393      	bics	r3, r2
 800377e:	636b      	str	r3, [r5, #52]	; 0x34
      tickstart = HAL_GetTick();
 8003780:	f7fe fb20 	bl	8001dc4 <HAL_GetTick>
 8003784:	0006      	movs	r6, r0
      while(__HAL_RCC_GET_FLAG(RCC_FLAG_HSI14RDY) != RESET)
 8003786:	6b6b      	ldr	r3, [r5, #52]	; 0x34
 8003788:	423b      	tst	r3, r7
 800378a:	d100      	bne.n	800378e <HAL_RCC_OscConfig+0x316>
 800378c:	e6a6      	b.n	80034dc <HAL_RCC_OscConfig+0x64>
        if((HAL_GetTick() - tickstart) > HSI14_TIMEOUT_VALUE)
 800378e:	f7fe fb19 	bl	8001dc4 <HAL_GetTick>
 8003792:	1b80      	subs	r0, r0, r6
 8003794:	2802      	cmp	r0, #2
 8003796:	d9f6      	bls.n	8003786 <HAL_RCC_OscConfig+0x30e>
 8003798:	e6d9      	b.n	800354e <HAL_RCC_OscConfig+0xd6>
 800379a:	46c0      	nop			; (mov r8, r8)
 800379c:	40021000 	.word	0x40021000
 80037a0:	fffeffff 	.word	0xfffeffff
 80037a4:	fffbffff 	.word	0xfffbffff
 80037a8:	40007000 	.word	0x40007000
 80037ac:	00001388 	.word	0x00001388
 80037b0:	efffffff 	.word	0xefffffff
    if((__HAL_RCC_GET_SYSCLK_SOURCE() == RCC_SYSCLKSOURCE_STATUS_HSI48) ||
 80037b4:	210c      	movs	r1, #12
 80037b6:	4d54      	ldr	r5, [pc, #336]	; (8003908 <HAL_RCC_OscConfig+0x490>)
 80037b8:	686a      	ldr	r2, [r5, #4]
 80037ba:	400a      	ands	r2, r1
 80037bc:	428a      	cmp	r2, r1
 80037be:	d009      	beq.n	80037d4 <HAL_RCC_OscConfig+0x35c>
       ((__HAL_RCC_GET_SYSCLK_SOURCE() == RCC_SYSCLKSOURCE_STATUS_PLLCLK) && (__HAL_RCC_GET_PLL_OSCSOURCE() == RCC_PLLSOURCE_HSI48)))
 80037c0:	686b      	ldr	r3, [r5, #4]
 80037c2:	400b      	ands	r3, r1
    if((__HAL_RCC_GET_SYSCLK_SOURCE() == RCC_SYSCLKSOURCE_STATUS_HSI48) ||
 80037c4:	2b08      	cmp	r3, #8
 80037c6:	d10e      	bne.n	80037e6 <HAL_RCC_OscConfig+0x36e>
       ((__HAL_RCC_GET_SYSCLK_SOURCE() == RCC_SYSCLKSOURCE_STATUS_PLLCLK) && (__HAL_RCC_GET_PLL_OSCSOURCE() == RCC_PLLSOURCE_HSI48)))
 80037c8:	22c0      	movs	r2, #192	; 0xc0
 80037ca:	686b      	ldr	r3, [r5, #4]
 80037cc:	0252      	lsls	r2, r2, #9
 80037ce:	4013      	ands	r3, r2
 80037d0:	4293      	cmp	r3, r2
 80037d2:	d108      	bne.n	80037e6 <HAL_RCC_OscConfig+0x36e>
      if((__HAL_RCC_GET_FLAG(RCC_FLAG_HSI48RDY) != RESET) && (RCC_OscInitStruct->HSI48State != RCC_HSI48_ON))
 80037d4:	6b6b      	ldr	r3, [r5, #52]	; 0x34
 80037d6:	03db      	lsls	r3, r3, #15
 80037d8:	d400      	bmi.n	80037dc <HAL_RCC_OscConfig+0x364>
 80037da:	e683      	b.n	80034e4 <HAL_RCC_OscConfig+0x6c>
 80037dc:	6a23      	ldr	r3, [r4, #32]
 80037de:	2b01      	cmp	r3, #1
 80037e0:	d000      	beq.n	80037e4 <HAL_RCC_OscConfig+0x36c>
 80037e2:	e69d      	b.n	8003520 <HAL_RCC_OscConfig+0xa8>
 80037e4:	e67e      	b.n	80034e4 <HAL_RCC_OscConfig+0x6c>
      if(RCC_OscInitStruct->HSI48State != RCC_HSI48_OFF)
 80037e6:	6a23      	ldr	r3, [r4, #32]
 80037e8:	2b00      	cmp	r3, #0
 80037ea:	d011      	beq.n	8003810 <HAL_RCC_OscConfig+0x398>
        __HAL_RCC_HSI48_ENABLE();
 80037ec:	2680      	movs	r6, #128	; 0x80
 80037ee:	6b6b      	ldr	r3, [r5, #52]	; 0x34
 80037f0:	0276      	lsls	r6, r6, #9
 80037f2:	4333      	orrs	r3, r6
 80037f4:	636b      	str	r3, [r5, #52]	; 0x34
        tickstart = HAL_GetTick();
 80037f6:	f7fe fae5 	bl	8001dc4 <HAL_GetTick>
 80037fa:	0007      	movs	r7, r0
        while(__HAL_RCC_GET_FLAG(RCC_FLAG_HSI48RDY) == RESET)
 80037fc:	6b6b      	ldr	r3, [r5, #52]	; 0x34
 80037fe:	4233      	tst	r3, r6
 8003800:	d000      	beq.n	8003804 <HAL_RCC_OscConfig+0x38c>
 8003802:	e66f      	b.n	80034e4 <HAL_RCC_OscConfig+0x6c>
          if((HAL_GetTick() - tickstart) > HSI48_TIMEOUT_VALUE)
 8003804:	f7fe fade 	bl	8001dc4 <HAL_GetTick>
 8003808:	1bc0      	subs	r0, r0, r7
 800380a:	2802      	cmp	r0, #2
 800380c:	d9f6      	bls.n	80037fc <HAL_RCC_OscConfig+0x384>
 800380e:	e69e      	b.n	800354e <HAL_RCC_OscConfig+0xd6>
        __HAL_RCC_HSI48_DISABLE();
 8003810:	6b6b      	ldr	r3, [r5, #52]	; 0x34
 8003812:	4a3e      	ldr	r2, [pc, #248]	; (800390c <HAL_RCC_OscConfig+0x494>)
        while(__HAL_RCC_GET_FLAG(RCC_FLAG_HSI48RDY) != RESET)
 8003814:	2780      	movs	r7, #128	; 0x80
        __HAL_RCC_HSI48_DISABLE();
 8003816:	4013      	ands	r3, r2
 8003818:	636b      	str	r3, [r5, #52]	; 0x34
        tickstart = HAL_GetTick();
 800381a:	f7fe fad3 	bl	8001dc4 <HAL_GetTick>
 800381e:	0006      	movs	r6, r0
        while(__HAL_RCC_GET_FLAG(RCC_FLAG_HSI48RDY) != RESET)
 8003820:	027f      	lsls	r7, r7, #9
 8003822:	6b6b      	ldr	r3, [r5, #52]	; 0x34
 8003824:	423b      	tst	r3, r7
 8003826:	d100      	bne.n	800382a <HAL_RCC_OscConfig+0x3b2>
 8003828:	e65c      	b.n	80034e4 <HAL_RCC_OscConfig+0x6c>
          if((HAL_GetTick() - tickstart) > HSI48_TIMEOUT_VALUE)
 800382a:	f7fe facb 	bl	8001dc4 <HAL_GetTick>
 800382e:	1b80      	subs	r0, r0, r6
 8003830:	2802      	cmp	r0, #2
 8003832:	d9f6      	bls.n	8003822 <HAL_RCC_OscConfig+0x3aa>
 8003834:	e68b      	b.n	800354e <HAL_RCC_OscConfig+0xd6>
    if(__HAL_RCC_GET_SYSCLK_SOURCE() != RCC_SYSCLKSOURCE_STATUS_PLLCLK)
 8003836:	200c      	movs	r0, #12
 8003838:	4a33      	ldr	r2, [pc, #204]	; (8003908 <HAL_RCC_OscConfig+0x490>)
 800383a:	6851      	ldr	r1, [r2, #4]
 800383c:	0015      	movs	r5, r2
 800383e:	4001      	ands	r1, r0
 8003840:	2908      	cmp	r1, #8
 8003842:	d047      	beq.n	80038d4 <HAL_RCC_OscConfig+0x45c>
      if((RCC_OscInitStruct->PLL.PLLState) == RCC_PLL_ON)
 8003844:	4a32      	ldr	r2, [pc, #200]	; (8003910 <HAL_RCC_OscConfig+0x498>)
 8003846:	2b02      	cmp	r3, #2
 8003848:	d132      	bne.n	80038b0 <HAL_RCC_OscConfig+0x438>
        __HAL_RCC_PLL_DISABLE();
 800384a:	682b      	ldr	r3, [r5, #0]
        while(__HAL_RCC_GET_FLAG(RCC_FLAG_PLLRDY)  != RESET)
 800384c:	2780      	movs	r7, #128	; 0x80
        __HAL_RCC_PLL_DISABLE();
 800384e:	4013      	ands	r3, r2
 8003850:	602b      	str	r3, [r5, #0]
        tickstart = HAL_GetTick();
 8003852:	f7fe fab7 	bl	8001dc4 <HAL_GetTick>
 8003856:	0006      	movs	r6, r0
        while(__HAL_RCC_GET_FLAG(RCC_FLAG_PLLRDY)  != RESET)
 8003858:	04bf      	lsls	r7, r7, #18
 800385a:	682b      	ldr	r3, [r5, #0]
 800385c:	423b      	tst	r3, r7
 800385e:	d121      	bne.n	80038a4 <HAL_RCC_OscConfig+0x42c>
        __HAL_RCC_PLL_CONFIG(RCC_OscInitStruct->PLL.PLLSource,
 8003860:	220f      	movs	r2, #15
 8003862:	6aeb      	ldr	r3, [r5, #44]	; 0x2c
        while(__HAL_RCC_GET_FLAG(RCC_FLAG_PLLRDY)  == RESET)
 8003864:	2680      	movs	r6, #128	; 0x80
        __HAL_RCC_PLL_CONFIG(RCC_OscInitStruct->PLL.PLLSource,
 8003866:	4393      	bics	r3, r2
 8003868:	6b22      	ldr	r2, [r4, #48]	; 0x30
        while(__HAL_RCC_GET_FLAG(RCC_FLAG_PLLRDY)  == RESET)
 800386a:	04b6      	lsls	r6, r6, #18
        __HAL_RCC_PLL_CONFIG(RCC_OscInitStruct->PLL.PLLSource,
 800386c:	4313      	orrs	r3, r2
 800386e:	62eb      	str	r3, [r5, #44]	; 0x2c
 8003870:	6aa1      	ldr	r1, [r4, #40]	; 0x28
 8003872:	6ae3      	ldr	r3, [r4, #44]	; 0x2c
 8003874:	686a      	ldr	r2, [r5, #4]
 8003876:	430b      	orrs	r3, r1
 8003878:	4926      	ldr	r1, [pc, #152]	; (8003914 <HAL_RCC_OscConfig+0x49c>)
 800387a:	400a      	ands	r2, r1
 800387c:	4313      	orrs	r3, r2
 800387e:	606b      	str	r3, [r5, #4]
        __HAL_RCC_PLL_ENABLE();
 8003880:	2380      	movs	r3, #128	; 0x80
 8003882:	682a      	ldr	r2, [r5, #0]
 8003884:	045b      	lsls	r3, r3, #17
 8003886:	4313      	orrs	r3, r2
 8003888:	602b      	str	r3, [r5, #0]
        tickstart = HAL_GetTick();
 800388a:	f7fe fa9b 	bl	8001dc4 <HAL_GetTick>
 800388e:	0004      	movs	r4, r0
        while(__HAL_RCC_GET_FLAG(RCC_FLAG_PLLRDY)  == RESET)
 8003890:	682b      	ldr	r3, [r5, #0]
 8003892:	4233      	tst	r3, r6
 8003894:	d000      	beq.n	8003898 <HAL_RCC_OscConfig+0x420>
 8003896:	e629      	b.n	80034ec <HAL_RCC_OscConfig+0x74>
          if((HAL_GetTick() - tickstart ) > PLL_TIMEOUT_VALUE)
 8003898:	f7fe fa94 	bl	8001dc4 <HAL_GetTick>
 800389c:	1b00      	subs	r0, r0, r4
 800389e:	2802      	cmp	r0, #2
 80038a0:	d9f6      	bls.n	8003890 <HAL_RCC_OscConfig+0x418>
 80038a2:	e654      	b.n	800354e <HAL_RCC_OscConfig+0xd6>
          if((HAL_GetTick() - tickstart ) > PLL_TIMEOUT_VALUE)
 80038a4:	f7fe fa8e 	bl	8001dc4 <HAL_GetTick>
 80038a8:	1b80      	subs	r0, r0, r6
 80038aa:	2802      	cmp	r0, #2
 80038ac:	d9d5      	bls.n	800385a <HAL_RCC_OscConfig+0x3e2>
 80038ae:	e64e      	b.n	800354e <HAL_RCC_OscConfig+0xd6>
        __HAL_RCC_PLL_DISABLE();
 80038b0:	682b      	ldr	r3, [r5, #0]
        while(__HAL_RCC_GET_FLAG(RCC_FLAG_PLLRDY)  != RESET)
 80038b2:	2680      	movs	r6, #128	; 0x80
        __HAL_RCC_PLL_DISABLE();
 80038b4:	4013      	ands	r3, r2
 80038b6:	602b      	str	r3, [r5, #0]
        tickstart = HAL_GetTick();
 80038b8:	f7fe fa84 	bl	8001dc4 <HAL_GetTick>
 80038bc:	0004      	movs	r4, r0
        while(__HAL_RCC_GET_FLAG(RCC_FLAG_PLLRDY)  != RESET)
 80038be:	04b6      	lsls	r6, r6, #18
 80038c0:	682b      	ldr	r3, [r5, #0]
 80038c2:	4233      	tst	r3, r6
 80038c4:	d100      	bne.n	80038c8 <HAL_RCC_OscConfig+0x450>
 80038c6:	e611      	b.n	80034ec <HAL_RCC_OscConfig+0x74>
          if((HAL_GetTick() - tickstart ) > PLL_TIMEOUT_VALUE)
 80038c8:	f7fe fa7c 	bl	8001dc4 <HAL_GetTick>
 80038cc:	1b00      	subs	r0, r0, r4
 80038ce:	2802      	cmp	r0, #2
 80038d0:	d9f6      	bls.n	80038c0 <HAL_RCC_OscConfig+0x448>
 80038d2:	e63c      	b.n	800354e <HAL_RCC_OscConfig+0xd6>
      if((RCC_OscInitStruct->PLL.PLLState) == RCC_PLL_OFF)
 80038d4:	2b01      	cmp	r3, #1
 80038d6:	d100      	bne.n	80038da <HAL_RCC_OscConfig+0x462>
 80038d8:	e622      	b.n	8003520 <HAL_RCC_OscConfig+0xa8>
        if((READ_BIT(pll_config,  RCC_CFGR_PLLSRC)  != RCC_OscInitStruct->PLL.PLLSource) ||
 80038da:	21c0      	movs	r1, #192	; 0xc0
        pll_config  = RCC->CFGR;
 80038dc:	6853      	ldr	r3, [r2, #4]
        if((READ_BIT(pll_config,  RCC_CFGR_PLLSRC)  != RCC_OscInitStruct->PLL.PLLSource) ||
 80038de:	6aa0      	ldr	r0, [r4, #40]	; 0x28
 80038e0:	0249      	lsls	r1, r1, #9
        pll_config2 = RCC->CFGR2;
 80038e2:	6ad2      	ldr	r2, [r2, #44]	; 0x2c
        if((READ_BIT(pll_config,  RCC_CFGR_PLLSRC)  != RCC_OscInitStruct->PLL.PLLSource) ||
 80038e4:	4019      	ands	r1, r3
 80038e6:	4281      	cmp	r1, r0
 80038e8:	d000      	beq.n	80038ec <HAL_RCC_OscConfig+0x474>
 80038ea:	e619      	b.n	8003520 <HAL_RCC_OscConfig+0xa8>
           (READ_BIT(pll_config2, RCC_CFGR2_PREDIV) != RCC_OscInitStruct->PLL.PREDIV)    ||
 80038ec:	210f      	movs	r1, #15
 80038ee:	400a      	ands	r2, r1
        if((READ_BIT(pll_config,  RCC_CFGR_PLLSRC)  != RCC_OscInitStruct->PLL.PLLSource) ||
 80038f0:	6b21      	ldr	r1, [r4, #48]	; 0x30
 80038f2:	428a      	cmp	r2, r1
 80038f4:	d000      	beq.n	80038f8 <HAL_RCC_OscConfig+0x480>
 80038f6:	e613      	b.n	8003520 <HAL_RCC_OscConfig+0xa8>
           (READ_BIT(pll_config,  RCC_CFGR_PLLMUL)  != RCC_OscInitStruct->PLL.PLLMUL))
 80038f8:	22f0      	movs	r2, #240	; 0xf0
 80038fa:	0392      	lsls	r2, r2, #14
 80038fc:	4013      	ands	r3, r2
           (READ_BIT(pll_config2, RCC_CFGR2_PREDIV) != RCC_OscInitStruct->PLL.PREDIV)    ||
 80038fe:	6ae2      	ldr	r2, [r4, #44]	; 0x2c
 8003900:	4293      	cmp	r3, r2
 8003902:	d100      	bne.n	8003906 <HAL_RCC_OscConfig+0x48e>
 8003904:	e5f2      	b.n	80034ec <HAL_RCC_OscConfig+0x74>
 8003906:	e60b      	b.n	8003520 <HAL_RCC_OscConfig+0xa8>
 8003908:	40021000 	.word	0x40021000
 800390c:	fffeffff 	.word	0xfffeffff
 8003910:	feffffff 	.word	0xfeffffff
 8003914:	ffc27fff 	.word	0xffc27fff

08003918 <HAL_RCC_GetSysClockFreq>:
  *         right SYSCLK value. Otherwise, any configuration based on this function will be incorrect.
  *         
  * @retval SYSCLK frequency
  */
uint32_t HAL_RCC_GetSysClockFreq(void)
{
 8003918:	b530      	push	{r4, r5, lr}
 800391a:	b089      	sub	sp, #36	; 0x24
  const uint8_t aPLLMULFactorTable[16] = { 2U,  3U,  4U,  5U,  6U,  7U,  8U,  9U,
 800391c:	2210      	movs	r2, #16
 800391e:	4919      	ldr	r1, [pc, #100]	; (8003984 <HAL_RCC_GetSysClockFreq+0x6c>)
 8003920:	4668      	mov	r0, sp
                                         10U, 11U, 12U, 13U, 14U, 15U, 16U, 16U};
  const uint8_t aPredivFactorTable[16] = { 1U, 2U,  3U,  4U,  5U,  6U,  7U,  8U,
 8003922:	ad04      	add	r5, sp, #16
  const uint8_t aPLLMULFactorTable[16] = { 2U,  3U,  4U,  5U,  6U,  7U,  8U,  9U,
 8003924:	f002 fcf4 	bl	8006310 <memcpy>
  const uint8_t aPredivFactorTable[16] = { 1U, 2U,  3U,  4U,  5U,  6U,  7U,  8U,
 8003928:	2210      	movs	r2, #16
 800392a:	0028      	movs	r0, r5
 800392c:	4916      	ldr	r1, [pc, #88]	; (8003988 <HAL_RCC_GetSysClockFreq+0x70>)
 800392e:	f002 fcef 	bl	8006310 <memcpy>
  uint32_t sysclockfreq = 0U;
  
  tmpreg = RCC->CFGR;
  
  /* Get SYSCLK source -------------------------------------------------------*/
  switch (tmpreg & RCC_CFGR_SWS)
 8003932:	200c      	movs	r0, #12
  tmpreg = RCC->CFGR;
 8003934:	4a15      	ldr	r2, [pc, #84]	; (800398c <HAL_RCC_GetSysClockFreq+0x74>)
 8003936:	6853      	ldr	r3, [r2, #4]
  switch (tmpreg & RCC_CFGR_SWS)
 8003938:	4018      	ands	r0, r3
 800393a:	2808      	cmp	r0, #8
 800393c:	d009      	beq.n	8003952 <HAL_RCC_GetSysClockFreq+0x3a>
 800393e:	380c      	subs	r0, #12
 8003940:	1e43      	subs	r3, r0, #1
 8003942:	4198      	sbcs	r0, r3
 8003944:	4b12      	ldr	r3, [pc, #72]	; (8003990 <HAL_RCC_GetSysClockFreq+0x78>)
 8003946:	4240      	negs	r0, r0
 8003948:	4018      	ands	r0, r3
 800394a:	4b12      	ldr	r3, [pc, #72]	; (8003994 <HAL_RCC_GetSysClockFreq+0x7c>)
 800394c:	18c0      	adds	r0, r0, r3
      sysclockfreq = HSI_VALUE;
      break;
    }
  }
  return sysclockfreq;
}
 800394e:	b009      	add	sp, #36	; 0x24
 8003950:	bd30      	pop	{r4, r5, pc}
      pllmul = aPLLMULFactorTable[(uint32_t)(tmpreg & RCC_CFGR_PLLMUL) >> RCC_CFGR_PLLMUL_BITNUMBER];
 8003952:	200f      	movs	r0, #15
 8003954:	466c      	mov	r4, sp
      prediv = aPredivFactorTable[(uint32_t)(RCC->CFGR2 & RCC_CFGR2_PREDIV) >> RCC_CFGR2_PREDIV_BITNUMBER];
 8003956:	6ad2      	ldr	r2, [r2, #44]	; 0x2c
      pllmul = aPLLMULFactorTable[(uint32_t)(tmpreg & RCC_CFGR_PLLMUL) >> RCC_CFGR_PLLMUL_BITNUMBER];
 8003958:	0c99      	lsrs	r1, r3, #18
 800395a:	4001      	ands	r1, r0
      prediv = aPredivFactorTable[(uint32_t)(RCC->CFGR2 & RCC_CFGR2_PREDIV) >> RCC_CFGR2_PREDIV_BITNUMBER];
 800395c:	4002      	ands	r2, r0
      pllmul = aPLLMULFactorTable[(uint32_t)(tmpreg & RCC_CFGR_PLLMUL) >> RCC_CFGR_PLLMUL_BITNUMBER];
 800395e:	5c64      	ldrb	r4, [r4, r1]
      prediv = aPredivFactorTable[(uint32_t)(RCC->CFGR2 & RCC_CFGR2_PREDIV) >> RCC_CFGR2_PREDIV_BITNUMBER];
 8003960:	5ca9      	ldrb	r1, [r5, r2]
      if ((tmpreg & RCC_CFGR_PLLSRC) == RCC_PLLSOURCE_HSE)
 8003962:	22c0      	movs	r2, #192	; 0xc0
 8003964:	2080      	movs	r0, #128	; 0x80
 8003966:	0252      	lsls	r2, r2, #9
 8003968:	4013      	ands	r3, r2
 800396a:	0240      	lsls	r0, r0, #9
 800396c:	4283      	cmp	r3, r0
 800396e:	d101      	bne.n	8003974 <HAL_RCC_GetSysClockFreq+0x5c>
        pllclk = (uint32_t)((uint64_t) HSI_VALUE / (uint64_t) (prediv)) * ((uint64_t) pllmul);
 8003970:	4809      	ldr	r0, [pc, #36]	; (8003998 <HAL_RCC_GetSysClockFreq+0x80>)
 8003972:	e002      	b.n	800397a <HAL_RCC_GetSysClockFreq+0x62>
      else if ((tmpreg & RCC_CFGR_PLLSRC) == RCC_PLLSOURCE_HSI48)
 8003974:	4293      	cmp	r3, r2
 8003976:	d1fb      	bne.n	8003970 <HAL_RCC_GetSysClockFreq+0x58>
        pllclk = (uint32_t)((uint64_t) HSI48_VALUE / (uint64_t) (prediv)) * ((uint64_t) pllmul);
 8003978:	4806      	ldr	r0, [pc, #24]	; (8003994 <HAL_RCC_GetSysClockFreq+0x7c>)
        pllclk = (uint32_t)((uint64_t) HSI_VALUE / (uint64_t) (prediv)) * ((uint64_t) pllmul);
 800397a:	f7fc fbf5 	bl	8000168 <__udivsi3>
 800397e:	4360      	muls	r0, r4
 8003980:	e7e5      	b.n	800394e <HAL_RCC_GetSysClockFreq+0x36>
 8003982:	46c0      	nop			; (mov r8, r8)
 8003984:	080071cd 	.word	0x080071cd
 8003988:	080071de 	.word	0x080071de
 800398c:	40021000 	.word	0x40021000
 8003990:	fd9da600 	.word	0xfd9da600
 8003994:	02dc6c00 	.word	0x02dc6c00
 8003998:	007a1200 	.word	0x007a1200

0800399c <HAL_RCC_ClockConfig>:
{
 800399c:	b5f7      	push	{r0, r1, r2, r4, r5, r6, r7, lr}
 800399e:	0005      	movs	r5, r0
 80039a0:	000f      	movs	r7, r1
  if(RCC_ClkInitStruct == NULL)
 80039a2:	2800      	cmp	r0, #0
 80039a4:	d101      	bne.n	80039aa <HAL_RCC_ClockConfig+0xe>
    return HAL_ERROR;
 80039a6:	2001      	movs	r0, #1
}
 80039a8:	bdfe      	pop	{r1, r2, r3, r4, r5, r6, r7, pc}
  if(FLatency > __HAL_FLASH_GET_LATENCY())
 80039aa:	2201      	movs	r2, #1
 80039ac:	4c3b      	ldr	r4, [pc, #236]	; (8003a9c <HAL_RCC_ClockConfig+0x100>)
 80039ae:	6823      	ldr	r3, [r4, #0]
 80039b0:	4013      	ands	r3, r2
 80039b2:	428b      	cmp	r3, r1
 80039b4:	d31c      	bcc.n	80039f0 <HAL_RCC_ClockConfig+0x54>
  if(((RCC_ClkInitStruct->ClockType) & RCC_CLOCKTYPE_HCLK) == RCC_CLOCKTYPE_HCLK)
 80039b6:	6829      	ldr	r1, [r5, #0]
 80039b8:	078b      	lsls	r3, r1, #30
 80039ba:	d422      	bmi.n	8003a02 <HAL_RCC_ClockConfig+0x66>
  if(((RCC_ClkInitStruct->ClockType) & RCC_CLOCKTYPE_SYSCLK) == RCC_CLOCKTYPE_SYSCLK)
 80039bc:	07cb      	lsls	r3, r1, #31
 80039be:	d42f      	bmi.n	8003a20 <HAL_RCC_ClockConfig+0x84>
  if(FLatency < __HAL_FLASH_GET_LATENCY())
 80039c0:	2301      	movs	r3, #1
 80039c2:	6822      	ldr	r2, [r4, #0]
 80039c4:	401a      	ands	r2, r3
 80039c6:	42ba      	cmp	r2, r7
 80039c8:	d859      	bhi.n	8003a7e <HAL_RCC_ClockConfig+0xe2>
  if(((RCC_ClkInitStruct->ClockType) & RCC_CLOCKTYPE_PCLK1) == RCC_CLOCKTYPE_PCLK1)
 80039ca:	682b      	ldr	r3, [r5, #0]
 80039cc:	4c34      	ldr	r4, [pc, #208]	; (8003aa0 <HAL_RCC_ClockConfig+0x104>)
 80039ce:	075b      	lsls	r3, r3, #29
 80039d0:	d45c      	bmi.n	8003a8c <HAL_RCC_ClockConfig+0xf0>
  SystemCoreClock = HAL_RCC_GetSysClockFreq() >> AHBPrescTable[(RCC->CFGR & RCC_CFGR_HPRE)>> RCC_CFGR_HPRE_BITNUMBER];
 80039d2:	f7ff ffa1 	bl	8003918 <HAL_RCC_GetSysClockFreq>
 80039d6:	6863      	ldr	r3, [r4, #4]
 80039d8:	4a32      	ldr	r2, [pc, #200]	; (8003aa4 <HAL_RCC_ClockConfig+0x108>)
 80039da:	061b      	lsls	r3, r3, #24
 80039dc:	0f1b      	lsrs	r3, r3, #28
 80039de:	5cd3      	ldrb	r3, [r2, r3]
 80039e0:	40d8      	lsrs	r0, r3
 80039e2:	4b31      	ldr	r3, [pc, #196]	; (8003aa8 <HAL_RCC_ClockConfig+0x10c>)
 80039e4:	6018      	str	r0, [r3, #0]
  HAL_InitTick (TICK_INT_PRIORITY);
 80039e6:	2000      	movs	r0, #0
 80039e8:	f7fe f928 	bl	8001c3c <HAL_InitTick>
  return HAL_OK;
 80039ec:	2000      	movs	r0, #0
 80039ee:	e7db      	b.n	80039a8 <HAL_RCC_ClockConfig+0xc>
    __HAL_FLASH_SET_LATENCY(FLatency);
 80039f0:	6823      	ldr	r3, [r4, #0]
 80039f2:	4393      	bics	r3, r2
 80039f4:	430b      	orrs	r3, r1
 80039f6:	6023      	str	r3, [r4, #0]
    if(__HAL_FLASH_GET_LATENCY() != FLatency)
 80039f8:	6823      	ldr	r3, [r4, #0]
 80039fa:	4013      	ands	r3, r2
 80039fc:	428b      	cmp	r3, r1
 80039fe:	d1d2      	bne.n	80039a6 <HAL_RCC_ClockConfig+0xa>
 8003a00:	e7d9      	b.n	80039b6 <HAL_RCC_ClockConfig+0x1a>
    if(((RCC_ClkInitStruct->ClockType) & RCC_CLOCKTYPE_PCLK1) == RCC_CLOCKTYPE_PCLK1)
 8003a02:	4a27      	ldr	r2, [pc, #156]	; (8003aa0 <HAL_RCC_ClockConfig+0x104>)
 8003a04:	074b      	lsls	r3, r1, #29
 8003a06:	d504      	bpl.n	8003a12 <HAL_RCC_ClockConfig+0x76>
      MODIFY_REG(RCC->CFGR, RCC_CFGR_PPRE, RCC_HCLK_DIV16);
 8003a08:	23e0      	movs	r3, #224	; 0xe0
 8003a0a:	6850      	ldr	r0, [r2, #4]
 8003a0c:	00db      	lsls	r3, r3, #3
 8003a0e:	4303      	orrs	r3, r0
 8003a10:	6053      	str	r3, [r2, #4]
    MODIFY_REG(RCC->CFGR, RCC_CFGR_HPRE, RCC_ClkInitStruct->AHBCLKDivider);
 8003a12:	20f0      	movs	r0, #240	; 0xf0
 8003a14:	6853      	ldr	r3, [r2, #4]
 8003a16:	4383      	bics	r3, r0
 8003a18:	68a8      	ldr	r0, [r5, #8]
 8003a1a:	4303      	orrs	r3, r0
 8003a1c:	6053      	str	r3, [r2, #4]
 8003a1e:	e7cd      	b.n	80039bc <HAL_RCC_ClockConfig+0x20>
    if(RCC_ClkInitStruct->SYSCLKSource == RCC_SYSCLKSOURCE_HSE)
 8003a20:	686a      	ldr	r2, [r5, #4]
 8003a22:	4e1f      	ldr	r6, [pc, #124]	; (8003aa0 <HAL_RCC_ClockConfig+0x104>)
 8003a24:	2a01      	cmp	r2, #1
 8003a26:	d11a      	bne.n	8003a5e <HAL_RCC_ClockConfig+0xc2>
      if(__HAL_RCC_GET_FLAG(RCC_FLAG_HSERDY) == RESET)
 8003a28:	6833      	ldr	r3, [r6, #0]
 8003a2a:	039b      	lsls	r3, r3, #14
 8003a2c:	d5bb      	bpl.n	80039a6 <HAL_RCC_ClockConfig+0xa>
    __HAL_RCC_SYSCLK_CONFIG(RCC_ClkInitStruct->SYSCLKSource);
 8003a2e:	2103      	movs	r1, #3
 8003a30:	6873      	ldr	r3, [r6, #4]
 8003a32:	438b      	bics	r3, r1
 8003a34:	4313      	orrs	r3, r2
 8003a36:	6073      	str	r3, [r6, #4]
    tickstart = HAL_GetTick();
 8003a38:	f7fe f9c4 	bl	8001dc4 <HAL_GetTick>
 8003a3c:	9001      	str	r0, [sp, #4]
    while (__HAL_RCC_GET_SYSCLK_SOURCE() != (RCC_ClkInitStruct->SYSCLKSource << RCC_CFGR_SWS_Pos))
 8003a3e:	230c      	movs	r3, #12
 8003a40:	6872      	ldr	r2, [r6, #4]
 8003a42:	401a      	ands	r2, r3
 8003a44:	686b      	ldr	r3, [r5, #4]
 8003a46:	009b      	lsls	r3, r3, #2
 8003a48:	429a      	cmp	r2, r3
 8003a4a:	d0b9      	beq.n	80039c0 <HAL_RCC_ClockConfig+0x24>
      if((HAL_GetTick() - tickstart ) > CLOCKSWITCH_TIMEOUT_VALUE)
 8003a4c:	f7fe f9ba 	bl	8001dc4 <HAL_GetTick>
 8003a50:	9b01      	ldr	r3, [sp, #4]
 8003a52:	1ac0      	subs	r0, r0, r3
 8003a54:	4b15      	ldr	r3, [pc, #84]	; (8003aac <HAL_RCC_ClockConfig+0x110>)
 8003a56:	4298      	cmp	r0, r3
 8003a58:	d9f1      	bls.n	8003a3e <HAL_RCC_ClockConfig+0xa2>
        return HAL_TIMEOUT;
 8003a5a:	2003      	movs	r0, #3
 8003a5c:	e7a4      	b.n	80039a8 <HAL_RCC_ClockConfig+0xc>
    else if(RCC_ClkInitStruct->SYSCLKSource == RCC_SYSCLKSOURCE_PLLCLK)
 8003a5e:	2a02      	cmp	r2, #2
 8003a60:	d103      	bne.n	8003a6a <HAL_RCC_ClockConfig+0xce>
      if(__HAL_RCC_GET_FLAG(RCC_FLAG_PLLRDY) == RESET)
 8003a62:	6833      	ldr	r3, [r6, #0]
 8003a64:	019b      	lsls	r3, r3, #6
 8003a66:	d4e2      	bmi.n	8003a2e <HAL_RCC_ClockConfig+0x92>
 8003a68:	e79d      	b.n	80039a6 <HAL_RCC_ClockConfig+0xa>
    else if(RCC_ClkInitStruct->SYSCLKSource == RCC_SYSCLKSOURCE_HSI48)
 8003a6a:	2a03      	cmp	r2, #3
 8003a6c:	d103      	bne.n	8003a76 <HAL_RCC_ClockConfig+0xda>
      if(__HAL_RCC_GET_FLAG(RCC_FLAG_HSI48RDY) == RESET)
 8003a6e:	6b73      	ldr	r3, [r6, #52]	; 0x34
 8003a70:	03db      	lsls	r3, r3, #15
 8003a72:	d4dc      	bmi.n	8003a2e <HAL_RCC_ClockConfig+0x92>
 8003a74:	e797      	b.n	80039a6 <HAL_RCC_ClockConfig+0xa>
      if(__HAL_RCC_GET_FLAG(RCC_FLAG_HSIRDY) == RESET)
 8003a76:	6833      	ldr	r3, [r6, #0]
 8003a78:	079b      	lsls	r3, r3, #30
 8003a7a:	d4d8      	bmi.n	8003a2e <HAL_RCC_ClockConfig+0x92>
 8003a7c:	e793      	b.n	80039a6 <HAL_RCC_ClockConfig+0xa>
    __HAL_FLASH_SET_LATENCY(FLatency);
 8003a7e:	6822      	ldr	r2, [r4, #0]
 8003a80:	439a      	bics	r2, r3
 8003a82:	6022      	str	r2, [r4, #0]
    if(__HAL_FLASH_GET_LATENCY() != FLatency)
 8003a84:	6822      	ldr	r2, [r4, #0]
 8003a86:	421a      	tst	r2, r3
 8003a88:	d09f      	beq.n	80039ca <HAL_RCC_ClockConfig+0x2e>
 8003a8a:	e78c      	b.n	80039a6 <HAL_RCC_ClockConfig+0xa>
    MODIFY_REG(RCC->CFGR, RCC_CFGR_PPRE, RCC_ClkInitStruct->APB1CLKDivider);
 8003a8c:	6863      	ldr	r3, [r4, #4]
 8003a8e:	4a08      	ldr	r2, [pc, #32]	; (8003ab0 <HAL_RCC_ClockConfig+0x114>)
 8003a90:	4013      	ands	r3, r2
 8003a92:	68ea      	ldr	r2, [r5, #12]
 8003a94:	4313      	orrs	r3, r2
 8003a96:	6063      	str	r3, [r4, #4]
 8003a98:	e79b      	b.n	80039d2 <HAL_RCC_ClockConfig+0x36>
 8003a9a:	46c0      	nop			; (mov r8, r8)
 8003a9c:	40022000 	.word	0x40022000
 8003aa0:	40021000 	.word	0x40021000
 8003aa4:	0800707c 	.word	0x0800707c
 8003aa8:	20000000 	.word	0x20000000
 8003aac:	00001388 	.word	0x00001388
 8003ab0:	fffff8ff 	.word	0xfffff8ff

08003ab4 <HAL_RCC_GetPCLK1Freq>:
  * @retval PCLK1 frequency
  */
uint32_t HAL_RCC_GetPCLK1Freq(void)
{
  /* Get HCLK source and Compute PCLK1 frequency ---------------------------*/
  return (HAL_RCC_GetHCLKFreq() >> APBPrescTable[(RCC->CFGR & RCC_CFGR_PPRE) >> RCC_CFGR_PPRE_BITNUMBER]);
 8003ab4:	4b04      	ldr	r3, [pc, #16]	; (8003ac8 <HAL_RCC_GetPCLK1Freq+0x14>)
 8003ab6:	4a05      	ldr	r2, [pc, #20]	; (8003acc <HAL_RCC_GetPCLK1Freq+0x18>)
 8003ab8:	685b      	ldr	r3, [r3, #4]
 8003aba:	055b      	lsls	r3, r3, #21
 8003abc:	0f5b      	lsrs	r3, r3, #29
 8003abe:	5cd3      	ldrb	r3, [r2, r3]
 8003ac0:	4a03      	ldr	r2, [pc, #12]	; (8003ad0 <HAL_RCC_GetPCLK1Freq+0x1c>)
 8003ac2:	6810      	ldr	r0, [r2, #0]
 8003ac4:	40d8      	lsrs	r0, r3
}    
 8003ac6:	4770      	bx	lr
 8003ac8:	40021000 	.word	0x40021000
 8003acc:	0800708c 	.word	0x0800708c
 8003ad0:	20000000 	.word	0x20000000

08003ad4 <HAL_RCC_GetClockConfig>:
  /* Check the parameters */
  assert_param(RCC_ClkInitStruct != NULL);
  assert_param(pFLatency != NULL);

  /* Set all possible values for the Clock type parameter --------------------*/
  RCC_ClkInitStruct->ClockType = RCC_CLOCKTYPE_SYSCLK | RCC_CLOCKTYPE_HCLK | RCC_CLOCKTYPE_PCLK1;
 8003ad4:	2307      	movs	r3, #7
{
 8003ad6:	b510      	push	{r4, lr}
  
  /* Get the SYSCLK configuration --------------------------------------------*/ 
  RCC_ClkInitStruct->SYSCLKSource = (uint32_t)(RCC->CFGR & RCC_CFGR_SW);
 8003ad8:	2403      	movs	r4, #3
  RCC_ClkInitStruct->ClockType = RCC_CLOCKTYPE_SYSCLK | RCC_CLOCKTYPE_HCLK | RCC_CLOCKTYPE_PCLK1;
 8003ada:	6003      	str	r3, [r0, #0]
  RCC_ClkInitStruct->SYSCLKSource = (uint32_t)(RCC->CFGR & RCC_CFGR_SW);
 8003adc:	4b09      	ldr	r3, [pc, #36]	; (8003b04 <HAL_RCC_GetClockConfig+0x30>)
 8003ade:	685a      	ldr	r2, [r3, #4]
 8003ae0:	4022      	ands	r2, r4
 8003ae2:	6042      	str	r2, [r0, #4]
  
  /* Get the HCLK configuration ----------------------------------------------*/ 
  RCC_ClkInitStruct->AHBCLKDivider = (uint32_t)(RCC->CFGR & RCC_CFGR_HPRE); 
 8003ae4:	685a      	ldr	r2, [r3, #4]
 8003ae6:	34ed      	adds	r4, #237	; 0xed
 8003ae8:	4022      	ands	r2, r4
 8003aea:	6082      	str	r2, [r0, #8]
  
  /* Get the APB1 configuration ----------------------------------------------*/ 
  RCC_ClkInitStruct->APB1CLKDivider = (uint32_t)(RCC->CFGR & RCC_CFGR_PPRE);   
 8003aec:	22e0      	movs	r2, #224	; 0xe0
 8003aee:	685b      	ldr	r3, [r3, #4]
 8003af0:	00d2      	lsls	r2, r2, #3
 8003af2:	4013      	ands	r3, r2
  /* Get the Flash Wait State (Latency) configuration ------------------------*/   
  *pFLatency = __HAL_FLASH_GET_LATENCY(); 
 8003af4:	2201      	movs	r2, #1
  RCC_ClkInitStruct->APB1CLKDivider = (uint32_t)(RCC->CFGR & RCC_CFGR_PPRE);   
 8003af6:	60c3      	str	r3, [r0, #12]
  *pFLatency = __HAL_FLASH_GET_LATENCY(); 
 8003af8:	4b03      	ldr	r3, [pc, #12]	; (8003b08 <HAL_RCC_GetClockConfig+0x34>)
 8003afa:	681b      	ldr	r3, [r3, #0]
 8003afc:	4013      	ands	r3, r2
 8003afe:	600b      	str	r3, [r1, #0]
}
 8003b00:	bd10      	pop	{r4, pc}
 8003b02:	46c0      	nop			; (mov r8, r8)
 8003b04:	40021000 	.word	0x40021000
 8003b08:	40022000 	.word	0x40022000

08003b0c <HAL_RCCEx_PeriphCLKConfig>:
  *         the backup registers) and RCC_BDCR register are set to their reset values.
  *
  * @retval HAL status
  */
HAL_StatusTypeDef HAL_RCCEx_PeriphCLKConfig(RCC_PeriphCLKInitTypeDef  *PeriphClkInit)
{
 8003b0c:	b5f0      	push	{r4, r5, r6, r7, lr}

  /* Check the parameters */
  assert_param(IS_RCC_PERIPHCLOCK(PeriphClkInit->PeriphClockSelection));
  
  /*---------------------------- RTC configuration -------------------------------*/
  if(((PeriphClkInit->PeriphClockSelection) & RCC_PERIPHCLK_RTC) == (RCC_PERIPHCLK_RTC))
 8003b0e:	6803      	ldr	r3, [r0, #0]
{
 8003b10:	0005      	movs	r5, r0
 8003b12:	b085      	sub	sp, #20
  if(((PeriphClkInit->PeriphClockSelection) & RCC_PERIPHCLK_RTC) == (RCC_PERIPHCLK_RTC))
 8003b14:	03db      	lsls	r3, r3, #15
 8003b16:	d52a      	bpl.n	8003b6e <HAL_RCCEx_PeriphCLKConfig+0x62>
    FlagStatus       pwrclkchanged = RESET;

    /* As soon as function is called to change RTC clock source, activation of the 
       power domain is done. */
    /* Requires to enable write access to Backup Domain of necessary */
    if(__HAL_RCC_PWR_IS_CLK_DISABLED())
 8003b18:	2280      	movs	r2, #128	; 0x80
    FlagStatus       pwrclkchanged = RESET;
 8003b1a:	2100      	movs	r1, #0
    if(__HAL_RCC_PWR_IS_CLK_DISABLED())
 8003b1c:	4c41      	ldr	r4, [pc, #260]	; (8003c24 <HAL_RCCEx_PeriphCLKConfig+0x118>)
 8003b1e:	0552      	lsls	r2, r2, #21
 8003b20:	69e3      	ldr	r3, [r4, #28]
    FlagStatus       pwrclkchanged = RESET;
 8003b22:	9100      	str	r1, [sp, #0]
    if(__HAL_RCC_PWR_IS_CLK_DISABLED())
 8003b24:	4213      	tst	r3, r2
 8003b26:	d108      	bne.n	8003b3a <HAL_RCCEx_PeriphCLKConfig+0x2e>
    {
    __HAL_RCC_PWR_CLK_ENABLE();
 8003b28:	69e3      	ldr	r3, [r4, #28]
 8003b2a:	4313      	orrs	r3, r2
 8003b2c:	61e3      	str	r3, [r4, #28]
 8003b2e:	69e3      	ldr	r3, [r4, #28]
 8003b30:	4013      	ands	r3, r2
 8003b32:	9303      	str	r3, [sp, #12]
 8003b34:	9b03      	ldr	r3, [sp, #12]
      pwrclkchanged = SET;
 8003b36:	2301      	movs	r3, #1
 8003b38:	9300      	str	r3, [sp, #0]
    }
    
    if(HAL_IS_BIT_CLR(PWR->CR, PWR_CR_DBP))
 8003b3a:	2780      	movs	r7, #128	; 0x80
 8003b3c:	4e3a      	ldr	r6, [pc, #232]	; (8003c28 <HAL_RCCEx_PeriphCLKConfig+0x11c>)
 8003b3e:	007f      	lsls	r7, r7, #1
 8003b40:	6833      	ldr	r3, [r6, #0]
 8003b42:	423b      	tst	r3, r7
 8003b44:	d03a      	beq.n	8003bbc <HAL_RCCEx_PeriphCLKConfig+0xb0>
        }
      }
    }
    
    /* Reset the Backup domain only if the RTC Clock source selection is modified from reset value */ 
    temp_reg = (RCC->BDCR & RCC_BDCR_RTCSEL);
 8003b46:	6a22      	ldr	r2, [r4, #32]
 8003b48:	23c0      	movs	r3, #192	; 0xc0
 8003b4a:	0011      	movs	r1, r2
 8003b4c:	009b      	lsls	r3, r3, #2
 8003b4e:	4e37      	ldr	r6, [pc, #220]	; (8003c2c <HAL_RCCEx_PeriphCLKConfig+0x120>)
 8003b50:	4019      	ands	r1, r3
    if((temp_reg != 0x00000000U) && (temp_reg != (PeriphClkInit->RTCClockSelection & RCC_BDCR_RTCSEL)))
 8003b52:	421a      	tst	r2, r3
 8003b54:	d144      	bne.n	8003be0 <HAL_RCCEx_PeriphCLKConfig+0xd4>
            return HAL_TIMEOUT;
          }
        }
      }
    }
    __HAL_RCC_RTC_CONFIG(PeriphClkInit->RTCClockSelection);
 8003b56:	6a23      	ldr	r3, [r4, #32]
 8003b58:	401e      	ands	r6, r3
 8003b5a:	686b      	ldr	r3, [r5, #4]
 8003b5c:	431e      	orrs	r6, r3

    /* Require to disable power clock if necessary */
    if(pwrclkchanged == SET)
 8003b5e:	9b00      	ldr	r3, [sp, #0]
    __HAL_RCC_RTC_CONFIG(PeriphClkInit->RTCClockSelection);
 8003b60:	6226      	str	r6, [r4, #32]
    if(pwrclkchanged == SET)
 8003b62:	2b01      	cmp	r3, #1
 8003b64:	d103      	bne.n	8003b6e <HAL_RCCEx_PeriphCLKConfig+0x62>
    {
      __HAL_RCC_PWR_CLK_DISABLE();
 8003b66:	69e3      	ldr	r3, [r4, #28]
 8003b68:	4a31      	ldr	r2, [pc, #196]	; (8003c30 <HAL_RCCEx_PeriphCLKConfig+0x124>)
 8003b6a:	4013      	ands	r3, r2
 8003b6c:	61e3      	str	r3, [r4, #28]
    }
  }

  /*------------------------------- USART1 Configuration ------------------------*/ 
  if(((PeriphClkInit->PeriphClockSelection) & RCC_PERIPHCLK_USART1) == RCC_PERIPHCLK_USART1)
 8003b6e:	682a      	ldr	r2, [r5, #0]
 8003b70:	07d3      	lsls	r3, r2, #31
 8003b72:	d506      	bpl.n	8003b82 <HAL_RCCEx_PeriphCLKConfig+0x76>
  {
    /* Check the parameters */
    assert_param(IS_RCC_USART1CLKSOURCE(PeriphClkInit->Usart1ClockSelection));
    
    /* Configure the USART1 clock source */
    __HAL_RCC_USART1_CONFIG(PeriphClkInit->Usart1ClockSelection);
 8003b74:	2003      	movs	r0, #3
 8003b76:	492b      	ldr	r1, [pc, #172]	; (8003c24 <HAL_RCCEx_PeriphCLKConfig+0x118>)
 8003b78:	6b0b      	ldr	r3, [r1, #48]	; 0x30
 8003b7a:	4383      	bics	r3, r0
 8003b7c:	68a8      	ldr	r0, [r5, #8]
 8003b7e:	4303      	orrs	r3, r0
 8003b80:	630b      	str	r3, [r1, #48]	; 0x30
    __HAL_RCC_USART3_CONFIG(PeriphClkInit->Usart3ClockSelection);
  }
#endif /* STM32F091xC || STM32F098xx */  

  /*------------------------------ I2C1 Configuration ------------------------*/ 
  if(((PeriphClkInit->PeriphClockSelection) & RCC_PERIPHCLK_I2C1) == RCC_PERIPHCLK_I2C1)
 8003b82:	0693      	lsls	r3, r2, #26
 8003b84:	d506      	bpl.n	8003b94 <HAL_RCCEx_PeriphCLKConfig+0x88>
  {
    /* Check the parameters */
    assert_param(IS_RCC_I2C1CLKSOURCE(PeriphClkInit->I2c1ClockSelection));
    
    /* Configure the I2C1 clock source */
    __HAL_RCC_I2C1_CONFIG(PeriphClkInit->I2c1ClockSelection);
 8003b86:	2010      	movs	r0, #16
 8003b88:	4926      	ldr	r1, [pc, #152]	; (8003c24 <HAL_RCCEx_PeriphCLKConfig+0x118>)
 8003b8a:	6b0b      	ldr	r3, [r1, #48]	; 0x30
 8003b8c:	4383      	bics	r3, r0
 8003b8e:	68e8      	ldr	r0, [r5, #12]
 8003b90:	4303      	orrs	r3, r0
 8003b92:	630b      	str	r3, [r1, #48]	; 0x30
  }

#if defined(STM32F042x6) || defined(STM32F048xx) || defined(STM32F072xB) || defined(STM32F078xx) || defined(STM32F070xB) || defined(STM32F070x6)
  /*------------------------------ USB Configuration ------------------------*/ 
  if(((PeriphClkInit->PeriphClockSelection) & RCC_PERIPHCLK_USB) == RCC_PERIPHCLK_USB)
 8003b94:	0393      	lsls	r3, r2, #14
 8003b96:	d506      	bpl.n	8003ba6 <HAL_RCCEx_PeriphCLKConfig+0x9a>
  {
    /* Check the parameters */
    assert_param(IS_RCC_USBCLKSOURCE(PeriphClkInit->UsbClockSelection));
    
    /* Configure the USB clock source */
    __HAL_RCC_USB_CONFIG(PeriphClkInit->UsbClockSelection);
 8003b98:	2080      	movs	r0, #128	; 0x80
 8003b9a:	4922      	ldr	r1, [pc, #136]	; (8003c24 <HAL_RCCEx_PeriphCLKConfig+0x118>)
 8003b9c:	6b0b      	ldr	r3, [r1, #48]	; 0x30
 8003b9e:	4383      	bics	r3, r0
 8003ba0:	6968      	ldr	r0, [r5, #20]
 8003ba2:	4303      	orrs	r3, r0
 8003ba4:	630b      	str	r3, [r1, #48]	; 0x30
#endif /* STM32F042x6 || STM32F048xx ||                */
       /* STM32F051x8 || STM32F058xx ||                */
       /* STM32F071xB || STM32F072xB || STM32F078xx || */
       /* STM32F091xC || STM32F098xx */
  
  return HAL_OK;
 8003ba6:	2000      	movs	r0, #0
  if(((PeriphClkInit->PeriphClockSelection) & RCC_PERIPHCLK_CEC) == RCC_PERIPHCLK_CEC)
 8003ba8:	0553      	lsls	r3, r2, #21
 8003baa:	d517      	bpl.n	8003bdc <HAL_RCCEx_PeriphCLKConfig+0xd0>
    __HAL_RCC_CEC_CONFIG(PeriphClkInit->CecClockSelection);
 8003bac:	2140      	movs	r1, #64	; 0x40
 8003bae:	4a1d      	ldr	r2, [pc, #116]	; (8003c24 <HAL_RCCEx_PeriphCLKConfig+0x118>)
 8003bb0:	6b13      	ldr	r3, [r2, #48]	; 0x30
 8003bb2:	438b      	bics	r3, r1
 8003bb4:	6929      	ldr	r1, [r5, #16]
 8003bb6:	430b      	orrs	r3, r1
 8003bb8:	6313      	str	r3, [r2, #48]	; 0x30
 8003bba:	e00f      	b.n	8003bdc <HAL_RCCEx_PeriphCLKConfig+0xd0>
      SET_BIT(PWR->CR, PWR_CR_DBP);
 8003bbc:	6833      	ldr	r3, [r6, #0]
 8003bbe:	433b      	orrs	r3, r7
 8003bc0:	6033      	str	r3, [r6, #0]
      tickstart = HAL_GetTick();
 8003bc2:	f7fe f8ff 	bl	8001dc4 <HAL_GetTick>
 8003bc6:	9001      	str	r0, [sp, #4]
      while(HAL_IS_BIT_CLR(PWR->CR, PWR_CR_DBP))
 8003bc8:	6833      	ldr	r3, [r6, #0]
 8003bca:	423b      	tst	r3, r7
 8003bcc:	d1bb      	bne.n	8003b46 <HAL_RCCEx_PeriphCLKConfig+0x3a>
        if((HAL_GetTick() - tickstart) > RCC_DBP_TIMEOUT_VALUE)
 8003bce:	f7fe f8f9 	bl	8001dc4 <HAL_GetTick>
 8003bd2:	9b01      	ldr	r3, [sp, #4]
 8003bd4:	1ac0      	subs	r0, r0, r3
 8003bd6:	2864      	cmp	r0, #100	; 0x64
 8003bd8:	d9f6      	bls.n	8003bc8 <HAL_RCCEx_PeriphCLKConfig+0xbc>
          return HAL_TIMEOUT;
 8003bda:	2003      	movs	r0, #3
}
 8003bdc:	b005      	add	sp, #20
 8003bde:	bdf0      	pop	{r4, r5, r6, r7, pc}
    if((temp_reg != 0x00000000U) && (temp_reg != (PeriphClkInit->RTCClockSelection & RCC_BDCR_RTCSEL)))
 8003be0:	686a      	ldr	r2, [r5, #4]
 8003be2:	4013      	ands	r3, r2
 8003be4:	428b      	cmp	r3, r1
 8003be6:	d0b6      	beq.n	8003b56 <HAL_RCCEx_PeriphCLKConfig+0x4a>
      __HAL_RCC_BACKUPRESET_FORCE();
 8003be8:	2380      	movs	r3, #128	; 0x80
      temp_reg = (RCC->BDCR & ~(RCC_BDCR_RTCSEL));
 8003bea:	6a22      	ldr	r2, [r4, #32]
      __HAL_RCC_BACKUPRESET_FORCE();
 8003bec:	6a20      	ldr	r0, [r4, #32]
      temp_reg = (RCC->BDCR & ~(RCC_BDCR_RTCSEL));
 8003bee:	0011      	movs	r1, r2
      __HAL_RCC_BACKUPRESET_FORCE();
 8003bf0:	025b      	lsls	r3, r3, #9
 8003bf2:	4303      	orrs	r3, r0
 8003bf4:	6223      	str	r3, [r4, #32]
      __HAL_RCC_BACKUPRESET_RELEASE();
 8003bf6:	6a23      	ldr	r3, [r4, #32]
 8003bf8:	480e      	ldr	r0, [pc, #56]	; (8003c34 <HAL_RCCEx_PeriphCLKConfig+0x128>)
      temp_reg = (RCC->BDCR & ~(RCC_BDCR_RTCSEL));
 8003bfa:	4031      	ands	r1, r6
      __HAL_RCC_BACKUPRESET_RELEASE();
 8003bfc:	4003      	ands	r3, r0
 8003bfe:	6223      	str	r3, [r4, #32]
      RCC->BDCR = temp_reg;
 8003c00:	6221      	str	r1, [r4, #32]
      if (HAL_IS_BIT_SET(temp_reg, RCC_BDCR_LSEON))
 8003c02:	07d3      	lsls	r3, r2, #31
 8003c04:	d5a7      	bpl.n	8003b56 <HAL_RCCEx_PeriphCLKConfig+0x4a>
        tickstart = HAL_GetTick();
 8003c06:	f7fe f8dd 	bl	8001dc4 <HAL_GetTick>
 8003c0a:	0007      	movs	r7, r0
        while(__HAL_RCC_GET_FLAG(RCC_FLAG_LSERDY) == RESET)
 8003c0c:	2202      	movs	r2, #2
 8003c0e:	6a23      	ldr	r3, [r4, #32]
 8003c10:	4213      	tst	r3, r2
 8003c12:	d1a0      	bne.n	8003b56 <HAL_RCCEx_PeriphCLKConfig+0x4a>
          if((HAL_GetTick() - tickstart) > RCC_LSE_TIMEOUT_VALUE)
 8003c14:	f7fe f8d6 	bl	8001dc4 <HAL_GetTick>
 8003c18:	4b07      	ldr	r3, [pc, #28]	; (8003c38 <HAL_RCCEx_PeriphCLKConfig+0x12c>)
 8003c1a:	1bc0      	subs	r0, r0, r7
 8003c1c:	4298      	cmp	r0, r3
 8003c1e:	d9f5      	bls.n	8003c0c <HAL_RCCEx_PeriphCLKConfig+0x100>
 8003c20:	e7db      	b.n	8003bda <HAL_RCCEx_PeriphCLKConfig+0xce>
 8003c22:	46c0      	nop			; (mov r8, r8)
 8003c24:	40021000 	.word	0x40021000
 8003c28:	40007000 	.word	0x40007000
 8003c2c:	fffffcff 	.word	0xfffffcff
 8003c30:	efffffff 	.word	0xefffffff
 8003c34:	fffeffff 	.word	0xfffeffff
 8003c38:	00001388 	.word	0x00001388

08003c3c <SPI_WaitFlagStateUntilTimeout.constprop.0>:
  * @param  State flag state to check
  * @param  Timeout Timeout duration
  * @param  Tickstart tick start value
  * @retval HAL status
  */
static HAL_StatusTypeDef SPI_WaitFlagStateUntilTimeout(SPI_HandleTypeDef *hspi, uint32_t Flag, FlagStatus State,
 8003c3c:	b5f0      	push	{r4, r5, r6, r7, lr}
 8003c3e:	000e      	movs	r6, r1
 8003c40:	b085      	sub	sp, #20
 8003c42:	0015      	movs	r5, r2
 8003c44:	0004      	movs	r4, r0
  __IO uint32_t count;
  uint32_t tmp_timeout;
  uint32_t tmp_tickstart;

  /* Adjust Timeout value  in case of end of transfer */
  tmp_timeout   = Timeout - (HAL_GetTick() - Tickstart);
 8003c46:	f7fe f8bd 	bl	8001dc4 <HAL_GetTick>
 8003c4a:	19ad      	adds	r5, r5, r6
 8003c4c:	1a2d      	subs	r5, r5, r0
  tmp_tickstart = HAL_GetTick();
 8003c4e:	f7fe f8b9 	bl	8001dc4 <HAL_GetTick>

  /* Calculate Timeout based on a software loop to avoid blocking issue if Systick is disabled */
  count = tmp_timeout * ((SystemCoreClock * 32U) >> 20U);

  while ((__HAL_SPI_GET_FLAG(hspi, Flag) ? SET : RESET) != State)
 8003c52:	2780      	movs	r7, #128	; 0x80
  count = tmp_timeout * ((SystemCoreClock * 32U) >> 20U);
 8003c54:	4b25      	ldr	r3, [pc, #148]	; (8003cec <SPI_WaitFlagStateUntilTimeout.constprop.0+0xb0>)
  tmp_tickstart = HAL_GetTick();
 8003c56:	9001      	str	r0, [sp, #4]
  count = tmp_timeout * ((SystemCoreClock * 32U) >> 20U);
 8003c58:	681b      	ldr	r3, [r3, #0]
 8003c5a:	015b      	lsls	r3, r3, #5
 8003c5c:	0d1b      	lsrs	r3, r3, #20
 8003c5e:	436b      	muls	r3, r5
 8003c60:	9303      	str	r3, [sp, #12]
  while ((__HAL_SPI_GET_FLAG(hspi, Flag) ? SET : RESET) != State)
 8003c62:	6822      	ldr	r2, [r4, #0]
 8003c64:	6893      	ldr	r3, [r2, #8]
 8003c66:	0018      	movs	r0, r3
 8003c68:	4038      	ands	r0, r7
 8003c6a:	423b      	tst	r3, r7
 8003c6c:	d032      	beq.n	8003cd4 <SPI_WaitFlagStateUntilTimeout.constprop.0+0x98>
  {
    if (Timeout != HAL_MAX_DELAY)
 8003c6e:	1c73      	adds	r3, r6, #1
 8003c70:	d0f8      	beq.n	8003c64 <SPI_WaitFlagStateUntilTimeout.constprop.0+0x28>
    {
      if (((HAL_GetTick() - tmp_tickstart) >= tmp_timeout) || (tmp_timeout == 0U))
 8003c72:	f7fe f8a7 	bl	8001dc4 <HAL_GetTick>
 8003c76:	9b01      	ldr	r3, [sp, #4]
 8003c78:	1ac0      	subs	r0, r0, r3
 8003c7a:	42a8      	cmp	r0, r5
 8003c7c:	d32c      	bcc.n	8003cd8 <SPI_WaitFlagStateUntilTimeout.constprop.0+0x9c>
        /* Disable the SPI and reset the CRC: the CRC value should be cleared
           on both master and slave sides in order to resynchronize the master
           and slave for their respective CRC calculation */

        /* Disable TXE, RXNE and ERR interrupts for the interrupt process */
        __HAL_SPI_DISABLE_IT(hspi, (SPI_IT_TXE | SPI_IT_RXNE | SPI_IT_ERR));
 8003c7e:	21e0      	movs	r1, #224	; 0xe0
 8003c80:	6823      	ldr	r3, [r4, #0]
 8003c82:	685a      	ldr	r2, [r3, #4]
 8003c84:	438a      	bics	r2, r1
 8003c86:	605a      	str	r2, [r3, #4]

        if ((hspi->Init.Mode == SPI_MODE_MASTER) && ((hspi->Init.Direction == SPI_DIRECTION_1LINE)
 8003c88:	2282      	movs	r2, #130	; 0x82
 8003c8a:	6861      	ldr	r1, [r4, #4]
 8003c8c:	0052      	lsls	r2, r2, #1
 8003c8e:	4291      	cmp	r1, r2
 8003c90:	d10c      	bne.n	8003cac <SPI_WaitFlagStateUntilTimeout.constprop.0+0x70>
 8003c92:	2180      	movs	r1, #128	; 0x80
 8003c94:	68a2      	ldr	r2, [r4, #8]
 8003c96:	0209      	lsls	r1, r1, #8
 8003c98:	428a      	cmp	r2, r1
 8003c9a:	d003      	beq.n	8003ca4 <SPI_WaitFlagStateUntilTimeout.constprop.0+0x68>
                                                     || (hspi->Init.Direction == SPI_DIRECTION_2LINES_RXONLY)))
 8003c9c:	2180      	movs	r1, #128	; 0x80
 8003c9e:	00c9      	lsls	r1, r1, #3
 8003ca0:	428a      	cmp	r2, r1
 8003ca2:	d103      	bne.n	8003cac <SPI_WaitFlagStateUntilTimeout.constprop.0+0x70>
        {
          /* Disable SPI peripheral */
          __HAL_SPI_DISABLE(hspi);
 8003ca4:	2140      	movs	r1, #64	; 0x40
 8003ca6:	681a      	ldr	r2, [r3, #0]
 8003ca8:	438a      	bics	r2, r1
 8003caa:	601a      	str	r2, [r3, #0]
        }

        /* Reset CRC Calculation */
        if (hspi->Init.CRCCalculation == SPI_CRCCALCULATION_ENABLE)
 8003cac:	2180      	movs	r1, #128	; 0x80
 8003cae:	6aa2      	ldr	r2, [r4, #40]	; 0x28
 8003cb0:	0189      	lsls	r1, r1, #6
 8003cb2:	428a      	cmp	r2, r1
 8003cb4:	d106      	bne.n	8003cc4 <SPI_WaitFlagStateUntilTimeout.constprop.0+0x88>
        {
          SPI_RESET_CRC(hspi);
 8003cb6:	6819      	ldr	r1, [r3, #0]
 8003cb8:	480d      	ldr	r0, [pc, #52]	; (8003cf0 <SPI_WaitFlagStateUntilTimeout.constprop.0+0xb4>)
 8003cba:	4001      	ands	r1, r0
 8003cbc:	6019      	str	r1, [r3, #0]
 8003cbe:	6819      	ldr	r1, [r3, #0]
 8003cc0:	430a      	orrs	r2, r1
 8003cc2:	601a      	str	r2, [r3, #0]
        }

        hspi->State = HAL_SPI_STATE_READY;
 8003cc4:	0023      	movs	r3, r4
 8003cc6:	2201      	movs	r2, #1
 8003cc8:	335d      	adds	r3, #93	; 0x5d
 8003cca:	701a      	strb	r2, [r3, #0]

        /* Process Unlocked */
        __HAL_UNLOCK(hspi);
 8003ccc:	2300      	movs	r3, #0
 8003cce:	2003      	movs	r0, #3
 8003cd0:	345c      	adds	r4, #92	; 0x5c
 8003cd2:	7023      	strb	r3, [r4, #0]
      count--;
    }
  }

  return HAL_OK;
}
 8003cd4:	b005      	add	sp, #20
 8003cd6:	bdf0      	pop	{r4, r5, r6, r7, pc}
      if(count == 0U)
 8003cd8:	9b03      	ldr	r3, [sp, #12]
        tmp_timeout = 0U;
 8003cda:	1e5a      	subs	r2, r3, #1
 8003cdc:	4193      	sbcs	r3, r2
 8003cde:	425b      	negs	r3, r3
 8003ce0:	401d      	ands	r5, r3
      count--;
 8003ce2:	9b03      	ldr	r3, [sp, #12]
 8003ce4:	3b01      	subs	r3, #1
 8003ce6:	9303      	str	r3, [sp, #12]
 8003ce8:	e7bb      	b.n	8003c62 <SPI_WaitFlagStateUntilTimeout.constprop.0+0x26>
 8003cea:	46c0      	nop			; (mov r8, r8)
 8003cec:	20000000 	.word	0x20000000
 8003cf0:	ffffdfff 	.word	0xffffdfff

08003cf4 <SPI_WaitFifoStateUntilTimeout.constprop.0>:
  * @param  State Fifo state to check
  * @param  Timeout Timeout duration
  * @param  Tickstart tick start value
  * @retval HAL status
  */
static HAL_StatusTypeDef SPI_WaitFifoStateUntilTimeout(SPI_HandleTypeDef *hspi, uint32_t Fifo, uint32_t State,
 8003cf4:	b5f0      	push	{r4, r5, r6, r7, lr}
 8003cf6:	0017      	movs	r7, r2
{
  __IO uint32_t count;
  uint32_t tmp_timeout;
  uint32_t tmp_tickstart;
  __IO uint8_t  * ptmpreg8;
  __IO uint8_t  tmpreg8 = 0;
 8003cf8:	2200      	movs	r2, #0
static HAL_StatusTypeDef SPI_WaitFifoStateUntilTimeout(SPI_HandleTypeDef *hspi, uint32_t Fifo, uint32_t State,
 8003cfa:	b085      	sub	sp, #20
 8003cfc:	001d      	movs	r5, r3
  __IO uint8_t  tmpreg8 = 0;
 8003cfe:	ab02      	add	r3, sp, #8
 8003d00:	70da      	strb	r2, [r3, #3]
static HAL_StatusTypeDef SPI_WaitFifoStateUntilTimeout(SPI_HandleTypeDef *hspi, uint32_t Fifo, uint32_t State,
 8003d02:	0004      	movs	r4, r0
 8003d04:	000e      	movs	r6, r1

  /* Adjust Timeout value  in case of end of transfer */
  tmp_timeout = Timeout - (HAL_GetTick() - Tickstart);
 8003d06:	f7fe f85d 	bl	8001dc4 <HAL_GetTick>
 8003d0a:	19ed      	adds	r5, r5, r7
 8003d0c:	1a2d      	subs	r5, r5, r0
  tmp_tickstart = HAL_GetTick();
 8003d0e:	f7fe f859 	bl	8001dc4 <HAL_GetTick>

  /* Initialize the 8bit temporary pointer */
  ptmpreg8 = (__IO uint8_t *)&hspi->Instance->DR;

  /* Calculate Timeout based on a software loop to avoid blocking issue if Systick is disabled */
  count = tmp_timeout * ((SystemCoreClock * 35U) >> 20U);
 8003d12:	2223      	movs	r2, #35	; 0x23
  ptmpreg8 = (__IO uint8_t *)&hspi->Instance->DR;
 8003d14:	6823      	ldr	r3, [r4, #0]
  tmp_tickstart = HAL_GetTick();
 8003d16:	9000      	str	r0, [sp, #0]
  ptmpreg8 = (__IO uint8_t *)&hspi->Instance->DR;
 8003d18:	9301      	str	r3, [sp, #4]
  count = tmp_timeout * ((SystemCoreClock * 35U) >> 20U);
 8003d1a:	4b2a      	ldr	r3, [pc, #168]	; (8003dc4 <SPI_WaitFifoStateUntilTimeout.constprop.0+0xd0>)
 8003d1c:	681b      	ldr	r3, [r3, #0]
 8003d1e:	4353      	muls	r3, r2
 8003d20:	0d1b      	lsrs	r3, r3, #20
 8003d22:	436b      	muls	r3, r5
      /* If Systick is disabled or not incremented, deactivate timeout to go in disable loop procedure */
      if(count == 0U)
      {
        tmp_timeout = 0U;
      }      
      count--;
 8003d24:	9303      	str	r3, [sp, #12]
  while ((hspi->Instance->SR & Fifo) != State)
 8003d26:	6821      	ldr	r1, [r4, #0]
      tmpreg8 = *ptmpreg8;
 8003d28:	ab02      	add	r3, sp, #8
 8003d2a:	1cda      	adds	r2, r3, #3
  while ((hspi->Instance->SR & Fifo) != State)
 8003d2c:	688b      	ldr	r3, [r1, #8]
 8003d2e:	0018      	movs	r0, r3
 8003d30:	4030      	ands	r0, r6
 8003d32:	4233      	tst	r3, r6
 8003d34:	d03b      	beq.n	8003dae <SPI_WaitFifoStateUntilTimeout.constprop.0+0xba>
    if ((Fifo == SPI_SR_FRLVL) && (State == SPI_FRLVL_EMPTY))
 8003d36:	23c0      	movs	r3, #192	; 0xc0
 8003d38:	00db      	lsls	r3, r3, #3
 8003d3a:	429e      	cmp	r6, r3
 8003d3c:	d104      	bne.n	8003d48 <SPI_WaitFifoStateUntilTimeout.constprop.0+0x54>
      tmpreg8 = *ptmpreg8;
 8003d3e:	9b01      	ldr	r3, [sp, #4]
 8003d40:	7b1b      	ldrb	r3, [r3, #12]
 8003d42:	b2db      	uxtb	r3, r3
 8003d44:	7013      	strb	r3, [r2, #0]
      UNUSED(tmpreg8);
 8003d46:	7813      	ldrb	r3, [r2, #0]
    if (Timeout != HAL_MAX_DELAY)
 8003d48:	1c7b      	adds	r3, r7, #1
 8003d4a:	d0ef      	beq.n	8003d2c <SPI_WaitFifoStateUntilTimeout.constprop.0+0x38>
      if (((HAL_GetTick() - tmp_tickstart) >= tmp_timeout) || (tmp_timeout == 0U))
 8003d4c:	f7fe f83a 	bl	8001dc4 <HAL_GetTick>
 8003d50:	9b00      	ldr	r3, [sp, #0]
 8003d52:	1ac0      	subs	r0, r0, r3
 8003d54:	42a8      	cmp	r0, r5
 8003d56:	d32c      	bcc.n	8003db2 <SPI_WaitFifoStateUntilTimeout.constprop.0+0xbe>
        __HAL_SPI_DISABLE_IT(hspi, (SPI_IT_TXE | SPI_IT_RXNE | SPI_IT_ERR));
 8003d58:	21e0      	movs	r1, #224	; 0xe0
 8003d5a:	6823      	ldr	r3, [r4, #0]
 8003d5c:	685a      	ldr	r2, [r3, #4]
 8003d5e:	438a      	bics	r2, r1
 8003d60:	605a      	str	r2, [r3, #4]
        if ((hspi->Init.Mode == SPI_MODE_MASTER) && ((hspi->Init.Direction == SPI_DIRECTION_1LINE)
 8003d62:	2282      	movs	r2, #130	; 0x82
 8003d64:	6861      	ldr	r1, [r4, #4]
 8003d66:	0052      	lsls	r2, r2, #1
 8003d68:	4291      	cmp	r1, r2
 8003d6a:	d10c      	bne.n	8003d86 <SPI_WaitFifoStateUntilTimeout.constprop.0+0x92>
 8003d6c:	2180      	movs	r1, #128	; 0x80
 8003d6e:	68a2      	ldr	r2, [r4, #8]
 8003d70:	0209      	lsls	r1, r1, #8
 8003d72:	428a      	cmp	r2, r1
 8003d74:	d003      	beq.n	8003d7e <SPI_WaitFifoStateUntilTimeout.constprop.0+0x8a>
                                                     || (hspi->Init.Direction == SPI_DIRECTION_2LINES_RXONLY)))
 8003d76:	2180      	movs	r1, #128	; 0x80
 8003d78:	00c9      	lsls	r1, r1, #3
 8003d7a:	428a      	cmp	r2, r1
 8003d7c:	d103      	bne.n	8003d86 <SPI_WaitFifoStateUntilTimeout.constprop.0+0x92>
          __HAL_SPI_DISABLE(hspi);
 8003d7e:	2140      	movs	r1, #64	; 0x40
 8003d80:	681a      	ldr	r2, [r3, #0]
 8003d82:	438a      	bics	r2, r1
 8003d84:	601a      	str	r2, [r3, #0]
        if (hspi->Init.CRCCalculation == SPI_CRCCALCULATION_ENABLE)
 8003d86:	2180      	movs	r1, #128	; 0x80
 8003d88:	6aa2      	ldr	r2, [r4, #40]	; 0x28
 8003d8a:	0189      	lsls	r1, r1, #6
 8003d8c:	428a      	cmp	r2, r1
 8003d8e:	d106      	bne.n	8003d9e <SPI_WaitFifoStateUntilTimeout.constprop.0+0xaa>
          SPI_RESET_CRC(hspi);
 8003d90:	6819      	ldr	r1, [r3, #0]
 8003d92:	480d      	ldr	r0, [pc, #52]	; (8003dc8 <SPI_WaitFifoStateUntilTimeout.constprop.0+0xd4>)
 8003d94:	4001      	ands	r1, r0
 8003d96:	6019      	str	r1, [r3, #0]
 8003d98:	6819      	ldr	r1, [r3, #0]
 8003d9a:	430a      	orrs	r2, r1
 8003d9c:	601a      	str	r2, [r3, #0]
        hspi->State = HAL_SPI_STATE_READY;
 8003d9e:	0023      	movs	r3, r4
 8003da0:	2201      	movs	r2, #1
 8003da2:	335d      	adds	r3, #93	; 0x5d
 8003da4:	701a      	strb	r2, [r3, #0]
        __HAL_UNLOCK(hspi);
 8003da6:	2300      	movs	r3, #0
        return HAL_TIMEOUT;
 8003da8:	2003      	movs	r0, #3
        __HAL_UNLOCK(hspi);
 8003daa:	345c      	adds	r4, #92	; 0x5c
 8003dac:	7023      	strb	r3, [r4, #0]
    }
  }

  return HAL_OK;
}
 8003dae:	b005      	add	sp, #20
 8003db0:	bdf0      	pop	{r4, r5, r6, r7, pc}
      if(count == 0U)
 8003db2:	9b03      	ldr	r3, [sp, #12]
        tmp_timeout = 0U;
 8003db4:	1e5a      	subs	r2, r3, #1
 8003db6:	4193      	sbcs	r3, r2
 8003db8:	425b      	negs	r3, r3
 8003dba:	401d      	ands	r5, r3
      count--;
 8003dbc:	9b03      	ldr	r3, [sp, #12]
 8003dbe:	3b01      	subs	r3, #1
 8003dc0:	e7b0      	b.n	8003d24 <SPI_WaitFifoStateUntilTimeout.constprop.0+0x30>
 8003dc2:	46c0      	nop			; (mov r8, r8)
 8003dc4:	20000000 	.word	0x20000000
 8003dc8:	ffffdfff 	.word	0xffffdfff

08003dcc <SPI_EndRxTransaction>:
  * @param  Timeout Timeout duration
  * @param  Tickstart tick start value
  * @retval HAL status
  */
static HAL_StatusTypeDef SPI_EndRxTransaction(SPI_HandleTypeDef *hspi,  uint32_t Timeout, uint32_t Tickstart)
{
 8003dcc:	b5f8      	push	{r3, r4, r5, r6, r7, lr}
  if ((hspi->Init.Mode == SPI_MODE_MASTER) && ((hspi->Init.Direction == SPI_DIRECTION_1LINE)
 8003dce:	2382      	movs	r3, #130	; 0x82
{
 8003dd0:	0017      	movs	r7, r2
  if ((hspi->Init.Mode == SPI_MODE_MASTER) && ((hspi->Init.Direction == SPI_DIRECTION_1LINE)
 8003dd2:	6842      	ldr	r2, [r0, #4]
{
 8003dd4:	0004      	movs	r4, r0
 8003dd6:	000e      	movs	r6, r1
  if ((hspi->Init.Mode == SPI_MODE_MASTER) && ((hspi->Init.Direction == SPI_DIRECTION_1LINE)
 8003dd8:	005b      	lsls	r3, r3, #1
 8003dda:	429a      	cmp	r2, r3
 8003ddc:	d10d      	bne.n	8003dfa <SPI_EndRxTransaction+0x2e>
 8003dde:	2280      	movs	r2, #128	; 0x80
 8003de0:	6883      	ldr	r3, [r0, #8]
 8003de2:	0212      	lsls	r2, r2, #8
 8003de4:	4293      	cmp	r3, r2
 8003de6:	d003      	beq.n	8003df0 <SPI_EndRxTransaction+0x24>
                                               || (hspi->Init.Direction == SPI_DIRECTION_2LINES_RXONLY)))
 8003de8:	2280      	movs	r2, #128	; 0x80
 8003dea:	00d2      	lsls	r2, r2, #3
 8003dec:	4293      	cmp	r3, r2
 8003dee:	d104      	bne.n	8003dfa <SPI_EndRxTransaction+0x2e>
  {
    /* Disable SPI peripheral */
    __HAL_SPI_DISABLE(hspi);
 8003df0:	2140      	movs	r1, #64	; 0x40
 8003df2:	6822      	ldr	r2, [r4, #0]
 8003df4:	6813      	ldr	r3, [r2, #0]
 8003df6:	438b      	bics	r3, r1
 8003df8:	6013      	str	r3, [r2, #0]
  }

  /* Control the BSY flag */
  if (SPI_WaitFlagStateUntilTimeout(hspi, SPI_FLAG_BSY, RESET, Timeout, Tickstart) != HAL_OK)
 8003dfa:	003a      	movs	r2, r7
 8003dfc:	0031      	movs	r1, r6
 8003dfe:	0020      	movs	r0, r4
 8003e00:	f7ff ff1c 	bl	8003c3c <SPI_WaitFlagStateUntilTimeout.constprop.0>
 8003e04:	1e05      	subs	r5, r0, #0
 8003e06:	d005      	beq.n	8003e14 <SPI_EndRxTransaction+0x48>
  }

  /* Control if the RX fifo is empty */
  if (SPI_WaitFifoStateUntilTimeout(hspi, SPI_FLAG_FRLVL, SPI_FRLVL_EMPTY, Timeout, Tickstart) != HAL_OK)
  {
    SET_BIT(hspi->ErrorCode, HAL_SPI_ERROR_FLAG);
 8003e08:	2320      	movs	r3, #32
 8003e0a:	6e22      	ldr	r2, [r4, #96]	; 0x60
    return HAL_TIMEOUT;
 8003e0c:	2503      	movs	r5, #3
    SET_BIT(hspi->ErrorCode, HAL_SPI_ERROR_FLAG);
 8003e0e:	4313      	orrs	r3, r2
 8003e10:	6623      	str	r3, [r4, #96]	; 0x60
    return HAL_TIMEOUT;
 8003e12:	e016      	b.n	8003e42 <SPI_EndRxTransaction+0x76>
  if ((hspi->Init.Mode == SPI_MODE_MASTER) && ((hspi->Init.Direction == SPI_DIRECTION_1LINE)
 8003e14:	2382      	movs	r3, #130	; 0x82
 8003e16:	6862      	ldr	r2, [r4, #4]
 8003e18:	005b      	lsls	r3, r3, #1
 8003e1a:	429a      	cmp	r2, r3
 8003e1c:	d111      	bne.n	8003e42 <SPI_EndRxTransaction+0x76>
 8003e1e:	2280      	movs	r2, #128	; 0x80
 8003e20:	68a3      	ldr	r3, [r4, #8]
 8003e22:	0212      	lsls	r2, r2, #8
 8003e24:	4293      	cmp	r3, r2
 8003e26:	d003      	beq.n	8003e30 <SPI_EndRxTransaction+0x64>
                                               || (hspi->Init.Direction == SPI_DIRECTION_2LINES_RXONLY)))
 8003e28:	2280      	movs	r2, #128	; 0x80
 8003e2a:	00d2      	lsls	r2, r2, #3
 8003e2c:	4293      	cmp	r3, r2
 8003e2e:	d108      	bne.n	8003e42 <SPI_EndRxTransaction+0x76>
  if (SPI_WaitFifoStateUntilTimeout(hspi, SPI_FLAG_FRLVL, SPI_FRLVL_EMPTY, Timeout, Tickstart) != HAL_OK)
 8003e30:	21c0      	movs	r1, #192	; 0xc0
 8003e32:	003b      	movs	r3, r7
 8003e34:	0032      	movs	r2, r6
 8003e36:	0020      	movs	r0, r4
 8003e38:	00c9      	lsls	r1, r1, #3
 8003e3a:	f7ff ff5b 	bl	8003cf4 <SPI_WaitFifoStateUntilTimeout.constprop.0>
 8003e3e:	2800      	cmp	r0, #0
 8003e40:	d1e2      	bne.n	8003e08 <SPI_EndRxTransaction+0x3c>
}
 8003e42:	0028      	movs	r0, r5
 8003e44:	bdf8      	pop	{r3, r4, r5, r6, r7, pc}

08003e46 <SPI_EndRxTxTransaction>:
{
 8003e46:	b570      	push	{r4, r5, r6, lr}
  if (SPI_WaitFifoStateUntilTimeout(hspi, SPI_FLAG_FTLVL, SPI_FTLVL_EMPTY, Timeout, Tickstart) != HAL_OK)
 8003e48:	0013      	movs	r3, r2
{
 8003e4a:	000d      	movs	r5, r1
 8003e4c:	0016      	movs	r6, r2
  if (SPI_WaitFifoStateUntilTimeout(hspi, SPI_FLAG_FTLVL, SPI_FTLVL_EMPTY, Timeout, Tickstart) != HAL_OK)
 8003e4e:	000a      	movs	r2, r1
 8003e50:	21c0      	movs	r1, #192	; 0xc0
 8003e52:	0149      	lsls	r1, r1, #5
{
 8003e54:	0004      	movs	r4, r0
  if (SPI_WaitFifoStateUntilTimeout(hspi, SPI_FLAG_FTLVL, SPI_FTLVL_EMPTY, Timeout, Tickstart) != HAL_OK)
 8003e56:	f7ff ff4d 	bl	8003cf4 <SPI_WaitFifoStateUntilTimeout.constprop.0>
 8003e5a:	2800      	cmp	r0, #0
 8003e5c:	d005      	beq.n	8003e6a <SPI_EndRxTxTransaction+0x24>
    SET_BIT(hspi->ErrorCode, HAL_SPI_ERROR_FLAG);
 8003e5e:	2320      	movs	r3, #32
 8003e60:	6e22      	ldr	r2, [r4, #96]	; 0x60
    return HAL_TIMEOUT;
 8003e62:	2003      	movs	r0, #3
    SET_BIT(hspi->ErrorCode, HAL_SPI_ERROR_FLAG);
 8003e64:	4313      	orrs	r3, r2
 8003e66:	6623      	str	r3, [r4, #96]	; 0x60
    return HAL_TIMEOUT;
 8003e68:	e00f      	b.n	8003e8a <SPI_EndRxTxTransaction+0x44>
  if (SPI_WaitFlagStateUntilTimeout(hspi, SPI_FLAG_BSY, RESET, Timeout, Tickstart) != HAL_OK)
 8003e6a:	0032      	movs	r2, r6
 8003e6c:	0029      	movs	r1, r5
 8003e6e:	0020      	movs	r0, r4
 8003e70:	f7ff fee4 	bl	8003c3c <SPI_WaitFlagStateUntilTimeout.constprop.0>
 8003e74:	2800      	cmp	r0, #0
 8003e76:	d1f2      	bne.n	8003e5e <SPI_EndRxTxTransaction+0x18>
  if (SPI_WaitFifoStateUntilTimeout(hspi, SPI_FLAG_FRLVL, SPI_FRLVL_EMPTY, Timeout, Tickstart) != HAL_OK)
 8003e78:	21c0      	movs	r1, #192	; 0xc0
 8003e7a:	0033      	movs	r3, r6
 8003e7c:	002a      	movs	r2, r5
 8003e7e:	0020      	movs	r0, r4
 8003e80:	00c9      	lsls	r1, r1, #3
 8003e82:	f7ff ff37 	bl	8003cf4 <SPI_WaitFifoStateUntilTimeout.constprop.0>
 8003e86:	2800      	cmp	r0, #0
 8003e88:	d1e9      	bne.n	8003e5e <SPI_EndRxTxTransaction+0x18>
  }

  return HAL_OK;
}
 8003e8a:	bd70      	pop	{r4, r5, r6, pc}

08003e8c <HAL_SPI_Init>:
{
 8003e8c:	b5f8      	push	{r3, r4, r5, r6, r7, lr}
 8003e8e:	0004      	movs	r4, r0
    return HAL_ERROR;
 8003e90:	2001      	movs	r0, #1
  if (hspi == NULL)
 8003e92:	2c00      	cmp	r4, #0
 8003e94:	d067      	beq.n	8003f66 <HAL_SPI_Init+0xda>
  if (hspi->Init.TIMode == SPI_TIMODE_DISABLE)
 8003e96:	6a63      	ldr	r3, [r4, #36]	; 0x24
 8003e98:	2b00      	cmp	r3, #0
 8003e9a:	d165      	bne.n	8003f68 <HAL_SPI_Init+0xdc>
    if (hspi->Init.Mode == SPI_MODE_MASTER)
 8003e9c:	2282      	movs	r2, #130	; 0x82
 8003e9e:	6861      	ldr	r1, [r4, #4]
 8003ea0:	0052      	lsls	r2, r2, #1
 8003ea2:	4291      	cmp	r1, r2
 8003ea4:	d000      	beq.n	8003ea8 <HAL_SPI_Init+0x1c>
      hspi->Init.BaudRatePrescaler = SPI_BAUDRATEPRESCALER_2;
 8003ea6:	61e3      	str	r3, [r4, #28]
  hspi->Init.CRCCalculation = SPI_CRCCALCULATION_DISABLE;
 8003ea8:	2300      	movs	r3, #0
  if (hspi->State == HAL_SPI_STATE_RESET)
 8003eaa:	0025      	movs	r5, r4
  hspi->Init.CRCCalculation = SPI_CRCCALCULATION_DISABLE;
 8003eac:	62a3      	str	r3, [r4, #40]	; 0x28
  if (hspi->State == HAL_SPI_STATE_RESET)
 8003eae:	355d      	adds	r5, #93	; 0x5d
 8003eb0:	782b      	ldrb	r3, [r5, #0]
 8003eb2:	b2da      	uxtb	r2, r3
 8003eb4:	2b00      	cmp	r3, #0
 8003eb6:	d105      	bne.n	8003ec4 <HAL_SPI_Init+0x38>
    hspi->Lock = HAL_UNLOCKED;
 8003eb8:	0023      	movs	r3, r4
 8003eba:	335c      	adds	r3, #92	; 0x5c
    HAL_SPI_MspInit(hspi);
 8003ebc:	0020      	movs	r0, r4
    hspi->Lock = HAL_UNLOCKED;
 8003ebe:	701a      	strb	r2, [r3, #0]
    HAL_SPI_MspInit(hspi);
 8003ec0:	f7fd fe66 	bl	8001b90 <HAL_SPI_MspInit>
  hspi->State = HAL_SPI_STATE_BUSY;
 8003ec4:	2302      	movs	r3, #2
  __HAL_SPI_DISABLE(hspi);
 8003ec6:	2140      	movs	r1, #64	; 0x40
  hspi->State = HAL_SPI_STATE_BUSY;
 8003ec8:	702b      	strb	r3, [r5, #0]
  __HAL_SPI_DISABLE(hspi);
 8003eca:	6822      	ldr	r2, [r4, #0]
  if (hspi->Init.DataSize > SPI_DATASIZE_8BIT)
 8003ecc:	68e5      	ldr	r5, [r4, #12]
  __HAL_SPI_DISABLE(hspi);
 8003ece:	6813      	ldr	r3, [r2, #0]
 8003ed0:	438b      	bics	r3, r1
  if (hspi->Init.DataSize > SPI_DATASIZE_8BIT)
 8003ed2:	21e0      	movs	r1, #224	; 0xe0
  __HAL_SPI_DISABLE(hspi);
 8003ed4:	6013      	str	r3, [r2, #0]
  if (hspi->Init.DataSize > SPI_DATASIZE_8BIT)
 8003ed6:	00c9      	lsls	r1, r1, #3
 8003ed8:	2300      	movs	r3, #0
 8003eda:	428d      	cmp	r5, r1
 8003edc:	d848      	bhi.n	8003f70 <HAL_SPI_Init+0xe4>
    frxth = SPI_RXFIFO_THRESHOLD_QF;
 8003ede:	2080      	movs	r0, #128	; 0x80
 8003ee0:	0140      	lsls	r0, r0, #5
  if ((hspi->Init.DataSize != SPI_DATASIZE_16BIT) && (hspi->Init.DataSize != SPI_DATASIZE_8BIT))
 8003ee2:	428d      	cmp	r5, r1
 8003ee4:	d000      	beq.n	8003ee8 <HAL_SPI_Init+0x5c>
    hspi->Init.CRCCalculation = SPI_CRCCALCULATION_DISABLE;
 8003ee6:	62a3      	str	r3, [r4, #40]	; 0x28
  WRITE_REG(hspi->Instance->CR1, ((hspi->Init.Mode & (SPI_CR1_MSTR | SPI_CR1_SSI)) |
 8003ee8:	2382      	movs	r3, #130	; 0x82
 8003eea:	6866      	ldr	r6, [r4, #4]
 8003eec:	005b      	lsls	r3, r3, #1
 8003eee:	4033      	ands	r3, r6
 8003ef0:	2684      	movs	r6, #132	; 0x84
 8003ef2:	68a7      	ldr	r7, [r4, #8]
 8003ef4:	0236      	lsls	r6, r6, #8
 8003ef6:	403e      	ands	r6, r7
 8003ef8:	4333      	orrs	r3, r6
 8003efa:	2602      	movs	r6, #2
 8003efc:	6927      	ldr	r7, [r4, #16]
 8003efe:	69a1      	ldr	r1, [r4, #24]
 8003f00:	403e      	ands	r6, r7
 8003f02:	4333      	orrs	r3, r6
 8003f04:	2601      	movs	r6, #1
 8003f06:	6967      	ldr	r7, [r4, #20]
 8003f08:	46b4      	mov	ip, r6
 8003f0a:	4037      	ands	r7, r6
 8003f0c:	433b      	orrs	r3, r7
 8003f0e:	2780      	movs	r7, #128	; 0x80
 8003f10:	00bf      	lsls	r7, r7, #2
 8003f12:	400f      	ands	r7, r1
 8003f14:	433b      	orrs	r3, r7
 8003f16:	2738      	movs	r7, #56	; 0x38
 8003f18:	69e6      	ldr	r6, [r4, #28]
  WRITE_REG(hspi->Instance->CR2, (((hspi->Init.NSS >> 16U) & SPI_CR2_SSOE) |
 8003f1a:	0c09      	lsrs	r1, r1, #16
  WRITE_REG(hspi->Instance->CR1, ((hspi->Init.Mode & (SPI_CR1_MSTR | SPI_CR1_SSI)) |
 8003f1c:	4037      	ands	r7, r6
 8003f1e:	433b      	orrs	r3, r7
 8003f20:	2780      	movs	r7, #128	; 0x80
 8003f22:	6a26      	ldr	r6, [r4, #32]
 8003f24:	4037      	ands	r7, r6
 8003f26:	433b      	orrs	r3, r7
 8003f28:	2780      	movs	r7, #128	; 0x80
 8003f2a:	6aa6      	ldr	r6, [r4, #40]	; 0x28
 8003f2c:	01bf      	lsls	r7, r7, #6
 8003f2e:	4037      	ands	r7, r6
 8003f30:	433b      	orrs	r3, r7
 8003f32:	6013      	str	r3, [r2, #0]
  WRITE_REG(hspi->Instance->CR2, (((hspi->Init.NSS >> 16U) & SPI_CR2_SSOE) |
 8003f34:	2310      	movs	r3, #16
 8003f36:	2708      	movs	r7, #8
 8003f38:	6a66      	ldr	r6, [r4, #36]	; 0x24
 8003f3a:	4033      	ands	r3, r6
 8003f3c:	6b66      	ldr	r6, [r4, #52]	; 0x34
 8003f3e:	4037      	ands	r7, r6
 8003f40:	433b      	orrs	r3, r7
 8003f42:	27f0      	movs	r7, #240	; 0xf0
 8003f44:	013f      	lsls	r7, r7, #4
 8003f46:	403d      	ands	r5, r7
 8003f48:	431d      	orrs	r5, r3
 8003f4a:	2304      	movs	r3, #4
 8003f4c:	4019      	ands	r1, r3
 8003f4e:	4329      	orrs	r1, r5
 8003f50:	4308      	orrs	r0, r1
 8003f52:	6050      	str	r0, [r2, #4]
  CLEAR_BIT(hspi->Instance->I2SCFGR, SPI_I2SCFGR_I2SMOD);
 8003f54:	69d3      	ldr	r3, [r2, #28]
 8003f56:	4908      	ldr	r1, [pc, #32]	; (8003f78 <HAL_SPI_Init+0xec>)
  hspi->ErrorCode = HAL_SPI_ERROR_NONE;
 8003f58:	2000      	movs	r0, #0
  CLEAR_BIT(hspi->Instance->I2SCFGR, SPI_I2SCFGR_I2SMOD);
 8003f5a:	400b      	ands	r3, r1
 8003f5c:	61d3      	str	r3, [r2, #28]
  hspi->State     = HAL_SPI_STATE_READY;
 8003f5e:	4663      	mov	r3, ip
  hspi->ErrorCode = HAL_SPI_ERROR_NONE;
 8003f60:	6620      	str	r0, [r4, #96]	; 0x60
  hspi->State     = HAL_SPI_STATE_READY;
 8003f62:	345d      	adds	r4, #93	; 0x5d
 8003f64:	7023      	strb	r3, [r4, #0]
}
 8003f66:	bdf8      	pop	{r3, r4, r5, r6, r7, pc}
    hspi->Init.CLKPolarity = SPI_POLARITY_LOW;
 8003f68:	2300      	movs	r3, #0
 8003f6a:	6123      	str	r3, [r4, #16]
    hspi->Init.CLKPhase    = SPI_PHASE_1EDGE;
 8003f6c:	6163      	str	r3, [r4, #20]
 8003f6e:	e79b      	b.n	8003ea8 <HAL_SPI_Init+0x1c>
  if ((hspi->Init.DataSize != SPI_DATASIZE_16BIT) && (hspi->Init.DataSize != SPI_DATASIZE_8BIT))
 8003f70:	21f0      	movs	r1, #240	; 0xf0
    frxth = SPI_RXFIFO_THRESHOLD_HF;
 8003f72:	0018      	movs	r0, r3
  if ((hspi->Init.DataSize != SPI_DATASIZE_16BIT) && (hspi->Init.DataSize != SPI_DATASIZE_8BIT))
 8003f74:	0109      	lsls	r1, r1, #4
 8003f76:	e7b4      	b.n	8003ee2 <HAL_SPI_Init+0x56>
 8003f78:	fffff7ff 	.word	0xfffff7ff

08003f7c <HAL_SPI_DeInit>:
{
 8003f7c:	b570      	push	{r4, r5, r6, lr}
 8003f7e:	0004      	movs	r4, r0
    return HAL_ERROR;
 8003f80:	2001      	movs	r0, #1
  if (hspi == NULL)
 8003f82:	2c00      	cmp	r4, #0
 8003f84:	d010      	beq.n	8003fa8 <HAL_SPI_DeInit+0x2c>
  hspi->State = HAL_SPI_STATE_BUSY;
 8003f86:	0025      	movs	r5, r4
 8003f88:	2302      	movs	r3, #2
  __HAL_SPI_DISABLE(hspi);
 8003f8a:	2140      	movs	r1, #64	; 0x40
  hspi->State = HAL_SPI_STATE_BUSY;
 8003f8c:	355d      	adds	r5, #93	; 0x5d
 8003f8e:	702b      	strb	r3, [r5, #0]
  __HAL_SPI_DISABLE(hspi);
 8003f90:	6822      	ldr	r2, [r4, #0]
  HAL_SPI_MspDeInit(hspi);
 8003f92:	0020      	movs	r0, r4
  __HAL_SPI_DISABLE(hspi);
 8003f94:	6813      	ldr	r3, [r2, #0]
  __HAL_UNLOCK(hspi);
 8003f96:	345c      	adds	r4, #92	; 0x5c
  __HAL_SPI_DISABLE(hspi);
 8003f98:	438b      	bics	r3, r1
 8003f9a:	6013      	str	r3, [r2, #0]
  HAL_SPI_MspDeInit(hspi);
 8003f9c:	f7fd fe34 	bl	8001c08 <HAL_SPI_MspDeInit>
  hspi->ErrorCode = HAL_SPI_ERROR_NONE;
 8003fa0:	2000      	movs	r0, #0
 8003fa2:	6060      	str	r0, [r4, #4]
  hspi->State = HAL_SPI_STATE_RESET;
 8003fa4:	7028      	strb	r0, [r5, #0]
  __HAL_UNLOCK(hspi);
 8003fa6:	7020      	strb	r0, [r4, #0]
}
 8003fa8:	bd70      	pop	{r4, r5, r6, pc}

08003faa <HAL_SPI_Transmit>:
{
 8003faa:	b5f0      	push	{r4, r5, r6, r7, lr}
 8003fac:	001e      	movs	r6, r3
  __HAL_LOCK(hspi);
 8003fae:	0003      	movs	r3, r0
{
 8003fb0:	b085      	sub	sp, #20
  __HAL_LOCK(hspi);
 8003fb2:	335c      	adds	r3, #92	; 0x5c
 8003fb4:	9301      	str	r3, [sp, #4]
 8003fb6:	781b      	ldrb	r3, [r3, #0]
{
 8003fb8:	0004      	movs	r4, r0
 8003fba:	000d      	movs	r5, r1
 8003fbc:	0017      	movs	r7, r2
  __HAL_LOCK(hspi);
 8003fbe:	2002      	movs	r0, #2
 8003fc0:	2b01      	cmp	r3, #1
 8003fc2:	d100      	bne.n	8003fc6 <HAL_SPI_Transmit+0x1c>
 8003fc4:	e07d      	b.n	80040c2 <HAL_SPI_Transmit+0x118>
 8003fc6:	2301      	movs	r3, #1
 8003fc8:	9a01      	ldr	r2, [sp, #4]
 8003fca:	7013      	strb	r3, [r2, #0]
  tickstart = HAL_GetTick();
 8003fcc:	f7fd fefa 	bl	8001dc4 <HAL_GetTick>
  if (hspi->State != HAL_SPI_STATE_READY)
 8003fd0:	0023      	movs	r3, r4
  tickstart = HAL_GetTick();
 8003fd2:	9000      	str	r0, [sp, #0]
  if (hspi->State != HAL_SPI_STATE_READY)
 8003fd4:	335d      	adds	r3, #93	; 0x5d
 8003fd6:	781a      	ldrb	r2, [r3, #0]
 8003fd8:	b2d0      	uxtb	r0, r2
 8003fda:	2a01      	cmp	r2, #1
 8003fdc:	d000      	beq.n	8003fe0 <HAL_SPI_Transmit+0x36>
 8003fde:	e09f      	b.n	8004120 <HAL_SPI_Transmit+0x176>
  if ((pData == NULL) || (Size == 0U))
 8003fe0:	2d00      	cmp	r5, #0
 8003fe2:	d068      	beq.n	80040b6 <HAL_SPI_Transmit+0x10c>
 8003fe4:	2f00      	cmp	r7, #0
 8003fe6:	d066      	beq.n	80040b6 <HAL_SPI_Transmit+0x10c>
  hspi->State       = HAL_SPI_STATE_BUSY_TX;
 8003fe8:	3202      	adds	r2, #2
 8003fea:	701a      	strb	r2, [r3, #0]
  hspi->ErrorCode   = HAL_SPI_ERROR_NONE;
 8003fec:	2300      	movs	r3, #0
  hspi->RxXferSize  = 0U;
 8003fee:	1da2      	adds	r2, r4, #6
  hspi->ErrorCode   = HAL_SPI_ERROR_NONE;
 8003ff0:	6623      	str	r3, [r4, #96]	; 0x60
  hspi->pRxBuffPtr  = (uint8_t *)NULL;
 8003ff2:	6423      	str	r3, [r4, #64]	; 0x40
  hspi->pTxBuffPtr  = (uint8_t *)pData;
 8003ff4:	63a5      	str	r5, [r4, #56]	; 0x38
  hspi->TxXferSize  = Size;
 8003ff6:	87a7      	strh	r7, [r4, #60]	; 0x3c
  hspi->TxXferCount = Size;
 8003ff8:	87e7      	strh	r7, [r4, #62]	; 0x3e
  hspi->RxXferCount = 0U;
 8003ffa:	3202      	adds	r2, #2
  hspi->RxXferSize  = 0U;
 8003ffc:	8793      	strh	r3, [r2, #60]	; 0x3c
  hspi->RxXferCount = 0U;
 8003ffe:	87d3      	strh	r3, [r2, #62]	; 0x3e
  hspi->TxISR       = NULL;
 8004000:	6523      	str	r3, [r4, #80]	; 0x50
  hspi->RxISR       = NULL;
 8004002:	64e3      	str	r3, [r4, #76]	; 0x4c
  if (hspi->Init.Direction == SPI_DIRECTION_1LINE)
 8004004:	2380      	movs	r3, #128	; 0x80
 8004006:	68a1      	ldr	r1, [r4, #8]
 8004008:	6822      	ldr	r2, [r4, #0]
 800400a:	021b      	lsls	r3, r3, #8
 800400c:	4299      	cmp	r1, r3
 800400e:	d108      	bne.n	8004022 <HAL_SPI_Transmit+0x78>
    __HAL_SPI_DISABLE(hspi);
 8004010:	2140      	movs	r1, #64	; 0x40
 8004012:	6813      	ldr	r3, [r2, #0]
 8004014:	438b      	bics	r3, r1
 8004016:	6013      	str	r3, [r2, #0]
    SPI_1LINE_TX(hspi);
 8004018:	2380      	movs	r3, #128	; 0x80
 800401a:	6811      	ldr	r1, [r2, #0]
 800401c:	01db      	lsls	r3, r3, #7
 800401e:	430b      	orrs	r3, r1
 8004020:	6013      	str	r3, [r2, #0]
  if ((hspi->Instance->CR1 & SPI_CR1_SPE) != SPI_CR1_SPE)
 8004022:	2340      	movs	r3, #64	; 0x40
 8004024:	6811      	ldr	r1, [r2, #0]
 8004026:	4219      	tst	r1, r3
 8004028:	d102      	bne.n	8004030 <HAL_SPI_Transmit+0x86>
    __HAL_SPI_ENABLE(hspi);
 800402a:	6811      	ldr	r1, [r2, #0]
 800402c:	430b      	orrs	r3, r1
 800402e:	6013      	str	r3, [r2, #0]
  if (hspi->Init.DataSize > SPI_DATASIZE_8BIT)
 8004030:	21e0      	movs	r1, #224	; 0xe0
 8004032:	68e0      	ldr	r0, [r4, #12]
 8004034:	6863      	ldr	r3, [r4, #4]
 8004036:	00c9      	lsls	r1, r1, #3
 8004038:	4288      	cmp	r0, r1
 800403a:	d944      	bls.n	80040c6 <HAL_SPI_Transmit+0x11c>
    if ((hspi->Init.Mode == SPI_MODE_SLAVE) || (initial_TxXferCount == 0x01U))
 800403c:	2b00      	cmp	r3, #0
 800403e:	d001      	beq.n	8004044 <HAL_SPI_Transmit+0x9a>
 8004040:	2f01      	cmp	r7, #1
 8004042:	d107      	bne.n	8004054 <HAL_SPI_Transmit+0xaa>
      hspi->Instance->DR = *((uint16_t *)hspi->pTxBuffPtr);
 8004044:	882b      	ldrh	r3, [r5, #0]
      hspi->pTxBuffPtr += sizeof(uint16_t);
 8004046:	3502      	adds	r5, #2
      hspi->Instance->DR = *((uint16_t *)hspi->pTxBuffPtr);
 8004048:	60d3      	str	r3, [r2, #12]
      hspi->TxXferCount--;
 800404a:	8fe3      	ldrh	r3, [r4, #62]	; 0x3e
      hspi->pTxBuffPtr += sizeof(uint16_t);
 800404c:	63a5      	str	r5, [r4, #56]	; 0x38
      hspi->TxXferCount--;
 800404e:	3b01      	subs	r3, #1
 8004050:	b29b      	uxth	r3, r3
 8004052:	87e3      	strh	r3, [r4, #62]	; 0x3e
      if (__HAL_SPI_GET_FLAG(hspi, SPI_FLAG_TXE))
 8004054:	2502      	movs	r5, #2
 8004056:	e00c      	b.n	8004072 <HAL_SPI_Transmit+0xc8>
 8004058:	6822      	ldr	r2, [r4, #0]
 800405a:	6893      	ldr	r3, [r2, #8]
 800405c:	422b      	tst	r3, r5
 800405e:	d021      	beq.n	80040a4 <HAL_SPI_Transmit+0xfa>
        hspi->Instance->DR = *((uint16_t *)hspi->pTxBuffPtr);
 8004060:	6ba3      	ldr	r3, [r4, #56]	; 0x38
 8004062:	8819      	ldrh	r1, [r3, #0]
        hspi->pTxBuffPtr += sizeof(uint16_t);
 8004064:	3302      	adds	r3, #2
        hspi->Instance->DR = *((uint16_t *)hspi->pTxBuffPtr);
 8004066:	60d1      	str	r1, [r2, #12]
        hspi->pTxBuffPtr += sizeof(uint16_t);
 8004068:	63a3      	str	r3, [r4, #56]	; 0x38
        hspi->TxXferCount--;
 800406a:	8fe3      	ldrh	r3, [r4, #62]	; 0x3e
 800406c:	3b01      	subs	r3, #1
 800406e:	b29b      	uxth	r3, r3
 8004070:	87e3      	strh	r3, [r4, #62]	; 0x3e
    while (hspi->TxXferCount > 0U)
 8004072:	8fe3      	ldrh	r3, [r4, #62]	; 0x3e
 8004074:	2b00      	cmp	r3, #0
 8004076:	d1ef      	bne.n	8004058 <HAL_SPI_Transmit+0xae>
  if (SPI_EndRxTxTransaction(hspi, Timeout, tickstart) != HAL_OK)
 8004078:	0031      	movs	r1, r6
 800407a:	0020      	movs	r0, r4
 800407c:	9a00      	ldr	r2, [sp, #0]
 800407e:	f7ff fee2 	bl	8003e46 <SPI_EndRxTxTransaction>
 8004082:	2800      	cmp	r0, #0
 8004084:	d149      	bne.n	800411a <HAL_SPI_Transmit+0x170>
  if (hspi->Init.Direction == SPI_DIRECTION_2LINES)
 8004086:	68a3      	ldr	r3, [r4, #8]
 8004088:	2b00      	cmp	r3, #0
 800408a:	d106      	bne.n	800409a <HAL_SPI_Transmit+0xf0>
    __HAL_SPI_CLEAR_OVRFLAG(hspi);
 800408c:	9303      	str	r3, [sp, #12]
 800408e:	6823      	ldr	r3, [r4, #0]
 8004090:	68da      	ldr	r2, [r3, #12]
 8004092:	9203      	str	r2, [sp, #12]
 8004094:	689b      	ldr	r3, [r3, #8]
 8004096:	9303      	str	r3, [sp, #12]
 8004098:	9b03      	ldr	r3, [sp, #12]
  if (hspi->ErrorCode != HAL_SPI_ERROR_NONE)
 800409a:	6e20      	ldr	r0, [r4, #96]	; 0x60
 800409c:	1e43      	subs	r3, r0, #1
 800409e:	4198      	sbcs	r0, r3
    errorcode = HAL_BUSY;
 80040a0:	b2c0      	uxtb	r0, r0
error:
 80040a2:	e008      	b.n	80040b6 <HAL_SPI_Transmit+0x10c>
        if ((((HAL_GetTick() - tickstart) >=  Timeout) && (Timeout != HAL_MAX_DELAY)) || (Timeout == 0U))
 80040a4:	f7fd fe8e 	bl	8001dc4 <HAL_GetTick>
 80040a8:	9b00      	ldr	r3, [sp, #0]
 80040aa:	1ac0      	subs	r0, r0, r3
 80040ac:	42b0      	cmp	r0, r6
 80040ae:	d3e0      	bcc.n	8004072 <HAL_SPI_Transmit+0xc8>
 80040b0:	1c73      	adds	r3, r6, #1
 80040b2:	d0de      	beq.n	8004072 <HAL_SPI_Transmit+0xc8>
          errorcode = HAL_TIMEOUT;
 80040b4:	2003      	movs	r0, #3
  hspi->State = HAL_SPI_STATE_READY;
 80040b6:	2301      	movs	r3, #1
 80040b8:	345d      	adds	r4, #93	; 0x5d
 80040ba:	7023      	strb	r3, [r4, #0]
  __HAL_UNLOCK(hspi);
 80040bc:	2300      	movs	r3, #0
 80040be:	9a01      	ldr	r2, [sp, #4]
 80040c0:	7013      	strb	r3, [r2, #0]
}
 80040c2:	b005      	add	sp, #20
 80040c4:	bdf0      	pop	{r4, r5, r6, r7, pc}
    if ((hspi->Init.Mode == SPI_MODE_SLAVE) || (initial_TxXferCount == 0x01U))
 80040c6:	2b00      	cmp	r3, #0
 80040c8:	d001      	beq.n	80040ce <HAL_SPI_Transmit+0x124>
 80040ca:	2f01      	cmp	r7, #1
 80040cc:	d108      	bne.n	80040e0 <HAL_SPI_Transmit+0x136>
      *((__IO uint8_t *)&hspi->Instance->DR) = (*hspi->pTxBuffPtr);
 80040ce:	782b      	ldrb	r3, [r5, #0]
 80040d0:	7313      	strb	r3, [r2, #12]
      hspi->pTxBuffPtr += sizeof(uint8_t);
 80040d2:	6ba3      	ldr	r3, [r4, #56]	; 0x38
 80040d4:	3301      	adds	r3, #1
 80040d6:	63a3      	str	r3, [r4, #56]	; 0x38
      hspi->TxXferCount--;
 80040d8:	8fe3      	ldrh	r3, [r4, #62]	; 0x3e
 80040da:	3b01      	subs	r3, #1
 80040dc:	b29b      	uxth	r3, r3
 80040de:	87e3      	strh	r3, [r4, #62]	; 0x3e
      if (__HAL_SPI_GET_FLAG(hspi, SPI_FLAG_TXE))
 80040e0:	2502      	movs	r5, #2
 80040e2:	e00d      	b.n	8004100 <HAL_SPI_Transmit+0x156>
 80040e4:	6823      	ldr	r3, [r4, #0]
 80040e6:	689a      	ldr	r2, [r3, #8]
 80040e8:	422a      	tst	r2, r5
 80040ea:	d00d      	beq.n	8004108 <HAL_SPI_Transmit+0x15e>
        *((__IO uint8_t *)&hspi->Instance->DR) = (*hspi->pTxBuffPtr);
 80040ec:	6ba2      	ldr	r2, [r4, #56]	; 0x38
 80040ee:	7812      	ldrb	r2, [r2, #0]
 80040f0:	731a      	strb	r2, [r3, #12]
        hspi->pTxBuffPtr += sizeof(uint8_t);
 80040f2:	6ba3      	ldr	r3, [r4, #56]	; 0x38
 80040f4:	3301      	adds	r3, #1
 80040f6:	63a3      	str	r3, [r4, #56]	; 0x38
        hspi->TxXferCount--;
 80040f8:	8fe3      	ldrh	r3, [r4, #62]	; 0x3e
 80040fa:	3b01      	subs	r3, #1
 80040fc:	b29b      	uxth	r3, r3
 80040fe:	87e3      	strh	r3, [r4, #62]	; 0x3e
    while (hspi->TxXferCount > 0U)
 8004100:	8fe3      	ldrh	r3, [r4, #62]	; 0x3e
 8004102:	2b00      	cmp	r3, #0
 8004104:	d1ee      	bne.n	80040e4 <HAL_SPI_Transmit+0x13a>
 8004106:	e7b7      	b.n	8004078 <HAL_SPI_Transmit+0xce>
        if ((((HAL_GetTick() - tickstart) >=  Timeout) && (Timeout != HAL_MAX_DELAY)) || (Timeout == 0U))
 8004108:	f7fd fe5c 	bl	8001dc4 <HAL_GetTick>
 800410c:	9b00      	ldr	r3, [sp, #0]
 800410e:	1ac0      	subs	r0, r0, r3
 8004110:	42b0      	cmp	r0, r6
 8004112:	d3f5      	bcc.n	8004100 <HAL_SPI_Transmit+0x156>
 8004114:	1c73      	adds	r3, r6, #1
 8004116:	d0f3      	beq.n	8004100 <HAL_SPI_Transmit+0x156>
 8004118:	e7cc      	b.n	80040b4 <HAL_SPI_Transmit+0x10a>
    hspi->ErrorCode = HAL_SPI_ERROR_FLAG;
 800411a:	2320      	movs	r3, #32
 800411c:	6623      	str	r3, [r4, #96]	; 0x60
 800411e:	e7b2      	b.n	8004086 <HAL_SPI_Transmit+0xdc>
    errorcode = HAL_BUSY;
 8004120:	2002      	movs	r0, #2
 8004122:	e7c8      	b.n	80040b6 <HAL_SPI_Transmit+0x10c>

08004124 <HAL_SPI_TransmitReceive>:
{
 8004124:	b5f7      	push	{r0, r1, r2, r4, r5, r6, r7, lr}
 8004126:	001e      	movs	r6, r3
  __HAL_LOCK(hspi);
 8004128:	0003      	movs	r3, r0
 800412a:	335c      	adds	r3, #92	; 0x5c
{
 800412c:	0017      	movs	r7, r2
  __HAL_LOCK(hspi);
 800412e:	781a      	ldrb	r2, [r3, #0]
{
 8004130:	0004      	movs	r4, r0
 8004132:	000d      	movs	r5, r1
  __HAL_LOCK(hspi);
 8004134:	2002      	movs	r0, #2
 8004136:	2a01      	cmp	r2, #1
 8004138:	d100      	bne.n	800413c <HAL_SPI_TransmitReceive+0x18>
 800413a:	e0aa      	b.n	8004292 <HAL_SPI_TransmitReceive+0x16e>
 800413c:	2201      	movs	r2, #1
 800413e:	701a      	strb	r2, [r3, #0]
  tickstart = HAL_GetTick();
 8004140:	f7fd fe40 	bl	8001dc4 <HAL_GetTick>
  tmp_state           = hspi->State;
 8004144:	0023      	movs	r3, r4
  tickstart = HAL_GetTick();
 8004146:	9001      	str	r0, [sp, #4]
  tmp_state           = hspi->State;
 8004148:	335d      	adds	r3, #93	; 0x5d
 800414a:	781b      	ldrb	r3, [r3, #0]
  tmp_mode            = hspi->Init.Mode;
 800414c:	6861      	ldr	r1, [r4, #4]
  tmp_state           = hspi->State;
 800414e:	b2da      	uxtb	r2, r3
  if (!((tmp_state == HAL_SPI_STATE_READY) || \
 8004150:	2b01      	cmp	r3, #1
 8004152:	d00c      	beq.n	800416e <HAL_SPI_TransmitReceive+0x4a>
 8004154:	2382      	movs	r3, #130	; 0x82
    errorcode = HAL_BUSY;
 8004156:	2002      	movs	r0, #2
  if (!((tmp_state == HAL_SPI_STATE_READY) || \
 8004158:	005b      	lsls	r3, r3, #1
 800415a:	4299      	cmp	r1, r3
 800415c:	d000      	beq.n	8004160 <HAL_SPI_TransmitReceive+0x3c>
 800415e:	e091      	b.n	8004284 <HAL_SPI_TransmitReceive+0x160>
        ((tmp_mode == SPI_MODE_MASTER) && (hspi->Init.Direction == SPI_DIRECTION_2LINES) && (tmp_state == HAL_SPI_STATE_BUSY_RX))))
 8004160:	68a3      	ldr	r3, [r4, #8]
 8004162:	2b00      	cmp	r3, #0
 8004164:	d000      	beq.n	8004168 <HAL_SPI_TransmitReceive+0x44>
 8004166:	e08d      	b.n	8004284 <HAL_SPI_TransmitReceive+0x160>
 8004168:	2a04      	cmp	r2, #4
 800416a:	d000      	beq.n	800416e <HAL_SPI_TransmitReceive+0x4a>
 800416c:	e08a      	b.n	8004284 <HAL_SPI_TransmitReceive+0x160>
    errorcode = HAL_ERROR;
 800416e:	2001      	movs	r0, #1
  if ((pTxData == NULL) || (pRxData == NULL) || (Size == 0U))
 8004170:	2d00      	cmp	r5, #0
 8004172:	d100      	bne.n	8004176 <HAL_SPI_TransmitReceive+0x52>
 8004174:	e086      	b.n	8004284 <HAL_SPI_TransmitReceive+0x160>
 8004176:	2f00      	cmp	r7, #0
 8004178:	d100      	bne.n	800417c <HAL_SPI_TransmitReceive+0x58>
 800417a:	e083      	b.n	8004284 <HAL_SPI_TransmitReceive+0x160>
 800417c:	2e00      	cmp	r6, #0
 800417e:	d100      	bne.n	8004182 <HAL_SPI_TransmitReceive+0x5e>
 8004180:	e080      	b.n	8004284 <HAL_SPI_TransmitReceive+0x160>
  if (hspi->State != HAL_SPI_STATE_BUSY_RX)
 8004182:	0023      	movs	r3, r4
 8004184:	335d      	adds	r3, #93	; 0x5d
 8004186:	781a      	ldrb	r2, [r3, #0]
 8004188:	2a04      	cmp	r2, #4
 800418a:	d001      	beq.n	8004190 <HAL_SPI_TransmitReceive+0x6c>
    hspi->State = HAL_SPI_STATE_BUSY_TX_RX;
 800418c:	2205      	movs	r2, #5
 800418e:	701a      	strb	r2, [r3, #0]
  hspi->RxXferCount = Size;
 8004190:	0022      	movs	r2, r4
  hspi->ErrorCode   = HAL_SPI_ERROR_NONE;
 8004192:	2300      	movs	r3, #0
  hspi->RxXferCount = Size;
 8004194:	3208      	adds	r2, #8
  hspi->ErrorCode   = HAL_SPI_ERROR_NONE;
 8004196:	6623      	str	r3, [r4, #96]	; 0x60
  hspi->pRxBuffPtr  = (uint8_t *)pRxData;
 8004198:	6427      	str	r7, [r4, #64]	; 0x40
  hspi->RxXferCount = Size;
 800419a:	87d6      	strh	r6, [r2, #62]	; 0x3e
  hspi->RxXferSize  = Size;
 800419c:	1da2      	adds	r2, r4, #6
 800419e:	87d6      	strh	r6, [r2, #62]	; 0x3e
  if (hspi->Init.DataSize > SPI_DATASIZE_8BIT)
 80041a0:	22e0      	movs	r2, #224	; 0xe0
 80041a2:	68e0      	ldr	r0, [r4, #12]
  hspi->RxISR       = NULL;
 80041a4:	64e3      	str	r3, [r4, #76]	; 0x4c
  hspi->TxISR       = NULL;
 80041a6:	6523      	str	r3, [r4, #80]	; 0x50
  hspi->pTxBuffPtr  = (uint8_t *)pTxData;
 80041a8:	63a5      	str	r5, [r4, #56]	; 0x38
  hspi->TxXferCount = Size;
 80041aa:	6823      	ldr	r3, [r4, #0]
 80041ac:	87e6      	strh	r6, [r4, #62]	; 0x3e
  hspi->TxXferSize  = Size;
 80041ae:	87a6      	strh	r6, [r4, #60]	; 0x3c
  if (hspi->Init.DataSize > SPI_DATASIZE_8BIT)
 80041b0:	00d2      	lsls	r2, r2, #3
 80041b2:	4290      	cmp	r0, r2
 80041b4:	d930      	bls.n	8004218 <HAL_SPI_TransmitReceive+0xf4>
    CLEAR_BIT(hspi->Instance->CR2, SPI_RXFIFO_THRESHOLD);
 80041b6:	685a      	ldr	r2, [r3, #4]
 80041b8:	4f5c      	ldr	r7, [pc, #368]	; (800432c <HAL_SPI_TransmitReceive+0x208>)
 80041ba:	403a      	ands	r2, r7
    SET_BIT(hspi->Instance->CR2, SPI_RXFIFO_THRESHOLD);
 80041bc:	605a      	str	r2, [r3, #4]
  if ((hspi->Instance->CR1 & SPI_CR1_SPE) != SPI_CR1_SPE)
 80041be:	2240      	movs	r2, #64	; 0x40
 80041c0:	681f      	ldr	r7, [r3, #0]
 80041c2:	4217      	tst	r7, r2
 80041c4:	d102      	bne.n	80041cc <HAL_SPI_TransmitReceive+0xa8>
    __HAL_SPI_ENABLE(hspi);
 80041c6:	681f      	ldr	r7, [r3, #0]
 80041c8:	433a      	orrs	r2, r7
 80041ca:	601a      	str	r2, [r3, #0]
  if (hspi->Init.DataSize > SPI_DATASIZE_8BIT)
 80041cc:	22e0      	movs	r2, #224	; 0xe0
 80041ce:	00d2      	lsls	r2, r2, #3
 80041d0:	4290      	cmp	r0, r2
 80041d2:	d95f      	bls.n	8004294 <HAL_SPI_TransmitReceive+0x170>
    if ((hspi->Init.Mode == SPI_MODE_SLAVE) || (initial_TxXferCount == 0x01U))
 80041d4:	2900      	cmp	r1, #0
 80041d6:	d001      	beq.n	80041dc <HAL_SPI_TransmitReceive+0xb8>
 80041d8:	2e01      	cmp	r6, #1
 80041da:	d107      	bne.n	80041ec <HAL_SPI_TransmitReceive+0xc8>
      hspi->Instance->DR = *((uint16_t *)hspi->pTxBuffPtr);
 80041dc:	882a      	ldrh	r2, [r5, #0]
      hspi->pTxBuffPtr += sizeof(uint16_t);
 80041de:	3502      	adds	r5, #2
      hspi->Instance->DR = *((uint16_t *)hspi->pTxBuffPtr);
 80041e0:	60da      	str	r2, [r3, #12]
      hspi->TxXferCount--;
 80041e2:	8fe3      	ldrh	r3, [r4, #62]	; 0x3e
      hspi->pTxBuffPtr += sizeof(uint16_t);
 80041e4:	63a5      	str	r5, [r4, #56]	; 0x38
      hspi->TxXferCount--;
 80041e6:	3b01      	subs	r3, #1
 80041e8:	b29b      	uxth	r3, r3
 80041ea:	87e3      	strh	r3, [r4, #62]	; 0x3e
        txallowed = 1U;
 80041ec:	2501      	movs	r5, #1
      if ((__HAL_SPI_GET_FLAG(hspi, SPI_FLAG_TXE)) && (hspi->TxXferCount > 0U) && (txallowed == 1U))
 80041ee:	2702      	movs	r7, #2
      if ((__HAL_SPI_GET_FLAG(hspi, SPI_FLAG_RXNE)) && (hspi->RxXferCount > 0U))
 80041f0:	002e      	movs	r6, r5
    while ((hspi->TxXferCount > 0U) || (hspi->RxXferCount > 0U))
 80041f2:	8fe3      	ldrh	r3, [r4, #62]	; 0x3e
 80041f4:	2b00      	cmp	r3, #0
 80041f6:	d114      	bne.n	8004222 <HAL_SPI_TransmitReceive+0xfe>
 80041f8:	0023      	movs	r3, r4
 80041fa:	3308      	adds	r3, #8
 80041fc:	8fdb      	ldrh	r3, [r3, #62]	; 0x3e
 80041fe:	2b00      	cmp	r3, #0
 8004200:	d10f      	bne.n	8004222 <HAL_SPI_TransmitReceive+0xfe>
  if (SPI_EndRxTxTransaction(hspi, Timeout, tickstart) != HAL_OK)
 8004202:	0020      	movs	r0, r4
 8004204:	9a01      	ldr	r2, [sp, #4]
 8004206:	9908      	ldr	r1, [sp, #32]
 8004208:	f7ff fe1d 	bl	8003e46 <SPI_EndRxTxTransaction>
 800420c:	2800      	cmp	r0, #0
 800420e:	d039      	beq.n	8004284 <HAL_SPI_TransmitReceive+0x160>
    hspi->ErrorCode = HAL_SPI_ERROR_FLAG;
 8004210:	2320      	movs	r3, #32
    errorcode = HAL_ERROR;
 8004212:	2001      	movs	r0, #1
    hspi->ErrorCode = HAL_SPI_ERROR_FLAG;
 8004214:	6623      	str	r3, [r4, #96]	; 0x60
 8004216:	e035      	b.n	8004284 <HAL_SPI_TransmitReceive+0x160>
    SET_BIT(hspi->Instance->CR2, SPI_RXFIFO_THRESHOLD);
 8004218:	2280      	movs	r2, #128	; 0x80
 800421a:	685f      	ldr	r7, [r3, #4]
 800421c:	0152      	lsls	r2, r2, #5
 800421e:	433a      	orrs	r2, r7
 8004220:	e7cc      	b.n	80041bc <HAL_SPI_TransmitReceive+0x98>
      if ((__HAL_SPI_GET_FLAG(hspi, SPI_FLAG_TXE)) && (hspi->TxXferCount > 0U) && (txallowed == 1U))
 8004222:	6820      	ldr	r0, [r4, #0]
 8004224:	6883      	ldr	r3, [r0, #8]
 8004226:	423b      	tst	r3, r7
 8004228:	d00e      	beq.n	8004248 <HAL_SPI_TransmitReceive+0x124>
 800422a:	8fe3      	ldrh	r3, [r4, #62]	; 0x3e
 800422c:	2b00      	cmp	r3, #0
 800422e:	d00b      	beq.n	8004248 <HAL_SPI_TransmitReceive+0x124>
 8004230:	2d01      	cmp	r5, #1
 8004232:	d109      	bne.n	8004248 <HAL_SPI_TransmitReceive+0x124>
        txallowed = 0U;
 8004234:	2500      	movs	r5, #0
        hspi->Instance->DR = *((uint16_t *)hspi->pTxBuffPtr);
 8004236:	6ba3      	ldr	r3, [r4, #56]	; 0x38
 8004238:	881a      	ldrh	r2, [r3, #0]
        hspi->pTxBuffPtr += sizeof(uint16_t);
 800423a:	3302      	adds	r3, #2
        hspi->Instance->DR = *((uint16_t *)hspi->pTxBuffPtr);
 800423c:	60c2      	str	r2, [r0, #12]
        hspi->pTxBuffPtr += sizeof(uint16_t);
 800423e:	63a3      	str	r3, [r4, #56]	; 0x38
        hspi->TxXferCount--;
 8004240:	8fe3      	ldrh	r3, [r4, #62]	; 0x3e
 8004242:	3b01      	subs	r3, #1
 8004244:	b29b      	uxth	r3, r3
 8004246:	87e3      	strh	r3, [r4, #62]	; 0x3e
      if ((__HAL_SPI_GET_FLAG(hspi, SPI_FLAG_RXNE)) && (hspi->RxXferCount > 0U))
 8004248:	6883      	ldr	r3, [r0, #8]
 800424a:	0019      	movs	r1, r3
 800424c:	4031      	ands	r1, r6
 800424e:	4233      	tst	r3, r6
 8004250:	d00e      	beq.n	8004270 <HAL_SPI_TransmitReceive+0x14c>
 8004252:	0022      	movs	r2, r4
 8004254:	3208      	adds	r2, #8
 8004256:	8fd3      	ldrh	r3, [r2, #62]	; 0x3e
 8004258:	2b00      	cmp	r3, #0
 800425a:	d009      	beq.n	8004270 <HAL_SPI_TransmitReceive+0x14c>
        txallowed = 1U;
 800425c:	000d      	movs	r5, r1
        *((uint16_t *)hspi->pRxBuffPtr) = (uint16_t)hspi->Instance->DR;
 800425e:	68c0      	ldr	r0, [r0, #12]
 8004260:	6c23      	ldr	r3, [r4, #64]	; 0x40
 8004262:	8018      	strh	r0, [r3, #0]
        hspi->pRxBuffPtr += sizeof(uint16_t);
 8004264:	3302      	adds	r3, #2
 8004266:	6423      	str	r3, [r4, #64]	; 0x40
        hspi->RxXferCount--;
 8004268:	8fd3      	ldrh	r3, [r2, #62]	; 0x3e
 800426a:	3b01      	subs	r3, #1
 800426c:	b29b      	uxth	r3, r3
 800426e:	87d3      	strh	r3, [r2, #62]	; 0x3e
      if (((HAL_GetTick() - tickstart) >=  Timeout) && (Timeout != HAL_MAX_DELAY))
 8004270:	f7fd fda8 	bl	8001dc4 <HAL_GetTick>
 8004274:	9b01      	ldr	r3, [sp, #4]
 8004276:	1ac0      	subs	r0, r0, r3
 8004278:	9b08      	ldr	r3, [sp, #32]
 800427a:	4298      	cmp	r0, r3
 800427c:	d3b9      	bcc.n	80041f2 <HAL_SPI_TransmitReceive+0xce>
 800427e:	3301      	adds	r3, #1
 8004280:	d0b7      	beq.n	80041f2 <HAL_SPI_TransmitReceive+0xce>
        errorcode = HAL_TIMEOUT;
 8004282:	2003      	movs	r0, #3
  hspi->State = HAL_SPI_STATE_READY;
 8004284:	0023      	movs	r3, r4
 8004286:	2201      	movs	r2, #1
 8004288:	335d      	adds	r3, #93	; 0x5d
 800428a:	701a      	strb	r2, [r3, #0]
  __HAL_UNLOCK(hspi);
 800428c:	2300      	movs	r3, #0
 800428e:	345c      	adds	r4, #92	; 0x5c
 8004290:	7023      	strb	r3, [r4, #0]
}
 8004292:	bdfe      	pop	{r1, r2, r3, r4, r5, r6, r7, pc}
    if ((hspi->Init.Mode == SPI_MODE_SLAVE) || (initial_TxXferCount == 0x01U))
 8004294:	2900      	cmp	r1, #0
 8004296:	d001      	beq.n	800429c <HAL_SPI_TransmitReceive+0x178>
 8004298:	2e01      	cmp	r6, #1
 800429a:	d108      	bne.n	80042ae <HAL_SPI_TransmitReceive+0x18a>
      *((__IO uint8_t *)&hspi->Instance->DR) = (*hspi->pTxBuffPtr);
 800429c:	782a      	ldrb	r2, [r5, #0]
 800429e:	731a      	strb	r2, [r3, #12]
      hspi->pTxBuffPtr += sizeof(uint8_t);
 80042a0:	6ba3      	ldr	r3, [r4, #56]	; 0x38
 80042a2:	3301      	adds	r3, #1
 80042a4:	63a3      	str	r3, [r4, #56]	; 0x38
      hspi->TxXferCount--;
 80042a6:	8fe3      	ldrh	r3, [r4, #62]	; 0x3e
 80042a8:	3b01      	subs	r3, #1
 80042aa:	b29b      	uxth	r3, r3
 80042ac:	87e3      	strh	r3, [r4, #62]	; 0x3e
        txallowed = 1U;
 80042ae:	2501      	movs	r5, #1
      if ((__HAL_SPI_GET_FLAG(hspi, SPI_FLAG_TXE)) && (hspi->TxXferCount > 0U) && (txallowed == 1U))
 80042b0:	2702      	movs	r7, #2
      if ((__HAL_SPI_GET_FLAG(hspi, SPI_FLAG_RXNE)) && (hspi->RxXferCount > 0U))
 80042b2:	002e      	movs	r6, r5
    while ((hspi->TxXferCount > 0U) || (hspi->RxXferCount > 0U))
 80042b4:	8fe3      	ldrh	r3, [r4, #62]	; 0x3e
 80042b6:	2b00      	cmp	r3, #0
 80042b8:	d104      	bne.n	80042c4 <HAL_SPI_TransmitReceive+0x1a0>
 80042ba:	0023      	movs	r3, r4
 80042bc:	3308      	adds	r3, #8
 80042be:	8fdb      	ldrh	r3, [r3, #62]	; 0x3e
 80042c0:	2b00      	cmp	r3, #0
 80042c2:	d09e      	beq.n	8004202 <HAL_SPI_TransmitReceive+0xde>
      if ((__HAL_SPI_GET_FLAG(hspi, SPI_FLAG_TXE)) && (hspi->TxXferCount > 0U) && (txallowed == 1U))
 80042c4:	6823      	ldr	r3, [r4, #0]
 80042c6:	689a      	ldr	r2, [r3, #8]
 80042c8:	423a      	tst	r2, r7
 80042ca:	d00f      	beq.n	80042ec <HAL_SPI_TransmitReceive+0x1c8>
 80042cc:	8fe2      	ldrh	r2, [r4, #62]	; 0x3e
 80042ce:	2a00      	cmp	r2, #0
 80042d0:	d00c      	beq.n	80042ec <HAL_SPI_TransmitReceive+0x1c8>
 80042d2:	2d01      	cmp	r5, #1
 80042d4:	d10a      	bne.n	80042ec <HAL_SPI_TransmitReceive+0x1c8>
        txallowed = 0U;
 80042d6:	2500      	movs	r5, #0
        *(__IO uint8_t *)&hspi->Instance->DR = (*hspi->pTxBuffPtr);
 80042d8:	6ba2      	ldr	r2, [r4, #56]	; 0x38
 80042da:	7812      	ldrb	r2, [r2, #0]
 80042dc:	731a      	strb	r2, [r3, #12]
        hspi->pTxBuffPtr++;
 80042de:	6ba3      	ldr	r3, [r4, #56]	; 0x38
 80042e0:	3301      	adds	r3, #1
 80042e2:	63a3      	str	r3, [r4, #56]	; 0x38
        hspi->TxXferCount--;
 80042e4:	8fe3      	ldrh	r3, [r4, #62]	; 0x3e
 80042e6:	3b01      	subs	r3, #1
 80042e8:	b29b      	uxth	r3, r3
 80042ea:	87e3      	strh	r3, [r4, #62]	; 0x3e
      if ((__HAL_SPI_GET_FLAG(hspi, SPI_FLAG_RXNE)) && (hspi->RxXferCount > 0U))
 80042ec:	6823      	ldr	r3, [r4, #0]
 80042ee:	689a      	ldr	r2, [r3, #8]
 80042f0:	0011      	movs	r1, r2
 80042f2:	4031      	ands	r1, r6
 80042f4:	4232      	tst	r2, r6
 80042f6:	d00f      	beq.n	8004318 <HAL_SPI_TransmitReceive+0x1f4>
 80042f8:	0022      	movs	r2, r4
 80042fa:	3208      	adds	r2, #8
 80042fc:	8fd0      	ldrh	r0, [r2, #62]	; 0x3e
 80042fe:	2800      	cmp	r0, #0
 8004300:	d00a      	beq.n	8004318 <HAL_SPI_TransmitReceive+0x1f4>
        txallowed = 1U;
 8004302:	000d      	movs	r5, r1
        (*(uint8_t *)hspi->pRxBuffPtr) = *(__IO uint8_t *)&hspi->Instance->DR;
 8004304:	7b1b      	ldrb	r3, [r3, #12]
 8004306:	6c20      	ldr	r0, [r4, #64]	; 0x40
 8004308:	7003      	strb	r3, [r0, #0]
        hspi->pRxBuffPtr++;
 800430a:	6c23      	ldr	r3, [r4, #64]	; 0x40
 800430c:	3301      	adds	r3, #1
 800430e:	6423      	str	r3, [r4, #64]	; 0x40
        hspi->RxXferCount--;
 8004310:	8fd3      	ldrh	r3, [r2, #62]	; 0x3e
 8004312:	3b01      	subs	r3, #1
 8004314:	b29b      	uxth	r3, r3
 8004316:	87d3      	strh	r3, [r2, #62]	; 0x3e
      if ((((HAL_GetTick() - tickstart) >=  Timeout) && ((Timeout != HAL_MAX_DELAY))) || (Timeout == 0U))
 8004318:	f7fd fd54 	bl	8001dc4 <HAL_GetTick>
 800431c:	9b01      	ldr	r3, [sp, #4]
 800431e:	1ac0      	subs	r0, r0, r3
 8004320:	9b08      	ldr	r3, [sp, #32]
 8004322:	4298      	cmp	r0, r3
 8004324:	d3c6      	bcc.n	80042b4 <HAL_SPI_TransmitReceive+0x190>
 8004326:	3301      	adds	r3, #1
 8004328:	d0c4      	beq.n	80042b4 <HAL_SPI_TransmitReceive+0x190>
 800432a:	e7aa      	b.n	8004282 <HAL_SPI_TransmitReceive+0x15e>
 800432c:	ffffefff 	.word	0xffffefff

08004330 <HAL_SPI_Receive>:
{
 8004330:	b5f0      	push	{r4, r5, r6, r7, lr}
 8004332:	001d      	movs	r5, r3
  if ((hspi->Init.Mode == SPI_MODE_MASTER) && (hspi->Init.Direction == SPI_DIRECTION_2LINES))
 8004334:	2382      	movs	r3, #130	; 0x82
{
 8004336:	0016      	movs	r6, r2
  if ((hspi->Init.Mode == SPI_MODE_MASTER) && (hspi->Init.Direction == SPI_DIRECTION_2LINES))
 8004338:	6842      	ldr	r2, [r0, #4]
{
 800433a:	0004      	movs	r4, r0
 800433c:	000f      	movs	r7, r1
 800433e:	b087      	sub	sp, #28
  if ((hspi->Init.Mode == SPI_MODE_MASTER) && (hspi->Init.Direction == SPI_DIRECTION_2LINES))
 8004340:	005b      	lsls	r3, r3, #1
 8004342:	429a      	cmp	r2, r3
 8004344:	d10d      	bne.n	8004362 <HAL_SPI_Receive+0x32>
 8004346:	6883      	ldr	r3, [r0, #8]
 8004348:	2b00      	cmp	r3, #0
 800434a:	d10a      	bne.n	8004362 <HAL_SPI_Receive+0x32>
    hspi->State = HAL_SPI_STATE_BUSY_RX;
 800434c:	0003      	movs	r3, r0
 800434e:	2204      	movs	r2, #4
 8004350:	335d      	adds	r3, #93	; 0x5d
 8004352:	701a      	strb	r2, [r3, #0]
    return HAL_SPI_TransmitReceive(hspi, pData, pData, Size, Timeout);
 8004354:	0033      	movs	r3, r6
 8004356:	000a      	movs	r2, r1
 8004358:	9500      	str	r5, [sp, #0]
 800435a:	f7ff fee3 	bl	8004124 <HAL_SPI_TransmitReceive>
}
 800435e:	b007      	add	sp, #28
 8004360:	bdf0      	pop	{r4, r5, r6, r7, pc}
  __HAL_LOCK(hspi);
 8004362:	0023      	movs	r3, r4
 8004364:	335c      	adds	r3, #92	; 0x5c
 8004366:	9304      	str	r3, [sp, #16]
 8004368:	781b      	ldrb	r3, [r3, #0]
 800436a:	2002      	movs	r0, #2
 800436c:	2b01      	cmp	r3, #1
 800436e:	d0f6      	beq.n	800435e <HAL_SPI_Receive+0x2e>
 8004370:	2301      	movs	r3, #1
 8004372:	9a04      	ldr	r2, [sp, #16]
 8004374:	7013      	strb	r3, [r2, #0]
  tickstart = HAL_GetTick();
 8004376:	f7fd fd25 	bl	8001dc4 <HAL_GetTick>
  if (hspi->State != HAL_SPI_STATE_READY)
 800437a:	0023      	movs	r3, r4
 800437c:	335d      	adds	r3, #93	; 0x5d
  tickstart = HAL_GetTick();
 800437e:	9003      	str	r0, [sp, #12]
  if (hspi->State != HAL_SPI_STATE_READY)
 8004380:	9305      	str	r3, [sp, #20]
 8004382:	781b      	ldrb	r3, [r3, #0]
 8004384:	b2d8      	uxtb	r0, r3
 8004386:	2b01      	cmp	r3, #1
 8004388:	d000      	beq.n	800438c <HAL_SPI_Receive+0x5c>
 800438a:	e087      	b.n	800449c <HAL_SPI_Receive+0x16c>
  if ((pData == NULL) || (Size == 0U))
 800438c:	2f00      	cmp	r7, #0
 800438e:	d061      	beq.n	8004454 <HAL_SPI_Receive+0x124>
 8004390:	2e00      	cmp	r6, #0
 8004392:	d05f      	beq.n	8004454 <HAL_SPI_Receive+0x124>
  hspi->State       = HAL_SPI_STATE_BUSY_RX;
 8004394:	9a05      	ldr	r2, [sp, #20]
 8004396:	3303      	adds	r3, #3
 8004398:	7013      	strb	r3, [r2, #0]
  hspi->ErrorCode   = HAL_SPI_ERROR_NONE;
 800439a:	2300      	movs	r3, #0
  hspi->RxXferSize  = Size;
 800439c:	1da2      	adds	r2, r4, #6
  hspi->ErrorCode   = HAL_SPI_ERROR_NONE;
 800439e:	6623      	str	r3, [r4, #96]	; 0x60
  hspi->pRxBuffPtr  = (uint8_t *)pData;
 80043a0:	6427      	str	r7, [r4, #64]	; 0x40
  hspi->RxXferCount = Size;
 80043a2:	3202      	adds	r2, #2
  hspi->RxXferSize  = Size;
 80043a4:	8796      	strh	r6, [r2, #60]	; 0x3c
  hspi->RxXferCount = Size;
 80043a6:	87d6      	strh	r6, [r2, #62]	; 0x3e
  if (hspi->Init.DataSize > SPI_DATASIZE_8BIT)
 80043a8:	22e0      	movs	r2, #224	; 0xe0
 80043aa:	68e1      	ldr	r1, [r4, #12]
  hspi->pTxBuffPtr  = (uint8_t *)NULL;
 80043ac:	63a3      	str	r3, [r4, #56]	; 0x38
  hspi->TxXferSize  = 0U;
 80043ae:	87a3      	strh	r3, [r4, #60]	; 0x3c
  hspi->TxXferCount = 0U;
 80043b0:	87e3      	strh	r3, [r4, #62]	; 0x3e
  hspi->RxISR       = NULL;
 80043b2:	64e3      	str	r3, [r4, #76]	; 0x4c
  hspi->TxISR       = NULL;
 80043b4:	6523      	str	r3, [r4, #80]	; 0x50
  if (hspi->Init.DataSize > SPI_DATASIZE_8BIT)
 80043b6:	00d2      	lsls	r2, r2, #3
 80043b8:	6823      	ldr	r3, [r4, #0]
 80043ba:	4291      	cmp	r1, r2
 80043bc:	d92d      	bls.n	800441a <HAL_SPI_Receive+0xea>
    CLEAR_BIT(hspi->Instance->CR2, SPI_RXFIFO_THRESHOLD);
 80043be:	685a      	ldr	r2, [r3, #4]
 80043c0:	4837      	ldr	r0, [pc, #220]	; (80044a0 <HAL_SPI_Receive+0x170>)
 80043c2:	4002      	ands	r2, r0
    SET_BIT(hspi->Instance->CR2, SPI_RXFIFO_THRESHOLD);
 80043c4:	605a      	str	r2, [r3, #4]
  if (hspi->Init.Direction == SPI_DIRECTION_1LINE)
 80043c6:	2280      	movs	r2, #128	; 0x80
 80043c8:	68a0      	ldr	r0, [r4, #8]
 80043ca:	0212      	lsls	r2, r2, #8
 80043cc:	4290      	cmp	r0, r2
 80043ce:	d107      	bne.n	80043e0 <HAL_SPI_Receive+0xb0>
    __HAL_SPI_DISABLE(hspi);
 80043d0:	2040      	movs	r0, #64	; 0x40
 80043d2:	681a      	ldr	r2, [r3, #0]
 80043d4:	4382      	bics	r2, r0
 80043d6:	601a      	str	r2, [r3, #0]
    SPI_1LINE_RX(hspi);
 80043d8:	681a      	ldr	r2, [r3, #0]
 80043da:	4832      	ldr	r0, [pc, #200]	; (80044a4 <HAL_SPI_Receive+0x174>)
 80043dc:	4002      	ands	r2, r0
 80043de:	601a      	str	r2, [r3, #0]
  if ((hspi->Instance->CR1 & SPI_CR1_SPE) != SPI_CR1_SPE)
 80043e0:	2240      	movs	r2, #64	; 0x40
 80043e2:	6818      	ldr	r0, [r3, #0]
 80043e4:	4210      	tst	r0, r2
 80043e6:	d102      	bne.n	80043ee <HAL_SPI_Receive+0xbe>
    __HAL_SPI_ENABLE(hspi);
 80043e8:	6818      	ldr	r0, [r3, #0]
 80043ea:	4302      	orrs	r2, r0
 80043ec:	601a      	str	r2, [r3, #0]
  if (hspi->Init.DataSize <= SPI_DATASIZE_8BIT)
 80043ee:	23e0      	movs	r3, #224	; 0xe0
 80043f0:	0026      	movs	r6, r4
      if (__HAL_SPI_GET_FLAG(hspi, SPI_FLAG_RXNE))
 80043f2:	2701      	movs	r7, #1
  if (hspi->Init.DataSize <= SPI_DATASIZE_8BIT)
 80043f4:	00db      	lsls	r3, r3, #3
 80043f6:	3608      	adds	r6, #8
 80043f8:	4299      	cmp	r1, r3
 80043fa:	d83f      	bhi.n	800447c <HAL_SPI_Receive+0x14c>
    while (hspi->RxXferCount > 0U)
 80043fc:	8ff3      	ldrh	r3, [r6, #62]	; 0x3e
 80043fe:	2b00      	cmp	r3, #0
 8004400:	d110      	bne.n	8004424 <HAL_SPI_Receive+0xf4>
  if (SPI_EndRxTransaction(hspi, Timeout, tickstart) != HAL_OK)
 8004402:	0029      	movs	r1, r5
 8004404:	0020      	movs	r0, r4
 8004406:	9a03      	ldr	r2, [sp, #12]
 8004408:	f7ff fce0 	bl	8003dcc <SPI_EndRxTransaction>
 800440c:	2800      	cmp	r0, #0
 800440e:	d142      	bne.n	8004496 <HAL_SPI_Receive+0x166>
  if (hspi->ErrorCode != HAL_SPI_ERROR_NONE)
 8004410:	6e20      	ldr	r0, [r4, #96]	; 0x60
 8004412:	1e43      	subs	r3, r0, #1
 8004414:	4198      	sbcs	r0, r3
    errorcode = HAL_BUSY;
 8004416:	b2c0      	uxtb	r0, r0
error :
 8004418:	e01c      	b.n	8004454 <HAL_SPI_Receive+0x124>
    SET_BIT(hspi->Instance->CR2, SPI_RXFIFO_THRESHOLD);
 800441a:	2280      	movs	r2, #128	; 0x80
 800441c:	6858      	ldr	r0, [r3, #4]
 800441e:	0152      	lsls	r2, r2, #5
 8004420:	4302      	orrs	r2, r0
 8004422:	e7cf      	b.n	80043c4 <HAL_SPI_Receive+0x94>
      if (__HAL_SPI_GET_FLAG(hspi, SPI_FLAG_RXNE))
 8004424:	6823      	ldr	r3, [r4, #0]
 8004426:	689a      	ldr	r2, [r3, #8]
 8004428:	423a      	tst	r2, r7
 800442a:	d00a      	beq.n	8004442 <HAL_SPI_Receive+0x112>
        (* (uint8_t *)hspi->pRxBuffPtr) = *(__IO uint8_t *)&hspi->Instance->DR;
 800442c:	7b1b      	ldrb	r3, [r3, #12]
 800442e:	6c22      	ldr	r2, [r4, #64]	; 0x40
 8004430:	7013      	strb	r3, [r2, #0]
        hspi->pRxBuffPtr += sizeof(uint8_t);
 8004432:	6c23      	ldr	r3, [r4, #64]	; 0x40
 8004434:	3301      	adds	r3, #1
 8004436:	6423      	str	r3, [r4, #64]	; 0x40
        hspi->RxXferCount--;
 8004438:	8ff3      	ldrh	r3, [r6, #62]	; 0x3e
 800443a:	3b01      	subs	r3, #1
 800443c:	b29b      	uxth	r3, r3
 800443e:	87f3      	strh	r3, [r6, #62]	; 0x3e
 8004440:	e7dc      	b.n	80043fc <HAL_SPI_Receive+0xcc>
        if ((((HAL_GetTick() - tickstart) >=  Timeout) && (Timeout != HAL_MAX_DELAY)) || (Timeout == 0U))
 8004442:	f7fd fcbf 	bl	8001dc4 <HAL_GetTick>
 8004446:	9b03      	ldr	r3, [sp, #12]
 8004448:	1ac0      	subs	r0, r0, r3
 800444a:	42a8      	cmp	r0, r5
 800444c:	d3d6      	bcc.n	80043fc <HAL_SPI_Receive+0xcc>
 800444e:	1c6b      	adds	r3, r5, #1
 8004450:	d0d4      	beq.n	80043fc <HAL_SPI_Receive+0xcc>
          errorcode = HAL_TIMEOUT;
 8004452:	2003      	movs	r0, #3
  hspi->State = HAL_SPI_STATE_READY;
 8004454:	2301      	movs	r3, #1
 8004456:	9a05      	ldr	r2, [sp, #20]
 8004458:	7013      	strb	r3, [r2, #0]
  __HAL_UNLOCK(hspi);
 800445a:	2300      	movs	r3, #0
 800445c:	9a04      	ldr	r2, [sp, #16]
 800445e:	7013      	strb	r3, [r2, #0]
  return errorcode;
 8004460:	e77d      	b.n	800435e <HAL_SPI_Receive+0x2e>
      if (__HAL_SPI_GET_FLAG(hspi, SPI_FLAG_RXNE))
 8004462:	6823      	ldr	r3, [r4, #0]
 8004464:	689a      	ldr	r2, [r3, #8]
 8004466:	423a      	tst	r2, r7
 8004468:	d00c      	beq.n	8004484 <HAL_SPI_Receive+0x154>
        *((uint16_t *)hspi->pRxBuffPtr) = (uint16_t)hspi->Instance->DR;
 800446a:	68da      	ldr	r2, [r3, #12]
 800446c:	6c23      	ldr	r3, [r4, #64]	; 0x40
 800446e:	801a      	strh	r2, [r3, #0]
        hspi->pRxBuffPtr += sizeof(uint16_t);
 8004470:	3302      	adds	r3, #2
 8004472:	6423      	str	r3, [r4, #64]	; 0x40
        hspi->RxXferCount--;
 8004474:	8ff3      	ldrh	r3, [r6, #62]	; 0x3e
 8004476:	3b01      	subs	r3, #1
 8004478:	b29b      	uxth	r3, r3
 800447a:	87f3      	strh	r3, [r6, #62]	; 0x3e
    while (hspi->RxXferCount > 0U)
 800447c:	8ff3      	ldrh	r3, [r6, #62]	; 0x3e
 800447e:	2b00      	cmp	r3, #0
 8004480:	d1ef      	bne.n	8004462 <HAL_SPI_Receive+0x132>
 8004482:	e7be      	b.n	8004402 <HAL_SPI_Receive+0xd2>
        if ((((HAL_GetTick() - tickstart) >=  Timeout) && (Timeout != HAL_MAX_DELAY)) || (Timeout == 0U))
 8004484:	f7fd fc9e 	bl	8001dc4 <HAL_GetTick>
 8004488:	9b03      	ldr	r3, [sp, #12]
 800448a:	1ac0      	subs	r0, r0, r3
 800448c:	42a8      	cmp	r0, r5
 800448e:	d3f5      	bcc.n	800447c <HAL_SPI_Receive+0x14c>
 8004490:	1c6b      	adds	r3, r5, #1
 8004492:	d0f3      	beq.n	800447c <HAL_SPI_Receive+0x14c>
 8004494:	e7dd      	b.n	8004452 <HAL_SPI_Receive+0x122>
    hspi->ErrorCode = HAL_SPI_ERROR_FLAG;
 8004496:	2320      	movs	r3, #32
 8004498:	6623      	str	r3, [r4, #96]	; 0x60
 800449a:	e7b9      	b.n	8004410 <HAL_SPI_Receive+0xe0>
    errorcode = HAL_BUSY;
 800449c:	2002      	movs	r0, #2
 800449e:	e7d9      	b.n	8004454 <HAL_SPI_Receive+0x124>
 80044a0:	ffffefff 	.word	0xffffefff
 80044a4:	ffffbfff 	.word	0xffffbfff

080044a8 <HAL_SPI_ErrorCallback>:
 80044a8:	4770      	bx	lr
	...

080044ac <HAL_SPI_IRQHandler>:
  uint32_t itsource = hspi->Instance->CR2;
 80044ac:	6803      	ldr	r3, [r0, #0]
{
 80044ae:	b5f0      	push	{r4, r5, r6, r7, lr}
 80044b0:	0004      	movs	r4, r0
  uint32_t itsource = hspi->Instance->CR2;
 80044b2:	6858      	ldr	r0, [r3, #4]
  uint32_t itflag   = hspi->Instance->SR;
 80044b4:	689a      	ldr	r2, [r3, #8]
  if ((SPI_CHECK_FLAG(itflag, SPI_FLAG_OVR) == RESET) &&
 80044b6:	2501      	movs	r5, #1
 80044b8:	0991      	lsrs	r1, r2, #6
 80044ba:	000f      	movs	r7, r1
{
 80044bc:	b085      	sub	sp, #20
  if ((SPI_CHECK_FLAG(itflag, SPI_FLAG_OVR) == RESET) &&
 80044be:	402f      	ands	r7, r5
 80044c0:	4229      	tst	r1, r5
 80044c2:	d109      	bne.n	80044d8 <HAL_SPI_IRQHandler+0x2c>
 80044c4:	422a      	tst	r2, r5
 80044c6:	d007      	beq.n	80044d8 <HAL_SPI_IRQHandler+0x2c>
      (SPI_CHECK_FLAG(itflag, SPI_FLAG_RXNE) != RESET) && (SPI_CHECK_IT_SOURCE(itsource, SPI_IT_RXNE) != RESET))
 80044c8:	0986      	lsrs	r6, r0, #6
 80044ca:	422e      	tst	r6, r5
 80044cc:	d004      	beq.n	80044d8 <HAL_SPI_IRQHandler+0x2c>
    hspi->RxISR(hspi);
 80044ce:	6ce3      	ldr	r3, [r4, #76]	; 0x4c
    hspi->TxISR(hspi);
 80044d0:	0020      	movs	r0, r4
 80044d2:	4798      	blx	r3
}
 80044d4:	b005      	add	sp, #20
 80044d6:	bdf0      	pop	{r4, r5, r6, r7, pc}
  if ((SPI_CHECK_FLAG(itflag, SPI_FLAG_TXE) != RESET) && (SPI_CHECK_IT_SOURCE(itsource, SPI_IT_TXE) != RESET))
 80044d8:	2501      	movs	r5, #1
 80044da:	0796      	lsls	r6, r2, #30
 80044dc:	d504      	bpl.n	80044e8 <HAL_SPI_IRQHandler+0x3c>
 80044de:	09c6      	lsrs	r6, r0, #7
 80044e0:	422e      	tst	r6, r5
 80044e2:	d001      	beq.n	80044e8 <HAL_SPI_IRQHandler+0x3c>
    hspi->TxISR(hspi);
 80044e4:	6d23      	ldr	r3, [r4, #80]	; 0x50
 80044e6:	e7f3      	b.n	80044d0 <HAL_SPI_IRQHandler+0x24>
       || (SPI_CHECK_FLAG(itflag, SPI_FLAG_FRE) != RESET)) && (SPI_CHECK_IT_SOURCE(itsource, SPI_IT_ERR) != RESET))
 80044e8:	2501      	movs	r5, #1
  if (((SPI_CHECK_FLAG(itflag, SPI_FLAG_MODF) != RESET) || (SPI_CHECK_FLAG(itflag, SPI_FLAG_OVR) != RESET)
 80044ea:	0956      	lsrs	r6, r2, #5
       || (SPI_CHECK_FLAG(itflag, SPI_FLAG_FRE) != RESET)) && (SPI_CHECK_IT_SOURCE(itsource, SPI_IT_ERR) != RESET))
 80044ec:	4331      	orrs	r1, r6
 80044ee:	0a12      	lsrs	r2, r2, #8
 80044f0:	402a      	ands	r2, r5
 80044f2:	4029      	ands	r1, r5
 80044f4:	4311      	orrs	r1, r2
 80044f6:	d0ed      	beq.n	80044d4 <HAL_SPI_IRQHandler+0x28>
 80044f8:	0941      	lsrs	r1, r0, #5
 80044fa:	4229      	tst	r1, r5
 80044fc:	d0ea      	beq.n	80044d4 <HAL_SPI_IRQHandler+0x28>
    if (SPI_CHECK_FLAG(itflag, SPI_FLAG_OVR) != RESET)
 80044fe:	2f00      	cmp	r7, #0
 8004500:	d00f      	beq.n	8004522 <HAL_SPI_IRQHandler+0x76>
      if (hspi->State != HAL_SPI_STATE_BUSY_TX)
 8004502:	0021      	movs	r1, r4
 8004504:	315d      	adds	r1, #93	; 0x5d
 8004506:	7809      	ldrb	r1, [r1, #0]
 8004508:	2903      	cmp	r1, #3
 800450a:	d050      	beq.n	80045ae <HAL_SPI_IRQHandler+0x102>
        SET_BIT(hspi->ErrorCode, HAL_SPI_ERROR_OVR);
 800450c:	2104      	movs	r1, #4
 800450e:	6e25      	ldr	r5, [r4, #96]	; 0x60
 8004510:	4329      	orrs	r1, r5
 8004512:	6621      	str	r1, [r4, #96]	; 0x60
        __HAL_SPI_CLEAR_OVRFLAG(hspi);
 8004514:	2100      	movs	r1, #0
 8004516:	9100      	str	r1, [sp, #0]
 8004518:	68d9      	ldr	r1, [r3, #12]
 800451a:	9100      	str	r1, [sp, #0]
 800451c:	6899      	ldr	r1, [r3, #8]
 800451e:	9100      	str	r1, [sp, #0]
 8004520:	9900      	ldr	r1, [sp, #0]
  if (((SPI_CHECK_FLAG(itflag, SPI_FLAG_MODF) != RESET) || (SPI_CHECK_FLAG(itflag, SPI_FLAG_OVR) != RESET)
 8004522:	2101      	movs	r1, #1
    if (SPI_CHECK_FLAG(itflag, SPI_FLAG_MODF) != RESET)
 8004524:	420e      	tst	r6, r1
 8004526:	d00b      	beq.n	8004540 <HAL_SPI_IRQHandler+0x94>
      SET_BIT(hspi->ErrorCode, HAL_SPI_ERROR_MODF);
 8004528:	6e25      	ldr	r5, [r4, #96]	; 0x60
 800452a:	4329      	orrs	r1, r5
 800452c:	6621      	str	r1, [r4, #96]	; 0x60
      __HAL_SPI_CLEAR_MODFFLAG(hspi);
 800452e:	2100      	movs	r1, #0
 8004530:	2540      	movs	r5, #64	; 0x40
 8004532:	9102      	str	r1, [sp, #8]
 8004534:	6899      	ldr	r1, [r3, #8]
 8004536:	9102      	str	r1, [sp, #8]
 8004538:	6819      	ldr	r1, [r3, #0]
 800453a:	43a9      	bics	r1, r5
 800453c:	6019      	str	r1, [r3, #0]
 800453e:	9902      	ldr	r1, [sp, #8]
    if (SPI_CHECK_FLAG(itflag, SPI_FLAG_FRE) != RESET)
 8004540:	2a00      	cmp	r2, #0
 8004542:	d008      	beq.n	8004556 <HAL_SPI_IRQHandler+0xaa>
      SET_BIT(hspi->ErrorCode, HAL_SPI_ERROR_FRE);
 8004544:	2208      	movs	r2, #8
 8004546:	6e21      	ldr	r1, [r4, #96]	; 0x60
 8004548:	430a      	orrs	r2, r1
 800454a:	6622      	str	r2, [r4, #96]	; 0x60
      __HAL_SPI_CLEAR_FREFLAG(hspi);
 800454c:	2200      	movs	r2, #0
 800454e:	9203      	str	r2, [sp, #12]
 8004550:	689a      	ldr	r2, [r3, #8]
 8004552:	9203      	str	r2, [sp, #12]
 8004554:	9a03      	ldr	r2, [sp, #12]
    if (hspi->ErrorCode != HAL_SPI_ERROR_NONE)
 8004556:	6e22      	ldr	r2, [r4, #96]	; 0x60
 8004558:	2a00      	cmp	r2, #0
 800455a:	d0bb      	beq.n	80044d4 <HAL_SPI_IRQHandler+0x28>
      __HAL_SPI_DISABLE_IT(hspi, SPI_IT_RXNE | SPI_IT_TXE | SPI_IT_ERR);
 800455c:	21e0      	movs	r1, #224	; 0xe0
 800455e:	685a      	ldr	r2, [r3, #4]
 8004560:	438a      	bics	r2, r1
 8004562:	605a      	str	r2, [r3, #4]
      hspi->State = HAL_SPI_STATE_READY;
 8004564:	0022      	movs	r2, r4
 8004566:	39df      	subs	r1, #223	; 0xdf
 8004568:	325d      	adds	r2, #93	; 0x5d
 800456a:	7011      	strb	r1, [r2, #0]
      if ((HAL_IS_BIT_SET(itsource, SPI_CR2_TXDMAEN)) || (HAL_IS_BIT_SET(itsource, SPI_CR2_RXDMAEN)))
 800456c:	3102      	adds	r1, #2
 800456e:	4208      	tst	r0, r1
 8004570:	d025      	beq.n	80045be <HAL_SPI_IRQHandler+0x112>
        CLEAR_BIT(hspi->Instance->CR2, (SPI_CR2_TXDMAEN | SPI_CR2_RXDMAEN));
 8004572:	685a      	ldr	r2, [r3, #4]
        if (hspi->hdmarx != NULL)
 8004574:	6da0      	ldr	r0, [r4, #88]	; 0x58
        CLEAR_BIT(hspi->Instance->CR2, (SPI_CR2_TXDMAEN | SPI_CR2_RXDMAEN));
 8004576:	438a      	bics	r2, r1
 8004578:	605a      	str	r2, [r3, #4]
        if (hspi->hdmarx != NULL)
 800457a:	2800      	cmp	r0, #0
 800457c:	d009      	beq.n	8004592 <HAL_SPI_IRQHandler+0xe6>
          hspi->hdmarx->XferAbortCallback = SPI_DMAAbortOnError;
 800457e:	4b12      	ldr	r3, [pc, #72]	; (80045c8 <HAL_SPI_IRQHandler+0x11c>)
 8004580:	6343      	str	r3, [r0, #52]	; 0x34
          if (HAL_OK != HAL_DMA_Abort_IT(hspi->hdmarx))
 8004582:	f7fd fda9 	bl	80020d8 <HAL_DMA_Abort_IT>
 8004586:	2800      	cmp	r0, #0
 8004588:	d003      	beq.n	8004592 <HAL_SPI_IRQHandler+0xe6>
            SET_BIT(hspi->ErrorCode, HAL_SPI_ERROR_ABORT);
 800458a:	2340      	movs	r3, #64	; 0x40
 800458c:	6e22      	ldr	r2, [r4, #96]	; 0x60
 800458e:	4313      	orrs	r3, r2
 8004590:	6623      	str	r3, [r4, #96]	; 0x60
        if (hspi->hdmatx != NULL)
 8004592:	6d60      	ldr	r0, [r4, #84]	; 0x54
 8004594:	2800      	cmp	r0, #0
 8004596:	d09d      	beq.n	80044d4 <HAL_SPI_IRQHandler+0x28>
          hspi->hdmatx->XferAbortCallback = SPI_DMAAbortOnError;
 8004598:	4b0b      	ldr	r3, [pc, #44]	; (80045c8 <HAL_SPI_IRQHandler+0x11c>)
 800459a:	6343      	str	r3, [r0, #52]	; 0x34
          if (HAL_OK != HAL_DMA_Abort_IT(hspi->hdmatx))
 800459c:	f7fd fd9c 	bl	80020d8 <HAL_DMA_Abort_IT>
 80045a0:	2800      	cmp	r0, #0
 80045a2:	d097      	beq.n	80044d4 <HAL_SPI_IRQHandler+0x28>
            SET_BIT(hspi->ErrorCode, HAL_SPI_ERROR_ABORT);
 80045a4:	2340      	movs	r3, #64	; 0x40
 80045a6:	6e22      	ldr	r2, [r4, #96]	; 0x60
 80045a8:	4313      	orrs	r3, r2
 80045aa:	6623      	str	r3, [r4, #96]	; 0x60
 80045ac:	e792      	b.n	80044d4 <HAL_SPI_IRQHandler+0x28>
        __HAL_SPI_CLEAR_OVRFLAG(hspi);
 80045ae:	2200      	movs	r2, #0
 80045b0:	9201      	str	r2, [sp, #4]
 80045b2:	68da      	ldr	r2, [r3, #12]
 80045b4:	9201      	str	r2, [sp, #4]
 80045b6:	689b      	ldr	r3, [r3, #8]
 80045b8:	9301      	str	r3, [sp, #4]
 80045ba:	9b01      	ldr	r3, [sp, #4]
        return;
 80045bc:	e78a      	b.n	80044d4 <HAL_SPI_IRQHandler+0x28>
        HAL_SPI_ErrorCallback(hspi);
 80045be:	0020      	movs	r0, r4
 80045c0:	f7ff ff72 	bl	80044a8 <HAL_SPI_ErrorCallback>
 80045c4:	e786      	b.n	80044d4 <HAL_SPI_IRQHandler+0x28>
 80045c6:	46c0      	nop			; (mov r8, r8)
 80045c8:	080045cd 	.word	0x080045cd

080045cc <SPI_DMAAbortOnError>:
  SPI_HandleTypeDef *hspi = (SPI_HandleTypeDef *)(((DMA_HandleTypeDef *)hdma)->Parent); /* Derogation MISRAC2012-Rule-11.5 */
 80045cc:	6a40      	ldr	r0, [r0, #36]	; 0x24
  hspi->RxXferCount = 0U;
 80045ce:	2300      	movs	r3, #0
 80045d0:	0002      	movs	r2, r0
{
 80045d2:	b510      	push	{r4, lr}
  hspi->RxXferCount = 0U;
 80045d4:	3208      	adds	r2, #8
 80045d6:	87d3      	strh	r3, [r2, #62]	; 0x3e
  hspi->TxXferCount = 0U;
 80045d8:	87c3      	strh	r3, [r0, #62]	; 0x3e
  HAL_SPI_ErrorCallback(hspi);
 80045da:	f7ff ff65 	bl	80044a8 <HAL_SPI_ErrorCallback>
}
 80045de:	bd10      	pop	{r4, pc}

080045e0 <HAL_TIM_Base_MspInit>:
  UNUSED(htim);

  /* NOTE : This function should not be modified, when the callback is needed,
            the HAL_TIM_Base_MspInit could be implemented in the user file
   */
}
 80045e0:	4770      	bx	lr
	...

080045e4 <HAL_TIM_Base_Start_IT>:

  /* Check the parameters */
  assert_param(IS_TIM_INSTANCE(htim->Instance));

  /* Check the TIM state */
  if (htim->State != HAL_TIM_STATE_READY)
 80045e4:	0002      	movs	r2, r0
{
 80045e6:	0003      	movs	r3, r0
  {
    return HAL_ERROR;
 80045e8:	2001      	movs	r0, #1
  if (htim->State != HAL_TIM_STATE_READY)
 80045ea:	323d      	adds	r2, #61	; 0x3d
 80045ec:	7811      	ldrb	r1, [r2, #0]
 80045ee:	4281      	cmp	r1, r0
 80045f0:	d119      	bne.n	8004626 <HAL_TIM_Base_Start_IT+0x42>
  }

  /* Set the TIM state */
  htim->State = HAL_TIM_STATE_BUSY;
 80045f2:	2102      	movs	r1, #2
 80045f4:	7011      	strb	r1, [r2, #0]

  /* Enable the TIM Update interrupt */
  __HAL_TIM_ENABLE_IT(htim, TIM_IT_UPDATE);
 80045f6:	681b      	ldr	r3, [r3, #0]
 80045f8:	68da      	ldr	r2, [r3, #12]
 80045fa:	4302      	orrs	r2, r0
 80045fc:	60da      	str	r2, [r3, #12]

  /* Enable the Peripheral, except in trigger mode where enable is automatically done with trigger */
  if (IS_TIM_SLAVE_INSTANCE(htim->Instance))
 80045fe:	4a0d      	ldr	r2, [pc, #52]	; (8004634 <HAL_TIM_Base_Start_IT+0x50>)
 8004600:	4293      	cmp	r3, r2
 8004602:	d006      	beq.n	8004612 <HAL_TIM_Base_Start_IT+0x2e>
 8004604:	2280      	movs	r2, #128	; 0x80
 8004606:	05d2      	lsls	r2, r2, #23
 8004608:	4293      	cmp	r3, r2
 800460a:	d002      	beq.n	8004612 <HAL_TIM_Base_Start_IT+0x2e>
 800460c:	4a0a      	ldr	r2, [pc, #40]	; (8004638 <HAL_TIM_Base_Start_IT+0x54>)
 800460e:	4293      	cmp	r3, r2
 8004610:	d10a      	bne.n	8004628 <HAL_TIM_Base_Start_IT+0x44>
  {
    tmpsmcr = htim->Instance->SMCR & TIM_SMCR_SMS;
 8004612:	2107      	movs	r1, #7
 8004614:	689a      	ldr	r2, [r3, #8]
  {
    __HAL_TIM_ENABLE(htim);
  }

  /* Return function status */
  return HAL_OK;
 8004616:	2000      	movs	r0, #0
    tmpsmcr = htim->Instance->SMCR & TIM_SMCR_SMS;
 8004618:	400a      	ands	r2, r1
    if (!IS_TIM_SLAVEMODE_TRIGGER_ENABLED(tmpsmcr))
 800461a:	2a06      	cmp	r2, #6
 800461c:	d003      	beq.n	8004626 <HAL_TIM_Base_Start_IT+0x42>
      __HAL_TIM_ENABLE(htim);
 800461e:	2201      	movs	r2, #1
 8004620:	6819      	ldr	r1, [r3, #0]
 8004622:	430a      	orrs	r2, r1
 8004624:	601a      	str	r2, [r3, #0]
}
 8004626:	4770      	bx	lr
    __HAL_TIM_ENABLE(htim);
 8004628:	681a      	ldr	r2, [r3, #0]
 800462a:	4310      	orrs	r0, r2
 800462c:	6018      	str	r0, [r3, #0]
  return HAL_OK;
 800462e:	2000      	movs	r0, #0
 8004630:	e7f9      	b.n	8004626 <HAL_TIM_Base_Start_IT+0x42>
 8004632:	46c0      	nop			; (mov r8, r8)
 8004634:	40012c00 	.word	0x40012c00
 8004638:	40000400 	.word	0x40000400

0800463c <HAL_TIM_OC_DelayElapsedCallback>:
 800463c:	4770      	bx	lr

0800463e <HAL_TIM_IC_CaptureCallback>:
 800463e:	4770      	bx	lr

08004640 <HAL_TIM_PWM_PulseFinishedCallback>:
 8004640:	4770      	bx	lr

08004642 <HAL_TIM_TriggerCallback>:
 8004642:	4770      	bx	lr

08004644 <HAL_TIM_IRQHandler>:
  * @retval None
  */
void HAL_TIM_IRQHandler(TIM_HandleTypeDef *htim)
{
  /* Capture compare 1 event */
  if (__HAL_TIM_GET_FLAG(htim, TIM_FLAG_CC1) != RESET)
 8004644:	2202      	movs	r2, #2
 8004646:	6803      	ldr	r3, [r0, #0]
{
 8004648:	b510      	push	{r4, lr}
  if (__HAL_TIM_GET_FLAG(htim, TIM_FLAG_CC1) != RESET)
 800464a:	6919      	ldr	r1, [r3, #16]
{
 800464c:	0004      	movs	r4, r0
  if (__HAL_TIM_GET_FLAG(htim, TIM_FLAG_CC1) != RESET)
 800464e:	4211      	tst	r1, r2
 8004650:	d00e      	beq.n	8004670 <HAL_TIM_IRQHandler+0x2c>
  {
    if (__HAL_TIM_GET_IT_SOURCE(htim, TIM_IT_CC1) != RESET)
 8004652:	68d9      	ldr	r1, [r3, #12]
 8004654:	4211      	tst	r1, r2
 8004656:	d00b      	beq.n	8004670 <HAL_TIM_IRQHandler+0x2c>
    {
      {
        __HAL_TIM_CLEAR_IT(htim, TIM_IT_CC1);
 8004658:	3a05      	subs	r2, #5
 800465a:	611a      	str	r2, [r3, #16]
        htim->Channel = HAL_TIM_ACTIVE_CHANNEL_1;
 800465c:	3204      	adds	r2, #4
 800465e:	7702      	strb	r2, [r0, #28]

        /* Input capture event */
        if ((htim->Instance->CCMR1 & TIM_CCMR1_CC1S) != 0x00U)
 8004660:	699b      	ldr	r3, [r3, #24]
 8004662:	079b      	lsls	r3, r3, #30
 8004664:	d100      	bne.n	8004668 <HAL_TIM_IRQHandler+0x24>
 8004666:	e079      	b.n	800475c <HAL_TIM_IRQHandler+0x118>
        {
#if (USE_HAL_TIM_REGISTER_CALLBACKS == 1)
          htim->IC_CaptureCallback(htim);
#else
          HAL_TIM_IC_CaptureCallback(htim);
 8004668:	f7ff ffe9 	bl	800463e <HAL_TIM_IC_CaptureCallback>
#else
          HAL_TIM_OC_DelayElapsedCallback(htim);
          HAL_TIM_PWM_PulseFinishedCallback(htim);
#endif /* USE_HAL_TIM_REGISTER_CALLBACKS */
        }
        htim->Channel = HAL_TIM_ACTIVE_CHANNEL_CLEARED;
 800466c:	2300      	movs	r3, #0
 800466e:	7723      	strb	r3, [r4, #28]
      }
    }
  }
  /* Capture compare 2 event */
  if (__HAL_TIM_GET_FLAG(htim, TIM_FLAG_CC2) != RESET)
 8004670:	2204      	movs	r2, #4
 8004672:	6823      	ldr	r3, [r4, #0]
 8004674:	6919      	ldr	r1, [r3, #16]
 8004676:	4211      	tst	r1, r2
 8004678:	d010      	beq.n	800469c <HAL_TIM_IRQHandler+0x58>
  {
    if (__HAL_TIM_GET_IT_SOURCE(htim, TIM_IT_CC2) != RESET)
 800467a:	68d9      	ldr	r1, [r3, #12]
 800467c:	4211      	tst	r1, r2
 800467e:	d00d      	beq.n	800469c <HAL_TIM_IRQHandler+0x58>
    {
      __HAL_TIM_CLEAR_IT(htim, TIM_IT_CC2);
 8004680:	3a09      	subs	r2, #9
 8004682:	611a      	str	r2, [r3, #16]
      htim->Channel = HAL_TIM_ACTIVE_CHANNEL_2;
 8004684:	3207      	adds	r2, #7
 8004686:	7722      	strb	r2, [r4, #28]
      /* Input capture event */
      if ((htim->Instance->CCMR1 & TIM_CCMR1_CC2S) != 0x00U)
 8004688:	699a      	ldr	r2, [r3, #24]
 800468a:	23c0      	movs	r3, #192	; 0xc0
 800468c:	009b      	lsls	r3, r3, #2
      {
#if (USE_HAL_TIM_REGISTER_CALLBACKS == 1)
        htim->IC_CaptureCallback(htim);
#else
        HAL_TIM_IC_CaptureCallback(htim);
 800468e:	0020      	movs	r0, r4
      if ((htim->Instance->CCMR1 & TIM_CCMR1_CC2S) != 0x00U)
 8004690:	421a      	tst	r2, r3
 8004692:	d069      	beq.n	8004768 <HAL_TIM_IRQHandler+0x124>
        HAL_TIM_IC_CaptureCallback(htim);
 8004694:	f7ff ffd3 	bl	800463e <HAL_TIM_IC_CaptureCallback>
#else
        HAL_TIM_OC_DelayElapsedCallback(htim);
        HAL_TIM_PWM_PulseFinishedCallback(htim);
#endif /* USE_HAL_TIM_REGISTER_CALLBACKS */
      }
      htim->Channel = HAL_TIM_ACTIVE_CHANNEL_CLEARED;
 8004698:	2300      	movs	r3, #0
 800469a:	7723      	strb	r3, [r4, #28]
    }
  }
  /* Capture compare 3 event */
  if (__HAL_TIM_GET_FLAG(htim, TIM_FLAG_CC3) != RESET)
 800469c:	2208      	movs	r2, #8
 800469e:	6823      	ldr	r3, [r4, #0]
 80046a0:	6919      	ldr	r1, [r3, #16]
 80046a2:	4211      	tst	r1, r2
 80046a4:	d00e      	beq.n	80046c4 <HAL_TIM_IRQHandler+0x80>
  {
    if (__HAL_TIM_GET_IT_SOURCE(htim, TIM_IT_CC3) != RESET)
 80046a6:	68d9      	ldr	r1, [r3, #12]
 80046a8:	4211      	tst	r1, r2
 80046aa:	d00b      	beq.n	80046c4 <HAL_TIM_IRQHandler+0x80>
    {
      __HAL_TIM_CLEAR_IT(htim, TIM_IT_CC3);
 80046ac:	3a11      	subs	r2, #17
 80046ae:	611a      	str	r2, [r3, #16]
      htim->Channel = HAL_TIM_ACTIVE_CHANNEL_3;
 80046b0:	320d      	adds	r2, #13
 80046b2:	7722      	strb	r2, [r4, #28]
      /* Input capture event */
      if ((htim->Instance->CCMR2 & TIM_CCMR2_CC3S) != 0x00U)
 80046b4:	69db      	ldr	r3, [r3, #28]
      {
#if (USE_HAL_TIM_REGISTER_CALLBACKS == 1)
        htim->IC_CaptureCallback(htim);
#else
        HAL_TIM_IC_CaptureCallback(htim);
 80046b6:	0020      	movs	r0, r4
      if ((htim->Instance->CCMR2 & TIM_CCMR2_CC3S) != 0x00U)
 80046b8:	079b      	lsls	r3, r3, #30
 80046ba:	d05b      	beq.n	8004774 <HAL_TIM_IRQHandler+0x130>
        HAL_TIM_IC_CaptureCallback(htim);
 80046bc:	f7ff ffbf 	bl	800463e <HAL_TIM_IC_CaptureCallback>
#else
        HAL_TIM_OC_DelayElapsedCallback(htim);
        HAL_TIM_PWM_PulseFinishedCallback(htim);
#endif /* USE_HAL_TIM_REGISTER_CALLBACKS */
      }
      htim->Channel = HAL_TIM_ACTIVE_CHANNEL_CLEARED;
 80046c0:	2300      	movs	r3, #0
 80046c2:	7723      	strb	r3, [r4, #28]
    }
  }
  /* Capture compare 4 event */
  if (__HAL_TIM_GET_FLAG(htim, TIM_FLAG_CC4) != RESET)
 80046c4:	2210      	movs	r2, #16
 80046c6:	6823      	ldr	r3, [r4, #0]
 80046c8:	6919      	ldr	r1, [r3, #16]
 80046ca:	4211      	tst	r1, r2
 80046cc:	d010      	beq.n	80046f0 <HAL_TIM_IRQHandler+0xac>
  {
    if (__HAL_TIM_GET_IT_SOURCE(htim, TIM_IT_CC4) != RESET)
 80046ce:	68d9      	ldr	r1, [r3, #12]
 80046d0:	4211      	tst	r1, r2
 80046d2:	d00d      	beq.n	80046f0 <HAL_TIM_IRQHandler+0xac>
    {
      __HAL_TIM_CLEAR_IT(htim, TIM_IT_CC4);
 80046d4:	3a21      	subs	r2, #33	; 0x21
 80046d6:	611a      	str	r2, [r3, #16]
      htim->Channel = HAL_TIM_ACTIVE_CHANNEL_4;
 80046d8:	3219      	adds	r2, #25
 80046da:	7722      	strb	r2, [r4, #28]
      /* Input capture event */
      if ((htim->Instance->CCMR2 & TIM_CCMR2_CC4S) != 0x00U)
 80046dc:	69da      	ldr	r2, [r3, #28]
 80046de:	23c0      	movs	r3, #192	; 0xc0
 80046e0:	009b      	lsls	r3, r3, #2
      {
#if (USE_HAL_TIM_REGISTER_CALLBACKS == 1)
        htim->IC_CaptureCallback(htim);
#else
        HAL_TIM_IC_CaptureCallback(htim);
 80046e2:	0020      	movs	r0, r4
      if ((htim->Instance->CCMR2 & TIM_CCMR2_CC4S) != 0x00U)
 80046e4:	421a      	tst	r2, r3
 80046e6:	d04b      	beq.n	8004780 <HAL_TIM_IRQHandler+0x13c>
        HAL_TIM_IC_CaptureCallback(htim);
 80046e8:	f7ff ffa9 	bl	800463e <HAL_TIM_IC_CaptureCallback>
#else
        HAL_TIM_OC_DelayElapsedCallback(htim);
        HAL_TIM_PWM_PulseFinishedCallback(htim);
#endif /* USE_HAL_TIM_REGISTER_CALLBACKS */
      }
      htim->Channel = HAL_TIM_ACTIVE_CHANNEL_CLEARED;
 80046ec:	2300      	movs	r3, #0
 80046ee:	7723      	strb	r3, [r4, #28]
    }
  }
  /* TIM Update event */
  if (__HAL_TIM_GET_FLAG(htim, TIM_FLAG_UPDATE) != RESET)
 80046f0:	2201      	movs	r2, #1
 80046f2:	6823      	ldr	r3, [r4, #0]
 80046f4:	6919      	ldr	r1, [r3, #16]
 80046f6:	4211      	tst	r1, r2
 80046f8:	d007      	beq.n	800470a <HAL_TIM_IRQHandler+0xc6>
  {
    if (__HAL_TIM_GET_IT_SOURCE(htim, TIM_IT_UPDATE) != RESET)
 80046fa:	68d9      	ldr	r1, [r3, #12]
 80046fc:	4211      	tst	r1, r2
 80046fe:	d004      	beq.n	800470a <HAL_TIM_IRQHandler+0xc6>
    {
      __HAL_TIM_CLEAR_IT(htim, TIM_IT_UPDATE);
 8004700:	3a03      	subs	r2, #3
#if (USE_HAL_TIM_REGISTER_CALLBACKS == 1)
      htim->PeriodElapsedCallback(htim);
#else
      HAL_TIM_PeriodElapsedCallback(htim);
 8004702:	0020      	movs	r0, r4
      __HAL_TIM_CLEAR_IT(htim, TIM_IT_UPDATE);
 8004704:	611a      	str	r2, [r3, #16]
      HAL_TIM_PeriodElapsedCallback(htim);
 8004706:	f7fc f9a1 	bl	8000a4c <HAL_TIM_PeriodElapsedCallback>
#endif /* USE_HAL_TIM_REGISTER_CALLBACKS */
    }
  }
  /* TIM Break input event */
  if (__HAL_TIM_GET_FLAG(htim, TIM_FLAG_BREAK) != RESET)
 800470a:	2280      	movs	r2, #128	; 0x80
 800470c:	6823      	ldr	r3, [r4, #0]
 800470e:	6919      	ldr	r1, [r3, #16]
 8004710:	4211      	tst	r1, r2
 8004712:	d008      	beq.n	8004726 <HAL_TIM_IRQHandler+0xe2>
  {
    if (__HAL_TIM_GET_IT_SOURCE(htim, TIM_IT_BREAK) != RESET)
 8004714:	68d9      	ldr	r1, [r3, #12]
 8004716:	4211      	tst	r1, r2
 8004718:	d005      	beq.n	8004726 <HAL_TIM_IRQHandler+0xe2>
    {
      __HAL_TIM_CLEAR_IT(htim, TIM_IT_BREAK);
 800471a:	3a02      	subs	r2, #2
 800471c:	3aff      	subs	r2, #255	; 0xff
#if (USE_HAL_TIM_REGISTER_CALLBACKS == 1)
      htim->BreakCallback(htim);
#else
      HAL_TIMEx_BreakCallback(htim);
 800471e:	0020      	movs	r0, r4
      __HAL_TIM_CLEAR_IT(htim, TIM_IT_BREAK);
 8004720:	611a      	str	r2, [r3, #16]
      HAL_TIMEx_BreakCallback(htim);
 8004722:	f000 f8a4 	bl	800486e <HAL_TIMEx_BreakCallback>
#endif /* USE_HAL_TIM_REGISTER_CALLBACKS */
    }
  }
  /* TIM Trigger detection event */
  if (__HAL_TIM_GET_FLAG(htim, TIM_FLAG_TRIGGER) != RESET)
 8004726:	2240      	movs	r2, #64	; 0x40
 8004728:	6823      	ldr	r3, [r4, #0]
 800472a:	6919      	ldr	r1, [r3, #16]
 800472c:	4211      	tst	r1, r2
 800472e:	d007      	beq.n	8004740 <HAL_TIM_IRQHandler+0xfc>
  {
    if (__HAL_TIM_GET_IT_SOURCE(htim, TIM_IT_TRIGGER) != RESET)
 8004730:	68d9      	ldr	r1, [r3, #12]
 8004732:	4211      	tst	r1, r2
 8004734:	d004      	beq.n	8004740 <HAL_TIM_IRQHandler+0xfc>
    {
      __HAL_TIM_CLEAR_IT(htim, TIM_IT_TRIGGER);
 8004736:	3a81      	subs	r2, #129	; 0x81
#if (USE_HAL_TIM_REGISTER_CALLBACKS == 1)
      htim->TriggerCallback(htim);
#else
      HAL_TIM_TriggerCallback(htim);
 8004738:	0020      	movs	r0, r4
      __HAL_TIM_CLEAR_IT(htim, TIM_IT_TRIGGER);
 800473a:	611a      	str	r2, [r3, #16]
      HAL_TIM_TriggerCallback(htim);
 800473c:	f7ff ff81 	bl	8004642 <HAL_TIM_TriggerCallback>
#endif /* USE_HAL_TIM_REGISTER_CALLBACKS */
    }
  }
  /* TIM commutation event */
  if (__HAL_TIM_GET_FLAG(htim, TIM_FLAG_COM) != RESET)
 8004740:	2220      	movs	r2, #32
 8004742:	6823      	ldr	r3, [r4, #0]
 8004744:	6919      	ldr	r1, [r3, #16]
 8004746:	4211      	tst	r1, r2
 8004748:	d007      	beq.n	800475a <HAL_TIM_IRQHandler+0x116>
  {
    if (__HAL_TIM_GET_IT_SOURCE(htim, TIM_IT_COM) != RESET)
 800474a:	68d9      	ldr	r1, [r3, #12]
 800474c:	4211      	tst	r1, r2
 800474e:	d004      	beq.n	800475a <HAL_TIM_IRQHandler+0x116>
    {
      __HAL_TIM_CLEAR_IT(htim, TIM_FLAG_COM);
 8004750:	3a41      	subs	r2, #65	; 0x41
#if (USE_HAL_TIM_REGISTER_CALLBACKS == 1)
      htim->CommutationCallback(htim);
#else
      HAL_TIMEx_CommutCallback(htim);
 8004752:	0020      	movs	r0, r4
      __HAL_TIM_CLEAR_IT(htim, TIM_FLAG_COM);
 8004754:	611a      	str	r2, [r3, #16]
      HAL_TIMEx_CommutCallback(htim);
 8004756:	f000 f889 	bl	800486c <HAL_TIMEx_CommutCallback>
#endif /* USE_HAL_TIM_REGISTER_CALLBACKS */
    }
  }
}
 800475a:	bd10      	pop	{r4, pc}
          HAL_TIM_OC_DelayElapsedCallback(htim);
 800475c:	f7ff ff6e 	bl	800463c <HAL_TIM_OC_DelayElapsedCallback>
          HAL_TIM_PWM_PulseFinishedCallback(htim);
 8004760:	0020      	movs	r0, r4
 8004762:	f7ff ff6d 	bl	8004640 <HAL_TIM_PWM_PulseFinishedCallback>
 8004766:	e781      	b.n	800466c <HAL_TIM_IRQHandler+0x28>
        HAL_TIM_OC_DelayElapsedCallback(htim);
 8004768:	f7ff ff68 	bl	800463c <HAL_TIM_OC_DelayElapsedCallback>
        HAL_TIM_PWM_PulseFinishedCallback(htim);
 800476c:	0020      	movs	r0, r4
 800476e:	f7ff ff67 	bl	8004640 <HAL_TIM_PWM_PulseFinishedCallback>
 8004772:	e791      	b.n	8004698 <HAL_TIM_IRQHandler+0x54>
        HAL_TIM_OC_DelayElapsedCallback(htim);
 8004774:	f7ff ff62 	bl	800463c <HAL_TIM_OC_DelayElapsedCallback>
        HAL_TIM_PWM_PulseFinishedCallback(htim);
 8004778:	0020      	movs	r0, r4
 800477a:	f7ff ff61 	bl	8004640 <HAL_TIM_PWM_PulseFinishedCallback>
 800477e:	e79f      	b.n	80046c0 <HAL_TIM_IRQHandler+0x7c>
        HAL_TIM_OC_DelayElapsedCallback(htim);
 8004780:	f7ff ff5c 	bl	800463c <HAL_TIM_OC_DelayElapsedCallback>
        HAL_TIM_PWM_PulseFinishedCallback(htim);
 8004784:	0020      	movs	r0, r4
 8004786:	f7ff ff5b 	bl	8004640 <HAL_TIM_PWM_PulseFinishedCallback>
 800478a:	e7af      	b.n	80046ec <HAL_TIM_IRQHandler+0xa8>

0800478c <TIM_Base_SetConfig>:
{
  uint32_t tmpcr1;
  tmpcr1 = TIMx->CR1;

  /* Set TIM Time Base Unit parameters ---------------------------------------*/
  if (IS_TIM_COUNTER_MODE_SELECT_INSTANCE(TIMx))
 800478c:	4a1d      	ldr	r2, [pc, #116]	; (8004804 <TIM_Base_SetConfig+0x78>)
{
 800478e:	b510      	push	{r4, lr}
  tmpcr1 = TIMx->CR1;
 8004790:	6803      	ldr	r3, [r0, #0]
  if (IS_TIM_COUNTER_MODE_SELECT_INSTANCE(TIMx))
 8004792:	4290      	cmp	r0, r2
 8004794:	d006      	beq.n	80047a4 <TIM_Base_SetConfig+0x18>
 8004796:	2480      	movs	r4, #128	; 0x80
 8004798:	05e4      	lsls	r4, r4, #23
 800479a:	42a0      	cmp	r0, r4
 800479c:	d002      	beq.n	80047a4 <TIM_Base_SetConfig+0x18>
 800479e:	4c1a      	ldr	r4, [pc, #104]	; (8004808 <TIM_Base_SetConfig+0x7c>)
 80047a0:	42a0      	cmp	r0, r4
 80047a2:	d10c      	bne.n	80047be <TIM_Base_SetConfig+0x32>
  {
    /* Select the Counter Mode */
    tmpcr1 &= ~(TIM_CR1_DIR | TIM_CR1_CMS);
 80047a4:	2470      	movs	r4, #112	; 0x70
 80047a6:	43a3      	bics	r3, r4
    tmpcr1 |= Structure->CounterMode;
 80047a8:	684c      	ldr	r4, [r1, #4]
 80047aa:	4323      	orrs	r3, r4
  }

  if (IS_TIM_CLOCK_DIVISION_INSTANCE(TIMx))
 80047ac:	4290      	cmp	r0, r2
 80047ae:	d00f      	beq.n	80047d0 <TIM_Base_SetConfig+0x44>
 80047b0:	2480      	movs	r4, #128	; 0x80
 80047b2:	05e4      	lsls	r4, r4, #23
 80047b4:	42a0      	cmp	r0, r4
 80047b6:	d00b      	beq.n	80047d0 <TIM_Base_SetConfig+0x44>
 80047b8:	4c13      	ldr	r4, [pc, #76]	; (8004808 <TIM_Base_SetConfig+0x7c>)
 80047ba:	42a0      	cmp	r0, r4
 80047bc:	d008      	beq.n	80047d0 <TIM_Base_SetConfig+0x44>
 80047be:	4c13      	ldr	r4, [pc, #76]	; (800480c <TIM_Base_SetConfig+0x80>)
 80047c0:	42a0      	cmp	r0, r4
 80047c2:	d005      	beq.n	80047d0 <TIM_Base_SetConfig+0x44>
 80047c4:	4c12      	ldr	r4, [pc, #72]	; (8004810 <TIM_Base_SetConfig+0x84>)
 80047c6:	42a0      	cmp	r0, r4
 80047c8:	d002      	beq.n	80047d0 <TIM_Base_SetConfig+0x44>
 80047ca:	4c12      	ldr	r4, [pc, #72]	; (8004814 <TIM_Base_SetConfig+0x88>)
 80047cc:	42a0      	cmp	r0, r4
 80047ce:	d103      	bne.n	80047d8 <TIM_Base_SetConfig+0x4c>
  {
    /* Set the clock division */
    tmpcr1 &= ~TIM_CR1_CKD;
 80047d0:	4c11      	ldr	r4, [pc, #68]	; (8004818 <TIM_Base_SetConfig+0x8c>)
 80047d2:	4023      	ands	r3, r4
    tmpcr1 |= (uint32_t)Structure->ClockDivision;
 80047d4:	68cc      	ldr	r4, [r1, #12]
 80047d6:	4323      	orrs	r3, r4
  }

  /* Set the auto-reload preload */
  MODIFY_REG(tmpcr1, TIM_CR1_ARPE, Structure->AutoReloadPreload);
 80047d8:	2480      	movs	r4, #128	; 0x80
 80047da:	43a3      	bics	r3, r4
 80047dc:	694c      	ldr	r4, [r1, #20]
 80047de:	4323      	orrs	r3, r4

  TIMx->CR1 = tmpcr1;
 80047e0:	6003      	str	r3, [r0, #0]

  /* Set the Autoreload value */
  TIMx->ARR = (uint32_t)Structure->Period ;
 80047e2:	688b      	ldr	r3, [r1, #8]
 80047e4:	62c3      	str	r3, [r0, #44]	; 0x2c

  /* Set the Prescaler value */
  TIMx->PSC = Structure->Prescaler;
 80047e6:	680b      	ldr	r3, [r1, #0]
 80047e8:	6283      	str	r3, [r0, #40]	; 0x28

  if (IS_TIM_REPETITION_COUNTER_INSTANCE(TIMx))
 80047ea:	4290      	cmp	r0, r2
 80047ec:	d005      	beq.n	80047fa <TIM_Base_SetConfig+0x6e>
 80047ee:	4b08      	ldr	r3, [pc, #32]	; (8004810 <TIM_Base_SetConfig+0x84>)
 80047f0:	4298      	cmp	r0, r3
 80047f2:	d002      	beq.n	80047fa <TIM_Base_SetConfig+0x6e>
 80047f4:	4b07      	ldr	r3, [pc, #28]	; (8004814 <TIM_Base_SetConfig+0x88>)
 80047f6:	4298      	cmp	r0, r3
 80047f8:	d101      	bne.n	80047fe <TIM_Base_SetConfig+0x72>
  {
    /* Set the Repetition Counter value */
    TIMx->RCR = Structure->RepetitionCounter;
 80047fa:	690b      	ldr	r3, [r1, #16]
 80047fc:	6303      	str	r3, [r0, #48]	; 0x30
  }

  /* Generate an update event to reload the Prescaler
     and the repetition counter (only for advanced timer) value immediately */
  TIMx->EGR = TIM_EGR_UG;
 80047fe:	2301      	movs	r3, #1
 8004800:	6143      	str	r3, [r0, #20]
}
 8004802:	bd10      	pop	{r4, pc}
 8004804:	40012c00 	.word	0x40012c00
 8004808:	40000400 	.word	0x40000400
 800480c:	40002000 	.word	0x40002000
 8004810:	40014400 	.word	0x40014400
 8004814:	40014800 	.word	0x40014800
 8004818:	fffffcff 	.word	0xfffffcff

0800481c <HAL_TIM_Base_Init>:
{
 800481c:	b570      	push	{r4, r5, r6, lr}
 800481e:	0004      	movs	r4, r0
    return HAL_ERROR;
 8004820:	2001      	movs	r0, #1
  if (htim == NULL)
 8004822:	2c00      	cmp	r4, #0
 8004824:	d021      	beq.n	800486a <HAL_TIM_Base_Init+0x4e>
  if (htim->State == HAL_TIM_STATE_RESET)
 8004826:	0025      	movs	r5, r4
 8004828:	353d      	adds	r5, #61	; 0x3d
 800482a:	782b      	ldrb	r3, [r5, #0]
 800482c:	b2da      	uxtb	r2, r3
 800482e:	2b00      	cmp	r3, #0
 8004830:	d105      	bne.n	800483e <HAL_TIM_Base_Init+0x22>
    htim->Lock = HAL_UNLOCKED;
 8004832:	0023      	movs	r3, r4
 8004834:	333c      	adds	r3, #60	; 0x3c
    HAL_TIM_Base_MspInit(htim);
 8004836:	0020      	movs	r0, r4
    htim->Lock = HAL_UNLOCKED;
 8004838:	701a      	strb	r2, [r3, #0]
    HAL_TIM_Base_MspInit(htim);
 800483a:	f7ff fed1 	bl	80045e0 <HAL_TIM_Base_MspInit>
  htim->State = HAL_TIM_STATE_BUSY;
 800483e:	2302      	movs	r3, #2
 8004840:	702b      	strb	r3, [r5, #0]
  TIM_Base_SetConfig(htim->Instance, &htim->Init);
 8004842:	6820      	ldr	r0, [r4, #0]
 8004844:	1d21      	adds	r1, r4, #4
 8004846:	f7ff ffa1 	bl	800478c <TIM_Base_SetConfig>
  htim->DMABurstState = HAL_DMA_BURST_STATE_READY;
 800484a:	0022      	movs	r2, r4
 800484c:	2301      	movs	r3, #1
  return HAL_OK;
 800484e:	2000      	movs	r0, #0
  htim->DMABurstState = HAL_DMA_BURST_STATE_READY;
 8004850:	3246      	adds	r2, #70	; 0x46
 8004852:	7013      	strb	r3, [r2, #0]
  TIM_CHANNEL_N_STATE_SET_ALL(htim, HAL_TIM_CHANNEL_STATE_READY);
 8004854:	3445      	adds	r4, #69	; 0x45
  TIM_CHANNEL_STATE_SET_ALL(htim, HAL_TIM_CHANNEL_STATE_READY);
 8004856:	3a08      	subs	r2, #8
 8004858:	7013      	strb	r3, [r2, #0]
 800485a:	7053      	strb	r3, [r2, #1]
 800485c:	7093      	strb	r3, [r2, #2]
 800485e:	70d3      	strb	r3, [r2, #3]
  TIM_CHANNEL_N_STATE_SET_ALL(htim, HAL_TIM_CHANNEL_STATE_READY);
 8004860:	7113      	strb	r3, [r2, #4]
 8004862:	7153      	strb	r3, [r2, #5]
 8004864:	7193      	strb	r3, [r2, #6]
 8004866:	7023      	strb	r3, [r4, #0]
  htim->State = HAL_TIM_STATE_READY;
 8004868:	702b      	strb	r3, [r5, #0]
}
 800486a:	bd70      	pop	{r4, r5, r6, pc}

0800486c <HAL_TIMEx_CommutCallback>:
 800486c:	4770      	bx	lr

0800486e <HAL_TIMEx_BreakCallback>:
 800486e:	4770      	bx	lr

08004870 <USB_EnableGlobalInt>:
HAL_StatusTypeDef USB_EnableGlobalInt(USB_TypeDef *USBx)
{
  uint32_t winterruptmask;

  /* Clear pending interrupts */
  USBx->ISTR = 0U;
 8004870:	1d82      	adds	r2, r0, #6
{
 8004872:	0003      	movs	r3, r0
  USBx->ISTR = 0U;
 8004874:	2000      	movs	r0, #0
 8004876:	87d0      	strh	r0, [r2, #62]	; 0x3e
                   USB_CNTR_SUSPM | USB_CNTR_ERRM |
                   USB_CNTR_SOFM | USB_CNTR_ESOFM |
                   USB_CNTR_RESETM | USB_CNTR_L1REQM;

  /* Set interrupt mask */
  USBx->CNTR = (uint16_t)winterruptmask;
 8004878:	4a01      	ldr	r2, [pc, #4]	; (8004880 <USB_EnableGlobalInt+0x10>)
 800487a:	3302      	adds	r3, #2
 800487c:	87da      	strh	r2, [r3, #62]	; 0x3e

  return HAL_OK;
}
 800487e:	4770      	bx	lr
 8004880:	ffffbf80 	.word	0xffffbf80

08004884 <USB_DisableGlobalInt>:
                   USB_CNTR_SUSPM | USB_CNTR_ERRM |
                   USB_CNTR_SOFM | USB_CNTR_ESOFM |
                   USB_CNTR_RESETM | USB_CNTR_L1REQM;

  /* Clear interrupt mask */
  USBx->CNTR &= (uint16_t)(~winterruptmask);
 8004884:	3002      	adds	r0, #2
 8004886:	8fc3      	ldrh	r3, [r0, #62]	; 0x3e
 8004888:	4a02      	ldr	r2, [pc, #8]	; (8004894 <USB_DisableGlobalInt+0x10>)
 800488a:	4013      	ands	r3, r2
 800488c:	87c3      	strh	r3, [r0, #62]	; 0x3e

  return HAL_OK;
}
 800488e:	2000      	movs	r0, #0
 8004890:	4770      	bx	lr
 8004892:	46c0      	nop			; (mov r8, r8)
 8004894:	0000407f 	.word	0x0000407f

08004898 <USB_DevInit>:
  * @param  cfg  pointer to a USB_CfgTypeDef structure that contains
  *         the configuration information for the specified USBx peripheral.
  * @retval HAL status
  */
HAL_StatusTypeDef USB_DevInit(USB_TypeDef *USBx, USB_CfgTypeDef cfg)
{
 8004898:	b084      	sub	sp, #16
 800489a:	b510      	push	{r4, lr}
 800489c:	0004      	movs	r4, r0
 800489e:	9204      	str	r2, [sp, #16]
 80048a0:	9305      	str	r3, [sp, #20]
  /* Prevent unused argument(s) compilation warning */
  UNUSED(cfg);

  /* Init Device */
  /* CNTR_FRES = 1 */
  USBx->CNTR = (uint16_t)USB_CNTR_FRES;
 80048a2:	2201      	movs	r2, #1
 80048a4:	1c83      	adds	r3, r0, #2

  /* CNTR_FRES = 0 */
  USBx->CNTR = 0U;
 80048a6:	2000      	movs	r0, #0
  USBx->CNTR = (uint16_t)USB_CNTR_FRES;
 80048a8:	87da      	strh	r2, [r3, #62]	; 0x3e
  USBx->CNTR = 0U;
 80048aa:	87d8      	strh	r0, [r3, #62]	; 0x3e

  /* Clear pending interrupts */
  USBx->ISTR = 0U;
 80048ac:	1da3      	adds	r3, r4, #6

  /*Set Btable Address*/
  USBx->BTABLE = BTABLE_ADDRESS;
 80048ae:	3450      	adds	r4, #80	; 0x50
  USBx->ISTR = 0U;
 80048b0:	87d8      	strh	r0, [r3, #62]	; 0x3e
{
 80048b2:	9103      	str	r1, [sp, #12]
  USBx->BTABLE = BTABLE_ADDRESS;
 80048b4:	8020      	strh	r0, [r4, #0]

  return HAL_OK;
}
 80048b6:	bc10      	pop	{r4}
 80048b8:	bc08      	pop	{r3}
 80048ba:	b004      	add	sp, #16
 80048bc:	4718      	bx	r3
	...

080048c0 <USB_ActivateEndpoint>:
  * @param  USBx Selected device
  * @param  ep pointer to endpoint structure
  * @retval HAL status
  */
HAL_StatusTypeDef USB_ActivateEndpoint(USB_TypeDef *USBx, USB_EPTypeDef *ep)
{
 80048c0:	b5f7      	push	{r0, r1, r2, r4, r5, r6, r7, lr}
  HAL_StatusTypeDef ret = HAL_OK;
  uint16_t wEpRegVal;

  wEpRegVal = PCD_GET_ENDPOINT(USBx, ep->num) & USB_EP_T_MASK;
 80048c2:	780d      	ldrb	r5, [r1, #0]
{
 80048c4:	0003      	movs	r3, r0
  wEpRegVal = PCD_GET_ENDPOINT(USBx, ep->num) & USB_EP_T_MASK;
 80048c6:	00ad      	lsls	r5, r5, #2
 80048c8:	1945      	adds	r5, r0, r5
 80048ca:	882c      	ldrh	r4, [r5, #0]
 80048cc:	4a8e      	ldr	r2, [pc, #568]	; (8004b08 <USB_ActivateEndpoint+0x248>)

  /* initialize Endpoint */
  switch (ep->type)
 80048ce:	78c8      	ldrb	r0, [r1, #3]
  wEpRegVal = PCD_GET_ENDPOINT(USBx, ep->num) & USB_EP_T_MASK;
 80048d0:	4014      	ands	r4, r2
  switch (ep->type)
 80048d2:	2803      	cmp	r0, #3
 80048d4:	d84b      	bhi.n	800496e <USB_ActivateEndpoint+0xae>
 80048d6:	f7fb fc29 	bl	800012c <__gnu_thumb1_case_uqi>
 80048da:	4802      	.short	0x4802
 80048dc:	4346      	.short	0x4346
  {
    case EP_TYPE_CTRL:
      wEpRegVal |= USB_EP_CONTROL;
 80048de:	2280      	movs	r2, #128	; 0x80
 80048e0:	0092      	lsls	r2, r2, #2
 80048e2:	4314      	orrs	r4, r2
    default:
      ret = HAL_ERROR;
      break;
  }

  PCD_SET_ENDPOINT(USBx, ep->num, (wEpRegVal | USB_EP_CTR_RX | USB_EP_CTR_TX));
 80048e4:	4a89      	ldr	r2, [pc, #548]	; (8004b0c <USB_ActivateEndpoint+0x24c>)

  PCD_SET_EP_ADDRESS(USBx, ep->num, ep->num);
 80048e6:	4f8a      	ldr	r7, [pc, #552]	; (8004b10 <USB_ActivateEndpoint+0x250>)
  PCD_SET_ENDPOINT(USBx, ep->num, (wEpRegVal | USB_EP_CTR_RX | USB_EP_CTR_TX));
 80048e8:	4314      	orrs	r4, r2
 80048ea:	b2a4      	uxth	r4, r4
 80048ec:	802c      	strh	r4, [r5, #0]
  PCD_SET_EP_ADDRESS(USBx, ep->num, ep->num);
 80048ee:	780e      	ldrb	r6, [r1, #0]
 80048f0:	46bc      	mov	ip, r7
 80048f2:	00b5      	lsls	r5, r6, #2
 80048f4:	195d      	adds	r5, r3, r5
 80048f6:	882c      	ldrh	r4, [r5, #0]
 80048f8:	403c      	ands	r4, r7
 80048fa:	4334      	orrs	r4, r6
 80048fc:	001e      	movs	r6, r3
 80048fe:	4314      	orrs	r4, r2
 8004900:	b2a4      	uxth	r4, r4
 8004902:	802c      	strh	r4, [r5, #0]

  if (ep->doublebuffer == 0U)
 8004904:	7b0d      	ldrb	r5, [r1, #12]
 8004906:	780c      	ldrb	r4, [r1, #0]
 8004908:	3650      	adds	r6, #80	; 0x50
 800490a:	2d00      	cmp	r5, #0
 800490c:	d000      	beq.n	8004910 <USB_ActivateEndpoint+0x50>
 800490e:	e076      	b.n	80049fe <USB_ActivateEndpoint+0x13e>
  {
    if (ep->is_in != 0U)
 8004910:	00e4      	lsls	r4, r4, #3
 8004912:	18e4      	adds	r4, r4, r3
 8004914:	88cd      	ldrh	r5, [r1, #6]
 8004916:	9401      	str	r4, [sp, #4]
 8004918:	784c      	ldrb	r4, [r1, #1]
 800491a:	086d      	lsrs	r5, r5, #1
 800491c:	006d      	lsls	r5, r5, #1
 800491e:	2c00      	cmp	r4, #0
 8004920:	d02a      	beq.n	8004978 <USB_ActivateEndpoint+0xb8>
    {
      /*Set the endpoint Transmit buffer address */
      PCD_SET_EP_TX_ADDRESS(USBx, ep->num, ep->pmaadress);
 8004922:	8836      	ldrh	r6, [r6, #0]
 8004924:	9c01      	ldr	r4, [sp, #4]
 8004926:	1934      	adds	r4, r6, r4
 8004928:	2680      	movs	r6, #128	; 0x80
 800492a:	00f6      	lsls	r6, r6, #3
 800492c:	19a4      	adds	r4, r4, r6
 800492e:	8025      	strh	r5, [r4, #0]
      PCD_CLEAR_TX_DTOG(USBx, ep->num);
 8004930:	780c      	ldrb	r4, [r1, #0]
 8004932:	00a4      	lsls	r4, r4, #2
 8004934:	191c      	adds	r4, r3, r4
 8004936:	8825      	ldrh	r5, [r4, #0]
 8004938:	066d      	lsls	r5, r5, #25
 800493a:	d504      	bpl.n	8004946 <USB_ActivateEndpoint+0x86>
 800493c:	8825      	ldrh	r5, [r4, #0]
 800493e:	402f      	ands	r7, r5
 8004940:	4d74      	ldr	r5, [pc, #464]	; (8004b14 <USB_ActivateEndpoint+0x254>)
 8004942:	432f      	orrs	r7, r5
 8004944:	8027      	strh	r7, [r4, #0]

      if (ep->type != EP_TYPE_ISOC)
 8004946:	780c      	ldrb	r4, [r1, #0]
 8004948:	78c9      	ldrb	r1, [r1, #3]
 800494a:	00a4      	lsls	r4, r4, #2
 800494c:	191b      	adds	r3, r3, r4
 800494e:	4c72      	ldr	r4, [pc, #456]	; (8004b18 <USB_ActivateEndpoint+0x258>)
 8004950:	2901      	cmp	r1, #1
 8004952:	d00e      	beq.n	8004972 <USB_ActivateEndpoint+0xb2>
      {
        /* Configure NAK status for the Endpoint */
        PCD_SET_EP_TX_STATUS(USBx, ep->num, USB_EP_TX_NAK);
 8004954:	8819      	ldrh	r1, [r3, #0]
 8004956:	400c      	ands	r4, r1
 8004958:	2120      	movs	r1, #32
      /* Set the endpoint Receive buffer counter */
      PCD_SET_EP_RX_CNT(USBx, ep->num, ep->maxpacket);
      PCD_CLEAR_RX_DTOG(USBx, ep->num);

      /* Configure VALID status for the Endpoint */
      PCD_SET_EP_RX_STATUS(USBx, ep->num, USB_EP_RX_VALID);
 800495a:	4061      	eors	r1, r4
      {
        /* Configure TX Endpoint to disabled state */
        PCD_SET_EP_TX_STATUS(USBx, ep->num, USB_EP_TX_DIS);
      }

      PCD_SET_EP_RX_STATUS(USBx, ep->num, USB_EP_RX_DIS);
 800495c:	430a      	orrs	r2, r1
 800495e:	e09f      	b.n	8004aa0 <USB_ActivateEndpoint+0x1e0>
      wEpRegVal |= USB_EP_INTERRUPT;
 8004960:	22c0      	movs	r2, #192	; 0xc0
 8004962:	00d2      	lsls	r2, r2, #3
 8004964:	4314      	orrs	r4, r2
  HAL_StatusTypeDef ret = HAL_OK;
 8004966:	2000      	movs	r0, #0
      break;
 8004968:	e7bc      	b.n	80048e4 <USB_ActivateEndpoint+0x24>
      wEpRegVal |= USB_EP_ISOCHRONOUS;
 800496a:	2280      	movs	r2, #128	; 0x80
 800496c:	e7f9      	b.n	8004962 <USB_ActivateEndpoint+0xa2>
      ret = HAL_ERROR;
 800496e:	2001      	movs	r0, #1
 8004970:	e7b8      	b.n	80048e4 <USB_ActivateEndpoint+0x24>
        PCD_SET_EP_TX_STATUS(USBx, ep->num, USB_EP_TX_DIS);
 8004972:	8819      	ldrh	r1, [r3, #0]
      PCD_SET_EP_RX_STATUS(USBx, ep->num, USB_EP_RX_DIS);
 8004974:	4021      	ands	r1, r4
 8004976:	e7f1      	b.n	800495c <USB_ActivateEndpoint+0x9c>
      PCD_SET_EP_RX_ADDRESS(USBx, ep->num, ep->pmaadress);
 8004978:	8837      	ldrh	r7, [r6, #0]
 800497a:	9c01      	ldr	r4, [sp, #4]
 800497c:	193c      	adds	r4, r7, r4
 800497e:	4f67      	ldr	r7, [pc, #412]	; (8004b1c <USB_ActivateEndpoint+0x25c>)
 8004980:	19e4      	adds	r4, r4, r7
 8004982:	8025      	strh	r5, [r4, #0]
      PCD_SET_EP_RX_CNT(USBx, ep->num, ep->maxpacket);
 8004984:	780c      	ldrb	r4, [r1, #0]
 8004986:	8835      	ldrh	r5, [r6, #0]
 8004988:	00e4      	lsls	r4, r4, #3
 800498a:	4e65      	ldr	r6, [pc, #404]	; (8004b20 <USB_ActivateEndpoint+0x260>)
 800498c:	18e4      	adds	r4, r4, r3
 800498e:	19a4      	adds	r4, r4, r6
 8004990:	1964      	adds	r4, r4, r5
 8004992:	690d      	ldr	r5, [r1, #16]
 8004994:	2d00      	cmp	r5, #0
 8004996:	d11d      	bne.n	80049d4 <USB_ActivateEndpoint+0x114>
 8004998:	8825      	ldrh	r5, [r4, #0]
 800499a:	4e62      	ldr	r6, [pc, #392]	; (8004b24 <USB_ActivateEndpoint+0x264>)
 800499c:	4035      	ands	r5, r6
 800499e:	2680      	movs	r6, #128	; 0x80
 80049a0:	8025      	strh	r5, [r4, #0]
 80049a2:	8825      	ldrh	r5, [r4, #0]
 80049a4:	0236      	lsls	r6, r6, #8
 80049a6:	4335      	orrs	r5, r6
 80049a8:	8025      	strh	r5, [r4, #0]
      PCD_CLEAR_RX_DTOG(USBx, ep->num);
 80049aa:	780c      	ldrb	r4, [r1, #0]
 80049ac:	00a4      	lsls	r4, r4, #2
 80049ae:	191c      	adds	r4, r3, r4
 80049b0:	8825      	ldrh	r5, [r4, #0]
 80049b2:	046d      	lsls	r5, r5, #17
 80049b4:	d505      	bpl.n	80049c2 <USB_ActivateEndpoint+0x102>
 80049b6:	4666      	mov	r6, ip
 80049b8:	8825      	ldrh	r5, [r4, #0]
 80049ba:	4035      	ands	r5, r6
 80049bc:	4e5a      	ldr	r6, [pc, #360]	; (8004b28 <USB_ActivateEndpoint+0x268>)
 80049be:	4335      	orrs	r5, r6
 80049c0:	8025      	strh	r5, [r4, #0]
      PCD_SET_EP_RX_STATUS(USBx, ep->num, USB_EP_RX_VALID);
 80049c2:	7809      	ldrb	r1, [r1, #0]
 80049c4:	4c59      	ldr	r4, [pc, #356]	; (8004b2c <USB_ActivateEndpoint+0x26c>)
 80049c6:	0089      	lsls	r1, r1, #2
 80049c8:	185b      	adds	r3, r3, r1
 80049ca:	8819      	ldrh	r1, [r3, #0]
 80049cc:	400c      	ands	r4, r1
 80049ce:	21c0      	movs	r1, #192	; 0xc0
 80049d0:	0189      	lsls	r1, r1, #6
 80049d2:	e7c2      	b.n	800495a <USB_ActivateEndpoint+0x9a>
      PCD_SET_EP_RX_CNT(USBx, ep->num, ep->maxpacket);
 80049d4:	2d3e      	cmp	r5, #62	; 0x3e
 80049d6:	d806      	bhi.n	80049e6 <USB_ActivateEndpoint+0x126>
 80049d8:	2701      	movs	r7, #1
 80049da:	086e      	lsrs	r6, r5, #1
 80049dc:	403d      	ands	r5, r7
 80049de:	1976      	adds	r6, r6, r5
 80049e0:	02b6      	lsls	r6, r6, #10
 80049e2:	b2b5      	uxth	r5, r6
 80049e4:	e7e0      	b.n	80049a8 <USB_ActivateEndpoint+0xe8>
 80049e6:	271f      	movs	r7, #31
 80049e8:	096e      	lsrs	r6, r5, #5
 80049ea:	403d      	ands	r5, r7
 80049ec:	426f      	negs	r7, r5
 80049ee:	417d      	adcs	r5, r7
 80049f0:	1b76      	subs	r6, r6, r5
 80049f2:	02b5      	lsls	r5, r6, #10
 80049f4:	4e4e      	ldr	r6, [pc, #312]	; (8004b30 <USB_ActivateEndpoint+0x270>)
 80049f6:	432e      	orrs	r6, r5
 80049f8:	b2b6      	uxth	r6, r6
 80049fa:	8026      	strh	r6, [r4, #0]
 80049fc:	e7d5      	b.n	80049aa <USB_ActivateEndpoint+0xea>
    if (ep->type == EP_TYPE_BULK)
 80049fe:	78cd      	ldrb	r5, [r1, #3]
 8004a00:	00a4      	lsls	r4, r4, #2
 8004a02:	191c      	adds	r4, r3, r4
 8004a04:	2d02      	cmp	r5, #2
 8004a06:	d14e      	bne.n	8004aa6 <USB_ActivateEndpoint+0x1e6>
      PCD_SET_BULK_EP_DBUF(USBx, ep->num);
 8004a08:	8825      	ldrh	r5, [r4, #0]
 8004a0a:	403d      	ands	r5, r7
 8004a0c:	4f49      	ldr	r7, [pc, #292]	; (8004b34 <USB_ActivateEndpoint+0x274>)
 8004a0e:	433d      	orrs	r5, r7
    PCD_SET_EP_DBUF_ADDR(USBx, ep->num, ep->pmaaddr0, ep->pmaaddr1);
 8004a10:	2780      	movs	r7, #128	; 0x80
      PCD_CLEAR_EP_KIND(USBx, ep->num);
 8004a12:	8025      	strh	r5, [r4, #0]
    PCD_SET_EP_DBUF_ADDR(USBx, ep->num, ep->pmaaddr0, ep->pmaaddr1);
 8004a14:	780c      	ldrb	r4, [r1, #0]
 8004a16:	8835      	ldrh	r5, [r6, #0]
 8004a18:	00e4      	lsls	r4, r4, #3
 8004a1a:	00ff      	lsls	r7, r7, #3
 8004a1c:	191c      	adds	r4, r3, r4
 8004a1e:	19e4      	adds	r4, r4, r7
 8004a20:	1964      	adds	r4, r4, r5
 8004a22:	890d      	ldrh	r5, [r1, #8]
 8004a24:	086d      	lsrs	r5, r5, #1
 8004a26:	006d      	lsls	r5, r5, #1
 8004a28:	8025      	strh	r5, [r4, #0]
 8004a2a:	780c      	ldrb	r4, [r1, #0]
 8004a2c:	8835      	ldrh	r5, [r6, #0]
 8004a2e:	00e4      	lsls	r4, r4, #3
 8004a30:	4e3a      	ldr	r6, [pc, #232]	; (8004b1c <USB_ActivateEndpoint+0x25c>)
 8004a32:	191c      	adds	r4, r3, r4
 8004a34:	19a4      	adds	r4, r4, r6
 8004a36:	2680      	movs	r6, #128	; 0x80
 8004a38:	1964      	adds	r4, r4, r5
 8004a3a:	894d      	ldrh	r5, [r1, #10]
 8004a3c:	01f6      	lsls	r6, r6, #7
 8004a3e:	086d      	lsrs	r5, r5, #1
 8004a40:	006d      	lsls	r5, r5, #1
 8004a42:	8025      	strh	r5, [r4, #0]
    if (ep->is_in == 0U)
 8004a44:	780c      	ldrb	r4, [r1, #0]
 8004a46:	784f      	ldrb	r7, [r1, #1]
      PCD_CLEAR_RX_DTOG(USBx, ep->num);
 8004a48:	00a4      	lsls	r4, r4, #2
 8004a4a:	4d33      	ldr	r5, [pc, #204]	; (8004b18 <USB_ActivateEndpoint+0x258>)
 8004a4c:	191c      	adds	r4, r3, r4
    if (ep->is_in == 0U)
 8004a4e:	2f00      	cmp	r7, #0
 8004a50:	d12f      	bne.n	8004ab2 <USB_ActivateEndpoint+0x1f2>
      PCD_CLEAR_RX_DTOG(USBx, ep->num);
 8004a52:	8827      	ldrh	r7, [r4, #0]
 8004a54:	4237      	tst	r7, r6
 8004a56:	d005      	beq.n	8004a64 <USB_ActivateEndpoint+0x1a4>
 8004a58:	4667      	mov	r7, ip
 8004a5a:	8826      	ldrh	r6, [r4, #0]
 8004a5c:	403e      	ands	r6, r7
 8004a5e:	4f32      	ldr	r7, [pc, #200]	; (8004b28 <USB_ActivateEndpoint+0x268>)
 8004a60:	433e      	orrs	r6, r7
 8004a62:	8026      	strh	r6, [r4, #0]
      PCD_CLEAR_TX_DTOG(USBx, ep->num);
 8004a64:	780c      	ldrb	r4, [r1, #0]
 8004a66:	00a4      	lsls	r4, r4, #2
 8004a68:	191c      	adds	r4, r3, r4
 8004a6a:	8826      	ldrh	r6, [r4, #0]
 8004a6c:	0676      	lsls	r6, r6, #25
 8004a6e:	d505      	bpl.n	8004a7c <USB_ActivateEndpoint+0x1bc>
 8004a70:	4667      	mov	r7, ip
 8004a72:	8826      	ldrh	r6, [r4, #0]
 8004a74:	403e      	ands	r6, r7
 8004a76:	4f27      	ldr	r7, [pc, #156]	; (8004b14 <USB_ActivateEndpoint+0x254>)
 8004a78:	433e      	orrs	r6, r7
 8004a7a:	8026      	strh	r6, [r4, #0]
      PCD_SET_EP_RX_STATUS(USBx, ep->num, USB_EP_RX_VALID);
 8004a7c:	780e      	ldrb	r6, [r1, #0]
 8004a7e:	4c2b      	ldr	r4, [pc, #172]	; (8004b2c <USB_ActivateEndpoint+0x26c>)
 8004a80:	00b6      	lsls	r6, r6, #2
 8004a82:	199e      	adds	r6, r3, r6
 8004a84:	8837      	ldrh	r7, [r6, #0]
 8004a86:	4027      	ands	r7, r4
 8004a88:	24c0      	movs	r4, #192	; 0xc0
 8004a8a:	01a4      	lsls	r4, r4, #6
 8004a8c:	407c      	eors	r4, r7
 8004a8e:	4314      	orrs	r4, r2
 8004a90:	b2a4      	uxth	r4, r4
 8004a92:	8034      	strh	r4, [r6, #0]
      PCD_SET_EP_TX_STATUS(USBx, ep->num, USB_EP_TX_DIS);
 8004a94:	7809      	ldrb	r1, [r1, #0]
 8004a96:	0089      	lsls	r1, r1, #2
 8004a98:	185b      	adds	r3, r3, r1
 8004a9a:	8819      	ldrh	r1, [r3, #0]
 8004a9c:	400d      	ands	r5, r1
 8004a9e:	432a      	orrs	r2, r5
      PCD_SET_EP_RX_STATUS(USBx, ep->num, USB_EP_RX_DIS);
 8004aa0:	b292      	uxth	r2, r2
 8004aa2:	801a      	strh	r2, [r3, #0]
    }
  }

  return ret;
}
 8004aa4:	bdfe      	pop	{r1, r2, r3, r4, r5, r6, r7, pc}
      PCD_CLEAR_EP_KIND(USBx, ep->num);
 8004aa6:	8825      	ldrh	r5, [r4, #0]
 8004aa8:	4f23      	ldr	r7, [pc, #140]	; (8004b38 <USB_ActivateEndpoint+0x278>)
 8004aaa:	403d      	ands	r5, r7
 8004aac:	4315      	orrs	r5, r2
 8004aae:	b2ad      	uxth	r5, r5
 8004ab0:	e7ae      	b.n	8004a10 <USB_ActivateEndpoint+0x150>
      PCD_CLEAR_RX_DTOG(USBx, ep->num);
 8004ab2:	8827      	ldrh	r7, [r4, #0]
 8004ab4:	4237      	tst	r7, r6
 8004ab6:	d005      	beq.n	8004ac4 <USB_ActivateEndpoint+0x204>
 8004ab8:	4667      	mov	r7, ip
 8004aba:	8826      	ldrh	r6, [r4, #0]
 8004abc:	403e      	ands	r6, r7
 8004abe:	4f1a      	ldr	r7, [pc, #104]	; (8004b28 <USB_ActivateEndpoint+0x268>)
 8004ac0:	433e      	orrs	r6, r7
 8004ac2:	8026      	strh	r6, [r4, #0]
      PCD_CLEAR_TX_DTOG(USBx, ep->num);
 8004ac4:	780c      	ldrb	r4, [r1, #0]
 8004ac6:	00a4      	lsls	r4, r4, #2
 8004ac8:	191c      	adds	r4, r3, r4
 8004aca:	8826      	ldrh	r6, [r4, #0]
 8004acc:	0676      	lsls	r6, r6, #25
 8004ace:	d505      	bpl.n	8004adc <USB_ActivateEndpoint+0x21c>
 8004ad0:	4667      	mov	r7, ip
 8004ad2:	8826      	ldrh	r6, [r4, #0]
 8004ad4:	403e      	ands	r6, r7
 8004ad6:	4f0f      	ldr	r7, [pc, #60]	; (8004b14 <USB_ActivateEndpoint+0x254>)
 8004ad8:	433e      	orrs	r6, r7
 8004ada:	8026      	strh	r6, [r4, #0]
      if (ep->type != EP_TYPE_ISOC)
 8004adc:	780c      	ldrb	r4, [r1, #0]
 8004ade:	78ce      	ldrb	r6, [r1, #3]
 8004ae0:	00a4      	lsls	r4, r4, #2
 8004ae2:	191c      	adds	r4, r3, r4
 8004ae4:	2e01      	cmp	r6, #1
 8004ae6:	d00c      	beq.n	8004b02 <USB_ActivateEndpoint+0x242>
        PCD_SET_EP_TX_STATUS(USBx, ep->num, USB_EP_TX_NAK);
 8004ae8:	8826      	ldrh	r6, [r4, #0]
 8004aea:	402e      	ands	r6, r5
 8004aec:	2520      	movs	r5, #32
 8004aee:	4075      	eors	r5, r6
        PCD_SET_EP_TX_STATUS(USBx, ep->num, USB_EP_TX_DIS);
 8004af0:	4315      	orrs	r5, r2
 8004af2:	b2ad      	uxth	r5, r5
 8004af4:	8025      	strh	r5, [r4, #0]
      PCD_SET_EP_RX_STATUS(USBx, ep->num, USB_EP_RX_DIS);
 8004af6:	7809      	ldrb	r1, [r1, #0]
 8004af8:	4c0c      	ldr	r4, [pc, #48]	; (8004b2c <USB_ActivateEndpoint+0x26c>)
 8004afa:	0089      	lsls	r1, r1, #2
 8004afc:	185b      	adds	r3, r3, r1
 8004afe:	8819      	ldrh	r1, [r3, #0]
 8004b00:	e738      	b.n	8004974 <USB_ActivateEndpoint+0xb4>
        PCD_SET_EP_TX_STATUS(USBx, ep->num, USB_EP_TX_DIS);
 8004b02:	8826      	ldrh	r6, [r4, #0]
 8004b04:	4035      	ands	r5, r6
 8004b06:	e7f3      	b.n	8004af0 <USB_ActivateEndpoint+0x230>
 8004b08:	ffff898f 	.word	0xffff898f
 8004b0c:	ffff8080 	.word	0xffff8080
 8004b10:	ffff8f8f 	.word	0xffff8f8f
 8004b14:	000080c0 	.word	0x000080c0
 8004b18:	ffff8fbf 	.word	0xffff8fbf
 8004b1c:	00000404 	.word	0x00000404
 8004b20:	00000406 	.word	0x00000406
 8004b24:	ffff83ff 	.word	0xffff83ff
 8004b28:	0000c080 	.word	0x0000c080
 8004b2c:	ffffbf8f 	.word	0xffffbf8f
 8004b30:	ffff8000 	.word	0xffff8000
 8004b34:	00008180 	.word	0x00008180
 8004b38:	ffff8e8f 	.word	0xffff8e8f

08004b3c <USB_DeactivateEndpoint>:
  * @param  USBx Selected device
  * @param  ep pointer to endpoint structure
  * @retval HAL status
  */
HAL_StatusTypeDef USB_DeactivateEndpoint(USB_TypeDef *USBx, USB_EPTypeDef *ep)
{
 8004b3c:	b5f0      	push	{r4, r5, r6, r7, lr}
 8004b3e:	780b      	ldrb	r3, [r1, #0]
  if (ep->doublebuffer == 0U)
 8004b40:	7b0d      	ldrb	r5, [r1, #12]
 8004b42:	009b      	lsls	r3, r3, #2
 8004b44:	784c      	ldrb	r4, [r1, #1]
 8004b46:	4a40      	ldr	r2, [pc, #256]	; (8004c48 <USB_DeactivateEndpoint+0x10c>)
 8004b48:	18c3      	adds	r3, r0, r3
 8004b4a:	2d00      	cmp	r5, #0
 8004b4c:	d121      	bne.n	8004b92 <USB_DeactivateEndpoint+0x56>
  {
    if (ep->is_in != 0U)
 8004b4e:	2c00      	cmp	r4, #0
 8004b50:	d010      	beq.n	8004b74 <USB_DeactivateEndpoint+0x38>
    {
      PCD_CLEAR_TX_DTOG(USBx, ep->num);
 8004b52:	881c      	ldrh	r4, [r3, #0]
 8004b54:	0664      	lsls	r4, r4, #25
 8004b56:	d505      	bpl.n	8004b64 <USB_DeactivateEndpoint+0x28>
 8004b58:	881c      	ldrh	r4, [r3, #0]
 8004b5a:	4d3c      	ldr	r5, [pc, #240]	; (8004c4c <USB_DeactivateEndpoint+0x110>)
 8004b5c:	402c      	ands	r4, r5
 8004b5e:	4d3c      	ldr	r5, [pc, #240]	; (8004c50 <USB_DeactivateEndpoint+0x114>)
 8004b60:	432c      	orrs	r4, r5
 8004b62:	801c      	strh	r4, [r3, #0]

      /* Configure DISABLE status for the Endpoint*/
      PCD_SET_EP_TX_STATUS(USBx, ep->num, USB_EP_TX_DIS);
 8004b64:	780b      	ldrb	r3, [r1, #0]
 8004b66:	493b      	ldr	r1, [pc, #236]	; (8004c54 <USB_DeactivateEndpoint+0x118>)
 8004b68:	009b      	lsls	r3, r3, #2
 8004b6a:	18c0      	adds	r0, r0, r3
 8004b6c:	8803      	ldrh	r3, [r0, #0]
      PCD_CLEAR_TX_DTOG(USBx, ep->num);
      PCD_RX_DTOG(USBx, ep->num);

      /* Configure DISABLE status for the Endpoint*/
      PCD_SET_EP_TX_STATUS(USBx, ep->num, USB_EP_TX_DIS);
      PCD_SET_EP_RX_STATUS(USBx, ep->num, USB_EP_RX_DIS);
 8004b6e:	400b      	ands	r3, r1
 8004b70:	431a      	orrs	r2, r3
 8004b72:	e03f      	b.n	8004bf4 <USB_DeactivateEndpoint+0xb8>
      PCD_CLEAR_RX_DTOG(USBx, ep->num);
 8004b74:	881c      	ldrh	r4, [r3, #0]
 8004b76:	0464      	lsls	r4, r4, #17
 8004b78:	d505      	bpl.n	8004b86 <USB_DeactivateEndpoint+0x4a>
 8004b7a:	881c      	ldrh	r4, [r3, #0]
 8004b7c:	4d33      	ldr	r5, [pc, #204]	; (8004c4c <USB_DeactivateEndpoint+0x110>)
 8004b7e:	402c      	ands	r4, r5
 8004b80:	4d35      	ldr	r5, [pc, #212]	; (8004c58 <USB_DeactivateEndpoint+0x11c>)
 8004b82:	432c      	orrs	r4, r5
 8004b84:	801c      	strh	r4, [r3, #0]
      PCD_SET_EP_RX_STATUS(USBx, ep->num, USB_EP_RX_DIS);
 8004b86:	780b      	ldrb	r3, [r1, #0]
 8004b88:	4934      	ldr	r1, [pc, #208]	; (8004c5c <USB_DeactivateEndpoint+0x120>)
 8004b8a:	009b      	lsls	r3, r3, #2
 8004b8c:	18c0      	adds	r0, r0, r3
 8004b8e:	8803      	ldrh	r3, [r0, #0]
 8004b90:	e7ed      	b.n	8004b6e <USB_DeactivateEndpoint+0x32>
    if (ep->is_in == 0U)
 8004b92:	2680      	movs	r6, #128	; 0x80
 8004b94:	4d2d      	ldr	r5, [pc, #180]	; (8004c4c <USB_DeactivateEndpoint+0x110>)
 8004b96:	4f2f      	ldr	r7, [pc, #188]	; (8004c54 <USB_DeactivateEndpoint+0x118>)
 8004b98:	01f6      	lsls	r6, r6, #7
 8004b9a:	2c00      	cmp	r4, #0
 8004b9c:	d12e      	bne.n	8004bfc <USB_DeactivateEndpoint+0xc0>
      PCD_CLEAR_RX_DTOG(USBx, ep->num);
 8004b9e:	881c      	ldrh	r4, [r3, #0]
 8004ba0:	4234      	tst	r4, r6
 8004ba2:	d004      	beq.n	8004bae <USB_DeactivateEndpoint+0x72>
 8004ba4:	881c      	ldrh	r4, [r3, #0]
 8004ba6:	4e2c      	ldr	r6, [pc, #176]	; (8004c58 <USB_DeactivateEndpoint+0x11c>)
 8004ba8:	402c      	ands	r4, r5
 8004baa:	4334      	orrs	r4, r6
 8004bac:	801c      	strh	r4, [r3, #0]
      PCD_CLEAR_TX_DTOG(USBx, ep->num);
 8004bae:	780b      	ldrb	r3, [r1, #0]
 8004bb0:	4c2b      	ldr	r4, [pc, #172]	; (8004c60 <USB_DeactivateEndpoint+0x124>)
 8004bb2:	009b      	lsls	r3, r3, #2
 8004bb4:	18c3      	adds	r3, r0, r3
 8004bb6:	881e      	ldrh	r6, [r3, #0]
 8004bb8:	0676      	lsls	r6, r6, #25
 8004bba:	d504      	bpl.n	8004bc6 <USB_DeactivateEndpoint+0x8a>
 8004bbc:	881e      	ldrh	r6, [r3, #0]
 8004bbe:	402e      	ands	r6, r5
 8004bc0:	4326      	orrs	r6, r4
 8004bc2:	b2b6      	uxth	r6, r6
 8004bc4:	801e      	strh	r6, [r3, #0]
      PCD_TX_DTOG(USBx, ep->num);
 8004bc6:	780b      	ldrb	r3, [r1, #0]
 8004bc8:	009b      	lsls	r3, r3, #2
 8004bca:	18c3      	adds	r3, r0, r3
 8004bcc:	881e      	ldrh	r6, [r3, #0]
 8004bce:	4035      	ands	r5, r6
 8004bd0:	432c      	orrs	r4, r5
 8004bd2:	b2a4      	uxth	r4, r4
 8004bd4:	801c      	strh	r4, [r3, #0]
      PCD_SET_EP_RX_STATUS(USBx, ep->num, USB_EP_RX_DIS);
 8004bd6:	780c      	ldrb	r4, [r1, #0]
 8004bd8:	4d20      	ldr	r5, [pc, #128]	; (8004c5c <USB_DeactivateEndpoint+0x120>)
 8004bda:	00a4      	lsls	r4, r4, #2
 8004bdc:	1904      	adds	r4, r0, r4
 8004bde:	8823      	ldrh	r3, [r4, #0]
 8004be0:	402b      	ands	r3, r5
 8004be2:	4313      	orrs	r3, r2
 8004be4:	b29b      	uxth	r3, r3
 8004be6:	8023      	strh	r3, [r4, #0]
      PCD_SET_EP_TX_STATUS(USBx, ep->num, USB_EP_TX_DIS);
 8004be8:	780b      	ldrb	r3, [r1, #0]
 8004bea:	009b      	lsls	r3, r3, #2
 8004bec:	18c0      	adds	r0, r0, r3
 8004bee:	8803      	ldrh	r3, [r0, #0]
 8004bf0:	401f      	ands	r7, r3
 8004bf2:	433a      	orrs	r2, r7
      PCD_SET_EP_RX_STATUS(USBx, ep->num, USB_EP_RX_DIS);
 8004bf4:	b292      	uxth	r2, r2
 8004bf6:	8002      	strh	r2, [r0, #0]
    }
  }

  return HAL_OK;
}
 8004bf8:	2000      	movs	r0, #0
 8004bfa:	bdf0      	pop	{r4, r5, r6, r7, pc}
      PCD_CLEAR_RX_DTOG(USBx, ep->num);
 8004bfc:	881c      	ldrh	r4, [r3, #0]
 8004bfe:	4234      	tst	r4, r6
 8004c00:	d005      	beq.n	8004c0e <USB_DeactivateEndpoint+0xd2>
 8004c02:	881e      	ldrh	r6, [r3, #0]
 8004c04:	4c17      	ldr	r4, [pc, #92]	; (8004c64 <USB_DeactivateEndpoint+0x128>)
 8004c06:	402e      	ands	r6, r5
 8004c08:	4326      	orrs	r6, r4
 8004c0a:	b2b6      	uxth	r6, r6
 8004c0c:	801e      	strh	r6, [r3, #0]
      PCD_CLEAR_TX_DTOG(USBx, ep->num);
 8004c0e:	780b      	ldrb	r3, [r1, #0]
 8004c10:	009b      	lsls	r3, r3, #2
 8004c12:	18c3      	adds	r3, r0, r3
 8004c14:	881e      	ldrh	r6, [r3, #0]
 8004c16:	0674      	lsls	r4, r6, #25
 8004c18:	d504      	bpl.n	8004c24 <USB_DeactivateEndpoint+0xe8>
 8004c1a:	881e      	ldrh	r6, [r3, #0]
 8004c1c:	4c0c      	ldr	r4, [pc, #48]	; (8004c50 <USB_DeactivateEndpoint+0x114>)
 8004c1e:	402e      	ands	r6, r5
 8004c20:	4326      	orrs	r6, r4
 8004c22:	801e      	strh	r6, [r3, #0]
      PCD_RX_DTOG(USBx, ep->num);
 8004c24:	780b      	ldrb	r3, [r1, #0]
 8004c26:	4c0f      	ldr	r4, [pc, #60]	; (8004c64 <USB_DeactivateEndpoint+0x128>)
 8004c28:	009b      	lsls	r3, r3, #2
 8004c2a:	18c3      	adds	r3, r0, r3
 8004c2c:	881e      	ldrh	r6, [r3, #0]
 8004c2e:	4035      	ands	r5, r6
 8004c30:	432c      	orrs	r4, r5
 8004c32:	b2a4      	uxth	r4, r4
 8004c34:	801c      	strh	r4, [r3, #0]
      PCD_SET_EP_TX_STATUS(USBx, ep->num, USB_EP_TX_DIS);
 8004c36:	780b      	ldrb	r3, [r1, #0]
 8004c38:	009b      	lsls	r3, r3, #2
 8004c3a:	18c3      	adds	r3, r0, r3
 8004c3c:	881c      	ldrh	r4, [r3, #0]
 8004c3e:	4027      	ands	r7, r4
 8004c40:	4317      	orrs	r7, r2
 8004c42:	b2bf      	uxth	r7, r7
 8004c44:	801f      	strh	r7, [r3, #0]
 8004c46:	e79e      	b.n	8004b86 <USB_DeactivateEndpoint+0x4a>
 8004c48:	ffff8080 	.word	0xffff8080
 8004c4c:	ffff8f8f 	.word	0xffff8f8f
 8004c50:	000080c0 	.word	0x000080c0
 8004c54:	ffff8fbf 	.word	0xffff8fbf
 8004c58:	0000c080 	.word	0x0000c080
 8004c5c:	ffffbf8f 	.word	0xffffbf8f
 8004c60:	ffff80c0 	.word	0xffff80c0
 8004c64:	ffffc080 	.word	0xffffc080

08004c68 <USB_EPSetStall>:
  * @param  ep pointer to endpoint structure
  * @retval HAL status
  */
HAL_StatusTypeDef USB_EPSetStall(USB_TypeDef *USBx, USB_EPTypeDef *ep)
{
  if (ep->is_in != 0U)
 8004c68:	780b      	ldrb	r3, [r1, #0]
 8004c6a:	4a0b      	ldr	r2, [pc, #44]	; (8004c98 <USB_EPSetStall+0x30>)
 8004c6c:	009b      	lsls	r3, r3, #2
 8004c6e:	18c0      	adds	r0, r0, r3
 8004c70:	784b      	ldrb	r3, [r1, #1]
 8004c72:	2b00      	cmp	r3, #0
 8004c74:	d009      	beq.n	8004c8a <USB_EPSetStall+0x22>
  {
    PCD_SET_EP_TX_STATUS(USBx, ep->num, USB_EP_TX_STALL);
 8004c76:	8803      	ldrh	r3, [r0, #0]
 8004c78:	4908      	ldr	r1, [pc, #32]	; (8004c9c <USB_EPSetStall+0x34>)
 8004c7a:	4019      	ands	r1, r3
 8004c7c:	2310      	movs	r3, #16
  }
  else
  {
    PCD_SET_EP_RX_STATUS(USBx, ep->num, USB_EP_RX_STALL);
 8004c7e:	404b      	eors	r3, r1
 8004c80:	4313      	orrs	r3, r2
 8004c82:	b29b      	uxth	r3, r3
 8004c84:	8003      	strh	r3, [r0, #0]
  }

  return HAL_OK;
}
 8004c86:	2000      	movs	r0, #0
 8004c88:	4770      	bx	lr
    PCD_SET_EP_RX_STATUS(USBx, ep->num, USB_EP_RX_STALL);
 8004c8a:	8803      	ldrh	r3, [r0, #0]
 8004c8c:	4904      	ldr	r1, [pc, #16]	; (8004ca0 <USB_EPSetStall+0x38>)
 8004c8e:	4019      	ands	r1, r3
 8004c90:	2380      	movs	r3, #128	; 0x80
 8004c92:	015b      	lsls	r3, r3, #5
 8004c94:	e7f3      	b.n	8004c7e <USB_EPSetStall+0x16>
 8004c96:	46c0      	nop			; (mov r8, r8)
 8004c98:	ffff8080 	.word	0xffff8080
 8004c9c:	ffff8fbf 	.word	0xffff8fbf
 8004ca0:	ffffbf8f 	.word	0xffffbf8f

08004ca4 <USB_EPClearStall>:
  * @param  ep pointer to endpoint structure
  * @retval HAL status
  */
HAL_StatusTypeDef USB_EPClearStall(USB_TypeDef *USBx, USB_EPTypeDef *ep)
{
  if (ep->doublebuffer == 0U)
 8004ca4:	7b0b      	ldrb	r3, [r1, #12]
{
 8004ca6:	b510      	push	{r4, lr}
  if (ep->doublebuffer == 0U)
 8004ca8:	2b00      	cmp	r3, #0
 8004caa:	d11c      	bne.n	8004ce6 <USB_EPClearStall+0x42>
  {
    if (ep->is_in != 0U)
 8004cac:	780b      	ldrb	r3, [r1, #0]
 8004cae:	784a      	ldrb	r2, [r1, #1]
 8004cb0:	009b      	lsls	r3, r3, #2
 8004cb2:	18c3      	adds	r3, r0, r3
 8004cb4:	2a00      	cmp	r2, #0
 8004cb6:	d018      	beq.n	8004cea <USB_EPClearStall+0x46>
    {
      PCD_CLEAR_TX_DTOG(USBx, ep->num);
 8004cb8:	881a      	ldrh	r2, [r3, #0]
 8004cba:	0652      	lsls	r2, r2, #25
 8004cbc:	d505      	bpl.n	8004cca <USB_EPClearStall+0x26>
 8004cbe:	881a      	ldrh	r2, [r3, #0]
 8004cc0:	4c13      	ldr	r4, [pc, #76]	; (8004d10 <USB_EPClearStall+0x6c>)
 8004cc2:	4022      	ands	r2, r4
 8004cc4:	4c13      	ldr	r4, [pc, #76]	; (8004d14 <USB_EPClearStall+0x70>)
 8004cc6:	4322      	orrs	r2, r4
 8004cc8:	801a      	strh	r2, [r3, #0]

      if (ep->type != EP_TYPE_ISOC)
 8004cca:	78cb      	ldrb	r3, [r1, #3]
 8004ccc:	2b01      	cmp	r3, #1
 8004cce:	d00a      	beq.n	8004ce6 <USB_EPClearStall+0x42>
      {
        /* Configure NAK status for the Endpoint */
        PCD_SET_EP_TX_STATUS(USBx, ep->num, USB_EP_TX_NAK);
 8004cd0:	780b      	ldrb	r3, [r1, #0]
 8004cd2:	4a11      	ldr	r2, [pc, #68]	; (8004d18 <USB_EPClearStall+0x74>)
 8004cd4:	009b      	lsls	r3, r3, #2
 8004cd6:	18c0      	adds	r0, r0, r3
 8004cd8:	8803      	ldrh	r3, [r0, #0]
 8004cda:	401a      	ands	r2, r3
 8004cdc:	2320      	movs	r3, #32
    else
    {
      PCD_CLEAR_RX_DTOG(USBx, ep->num);

      /* Configure VALID status for the Endpoint */
      PCD_SET_EP_RX_STATUS(USBx, ep->num, USB_EP_RX_VALID);
 8004cde:	4053      	eors	r3, r2
 8004ce0:	4a0e      	ldr	r2, [pc, #56]	; (8004d1c <USB_EPClearStall+0x78>)
 8004ce2:	4313      	orrs	r3, r2
 8004ce4:	8003      	strh	r3, [r0, #0]
    }
  }

  return HAL_OK;
}
 8004ce6:	2000      	movs	r0, #0
 8004ce8:	bd10      	pop	{r4, pc}
      PCD_CLEAR_RX_DTOG(USBx, ep->num);
 8004cea:	881a      	ldrh	r2, [r3, #0]
 8004cec:	0452      	lsls	r2, r2, #17
 8004cee:	d505      	bpl.n	8004cfc <USB_EPClearStall+0x58>
 8004cf0:	881a      	ldrh	r2, [r3, #0]
 8004cf2:	4c07      	ldr	r4, [pc, #28]	; (8004d10 <USB_EPClearStall+0x6c>)
 8004cf4:	4022      	ands	r2, r4
 8004cf6:	4c0a      	ldr	r4, [pc, #40]	; (8004d20 <USB_EPClearStall+0x7c>)
 8004cf8:	4322      	orrs	r2, r4
 8004cfa:	801a      	strh	r2, [r3, #0]
      PCD_SET_EP_RX_STATUS(USBx, ep->num, USB_EP_RX_VALID);
 8004cfc:	780b      	ldrb	r3, [r1, #0]
 8004cfe:	4a09      	ldr	r2, [pc, #36]	; (8004d24 <USB_EPClearStall+0x80>)
 8004d00:	009b      	lsls	r3, r3, #2
 8004d02:	18c0      	adds	r0, r0, r3
 8004d04:	8803      	ldrh	r3, [r0, #0]
 8004d06:	401a      	ands	r2, r3
 8004d08:	23c0      	movs	r3, #192	; 0xc0
 8004d0a:	019b      	lsls	r3, r3, #6
 8004d0c:	e7e7      	b.n	8004cde <USB_EPClearStall+0x3a>
 8004d0e:	46c0      	nop			; (mov r8, r8)
 8004d10:	ffff8f8f 	.word	0xffff8f8f
 8004d14:	000080c0 	.word	0x000080c0
 8004d18:	ffff8fbf 	.word	0xffff8fbf
 8004d1c:	00008080 	.word	0x00008080
 8004d20:	0000c080 	.word	0x0000c080
 8004d24:	ffffbf8f 	.word	0xffffbf8f

08004d28 <USB_SetDevAddress>:
  *          This parameter can be a value from 0 to 255
  * @retval HAL status
  */
HAL_StatusTypeDef  USB_SetDevAddress(USB_TypeDef *USBx, uint8_t address)
{
  if (address == 0U)
 8004d28:	2900      	cmp	r1, #0
 8004d2a:	d102      	bne.n	8004d32 <USB_SetDevAddress+0xa>
  {
    /* set device address and enable function */
    USBx->DADDR = (uint16_t)USB_DADDR_EF;
 8004d2c:	2380      	movs	r3, #128	; 0x80
 8004d2e:	304c      	adds	r0, #76	; 0x4c
 8004d30:	8003      	strh	r3, [r0, #0]
  }

  return HAL_OK;
}
 8004d32:	2000      	movs	r0, #0
 8004d34:	4770      	bx	lr

08004d36 <USB_DevConnect>:
  * @retval HAL status
  */
HAL_StatusTypeDef  USB_DevConnect(USB_TypeDef *USBx)
{
  /* Enabling DP Pull-UP bit to Connect internal PU resistor on USB DP line */
  USBx->BCDR |= (uint16_t)USB_BCDR_DPPU;
 8004d36:	2280      	movs	r2, #128	; 0x80
 8004d38:	3058      	adds	r0, #88	; 0x58
 8004d3a:	8803      	ldrh	r3, [r0, #0]
 8004d3c:	0212      	lsls	r2, r2, #8
 8004d3e:	4313      	orrs	r3, r2
 8004d40:	8003      	strh	r3, [r0, #0]

  return HAL_OK;
}
 8004d42:	2000      	movs	r0, #0
 8004d44:	4770      	bx	lr

08004d46 <USB_ReadInterrupts>:
  */
uint32_t  USB_ReadInterrupts(USB_TypeDef *USBx)
{
  uint32_t tmpreg;

  tmpreg = USBx->ISTR;
 8004d46:	3006      	adds	r0, #6
 8004d48:	8fc0      	ldrh	r0, [r0, #62]	; 0x3e
 8004d4a:	b280      	uxth	r0, r0
  return tmpreg;
}
 8004d4c:	4770      	bx	lr

08004d4e <USB_WritePMA>:
  * @param   wPMABufAddr address into PMA.
  * @param   wNBytes no. of bytes to be copied.
  * @retval None
  */
void USB_WritePMA(USB_TypeDef *USBx, uint8_t *pbUsrBuf, uint16_t wPMABufAddr, uint16_t wNBytes)
{
 8004d4e:	b530      	push	{r4, r5, lr}
  uint32_t BaseAddr = (uint32_t)USBx;
  uint32_t i, temp1, temp2;
  __IO uint16_t *pdwVal;
  uint8_t *pBuf = pbUsrBuf;

  pdwVal = (__IO uint16_t *)(BaseAddr + 0x400U + ((uint32_t)wPMABufAddr * PMA_ACCESS));
 8004d50:	2480      	movs	r4, #128	; 0x80
  uint32_t n = ((uint32_t)wNBytes + 1U) >> 1;
 8004d52:	3301      	adds	r3, #1
  pdwVal = (__IO uint16_t *)(BaseAddr + 0x400U + ((uint32_t)wPMABufAddr * PMA_ACCESS));
 8004d54:	00e4      	lsls	r4, r4, #3
 8004d56:	1912      	adds	r2, r2, r4
  uint32_t n = ((uint32_t)wNBytes + 1U) >> 1;
 8004d58:	085b      	lsrs	r3, r3, #1
  pdwVal = (__IO uint16_t *)(BaseAddr + 0x400U + ((uint32_t)wPMABufAddr * PMA_ACCESS));
 8004d5a:	1880      	adds	r0, r0, r2

  for (i = n; i != 0U; i--)
 8004d5c:	005b      	lsls	r3, r3, #1
 8004d5e:	18cb      	adds	r3, r1, r3
 8004d60:	1a40      	subs	r0, r0, r1
 8004d62:	1844      	adds	r4, r0, r1
 8004d64:	4299      	cmp	r1, r3
 8004d66:	d100      	bne.n	8004d6a <USB_WritePMA+0x1c>
    pdwVal++;
#endif

    pBuf++;
  }
}
 8004d68:	bd30      	pop	{r4, r5, pc}
    temp2 = temp1 | ((uint16_t)((uint16_t) *pBuf << 8));
 8004d6a:	784a      	ldrb	r2, [r1, #1]
 8004d6c:	780d      	ldrb	r5, [r1, #0]
 8004d6e:	0212      	lsls	r2, r2, #8
 8004d70:	432a      	orrs	r2, r5
    *pdwVal = (uint16_t)temp2;
 8004d72:	8022      	strh	r2, [r4, #0]
    pBuf++;
 8004d74:	3102      	adds	r1, #2
  for (i = n; i != 0U; i--)
 8004d76:	e7f4      	b.n	8004d62 <USB_WritePMA+0x14>

08004d78 <USB_EPStartXfer>:
{
 8004d78:	b5f7      	push	{r0, r1, r2, r4, r5, r6, r7, lr}
 8004d7a:	000c      	movs	r4, r1
  if (ep->is_in == 1U)
 8004d7c:	7849      	ldrb	r1, [r1, #1]
{
 8004d7e:	0005      	movs	r5, r0
 8004d80:	7b22      	ldrb	r2, [r4, #12]
  if (ep->is_in == 1U)
 8004d82:	2901      	cmp	r1, #1
 8004d84:	d000      	beq.n	8004d88 <USB_EPStartXfer+0x10>
 8004d86:	e171      	b.n	800506c <USB_EPStartXfer+0x2f4>
    if (ep->xfer_len > ep->maxpacket)
 8004d88:	6927      	ldr	r7, [r4, #16]
 8004d8a:	69a6      	ldr	r6, [r4, #24]
 8004d8c:	42be      	cmp	r6, r7
 8004d8e:	d900      	bls.n	8004d92 <USB_EPStartXfer+0x1a>
 8004d90:	003e      	movs	r6, r7
    if (ep->doublebuffer == 0U)
 8004d92:	6963      	ldr	r3, [r4, #20]
 8004d94:	9301      	str	r3, [sp, #4]
 8004d96:	2a00      	cmp	r2, #0
 8004d98:	d11e      	bne.n	8004dd8 <USB_EPStartXfer+0x60>
      USB_WritePMA(USBx, ep->xfer_buff, ep->pmaadress, (uint16_t)len);
 8004d9a:	b2b6      	uxth	r6, r6
 8004d9c:	0033      	movs	r3, r6
 8004d9e:	88e2      	ldrh	r2, [r4, #6]
 8004da0:	9901      	ldr	r1, [sp, #4]
 8004da2:	0028      	movs	r0, r5
 8004da4:	f7ff ffd3 	bl	8004d4e <USB_WritePMA>
      PCD_SET_EP_TX_CNT(USBx, ep->num, len);
 8004da8:	002b      	movs	r3, r5
 8004daa:	4ac0      	ldr	r2, [pc, #768]	; (80050ac <USB_EPStartXfer+0x334>)
 8004dac:	3350      	adds	r3, #80	; 0x50
 8004dae:	8819      	ldrh	r1, [r3, #0]
 8004db0:	7823      	ldrb	r3, [r4, #0]
 8004db2:	18aa      	adds	r2, r5, r2
 8004db4:	00db      	lsls	r3, r3, #3
 8004db6:	1852      	adds	r2, r2, r1
 8004db8:	189b      	adds	r3, r3, r2
 8004dba:	801e      	strh	r6, [r3, #0]
    PCD_SET_EP_TX_STATUS(USBx, ep->num, USB_EP_TX_VALID);
 8004dbc:	7820      	ldrb	r0, [r4, #0]
 8004dbe:	4abc      	ldr	r2, [pc, #752]	; (80050b0 <USB_EPStartXfer+0x338>)
 8004dc0:	0080      	lsls	r0, r0, #2
 8004dc2:	182d      	adds	r5, r5, r0
 8004dc4:	882b      	ldrh	r3, [r5, #0]
 8004dc6:	401a      	ands	r2, r3
 8004dc8:	2330      	movs	r3, #48	; 0x30
 8004dca:	4053      	eors	r3, r2
 8004dcc:	4ab9      	ldr	r2, [pc, #740]	; (80050b4 <USB_EPStartXfer+0x33c>)
 8004dce:	4313      	orrs	r3, r2
 8004dd0:	b29b      	uxth	r3, r3
  return HAL_OK;
 8004dd2:	2000      	movs	r0, #0
    PCD_SET_EP_RX_STATUS(USBx, ep->num, USB_EP_RX_VALID);
 8004dd4:	802b      	strh	r3, [r5, #0]
}
 8004dd6:	bdfe      	pop	{r1, r2, r3, r4, r5, r6, r7, pc}
      if (ep->type == EP_TYPE_BULK)
 8004dd8:	7820      	ldrb	r0, [r4, #0]
 8004dda:	78e1      	ldrb	r1, [r4, #3]
 8004ddc:	0082      	lsls	r2, r0, #2
 8004dde:	6a23      	ldr	r3, [r4, #32]
 8004de0:	18aa      	adds	r2, r5, r2
 8004de2:	2902      	cmp	r1, #2
 8004de4:	d000      	beq.n	8004de8 <USB_EPStartXfer+0x70>
 8004de6:	e129      	b.n	800503c <USB_EPStartXfer+0x2c4>
          PCD_SET_BULK_EP_DBUF(USBx, ep->num);
 8004de8:	8810      	ldrh	r0, [r2, #0]
        if (ep->xfer_len_db > ep->maxpacket)
 8004dea:	429f      	cmp	r7, r3
 8004dec:	d300      	bcc.n	8004df0 <USB_EPStartXfer+0x78>
 8004dee:	e112      	b.n	8005016 <USB_EPStartXfer+0x29e>
          PCD_SET_BULK_EP_DBUF(USBx, ep->num);
 8004df0:	4fb1      	ldr	r7, [pc, #708]	; (80050b8 <USB_EPStartXfer+0x340>)
          ep->xfer_len_db -= len;
 8004df2:	1b9b      	subs	r3, r3, r6
          PCD_SET_BULK_EP_DBUF(USBx, ep->num);
 8004df4:	4038      	ands	r0, r7
 8004df6:	4fb1      	ldr	r7, [pc, #708]	; (80050bc <USB_EPStartXfer+0x344>)
 8004df8:	4338      	orrs	r0, r7
 8004dfa:	8010      	strh	r0, [r2, #0]
          if ((PCD_GET_ENDPOINT(USBx, ep->num) & USB_EP_DTOG_TX) != 0U)
 8004dfc:	7820      	ldrb	r0, [r4, #0]
          ep->xfer_len_db -= len;
 8004dfe:	6223      	str	r3, [r4, #32]
          if ((PCD_GET_ENDPOINT(USBx, ep->num) & USB_EP_DTOG_TX) != 0U)
 8004e00:	0083      	lsls	r3, r0, #2
 8004e02:	18eb      	adds	r3, r5, r3
 8004e04:	881f      	ldrh	r7, [r3, #0]
 8004e06:	7862      	ldrb	r2, [r4, #1]
 8004e08:	b2b3      	uxth	r3, r6
 8004e0a:	0679      	lsls	r1, r7, #25
 8004e0c:	d400      	bmi.n	8004e10 <USB_EPStartXfer+0x98>
 8004e0e:	e082      	b.n	8004f16 <USB_EPStartXfer+0x19e>
            PCD_SET_EP_DBUF1_CNT(USBx, ep->num, ep->is_in, len);
 8004e10:	2a00      	cmp	r2, #0
 8004e12:	d152      	bne.n	8004eba <USB_EPStartXfer+0x142>
 8004e14:	002a      	movs	r2, r5
 8004e16:	3250      	adds	r2, #80	; 0x50
 8004e18:	8817      	ldrh	r7, [r2, #0]
 8004e1a:	4aa9      	ldr	r2, [pc, #676]	; (80050c0 <USB_EPStartXfer+0x348>)
 8004e1c:	00c0      	lsls	r0, r0, #3
 8004e1e:	18aa      	adds	r2, r5, r2
 8004e20:	19d2      	adds	r2, r2, r7
 8004e22:	1812      	adds	r2, r2, r0
 8004e24:	2e00      	cmp	r6, #0
 8004e26:	d135      	bne.n	8004e94 <USB_EPStartXfer+0x11c>
 8004e28:	8810      	ldrh	r0, [r2, #0]
 8004e2a:	4fa6      	ldr	r7, [pc, #664]	; (80050c4 <USB_EPStartXfer+0x34c>)
 8004e2c:	4038      	ands	r0, r7
 8004e2e:	2780      	movs	r7, #128	; 0x80
 8004e30:	8010      	strh	r0, [r2, #0]
 8004e32:	8810      	ldrh	r0, [r2, #0]
 8004e34:	023f      	lsls	r7, r7, #8
 8004e36:	4338      	orrs	r0, r7
 8004e38:	8010      	strh	r0, [r2, #0]
            USB_WritePMA(USBx, ep->xfer_buff, pmabuffer, (uint16_t)len);
 8004e3a:	0028      	movs	r0, r5
 8004e3c:	8962      	ldrh	r2, [r4, #10]
 8004e3e:	9901      	ldr	r1, [sp, #4]
 8004e40:	f7ff ff85 	bl	8004d4e <USB_WritePMA>
            ep->xfer_buff += len;
 8004e44:	6963      	ldr	r3, [r4, #20]
            if (ep->xfer_len_db > ep->maxpacket)
 8004e46:	6a22      	ldr	r2, [r4, #32]
 8004e48:	6920      	ldr	r0, [r4, #16]
            ep->xfer_buff += len;
 8004e4a:	1999      	adds	r1, r3, r6
 8004e4c:	6161      	str	r1, [r4, #20]
              ep->xfer_len_db = 0U;
 8004e4e:	2300      	movs	r3, #0
            if (ep->xfer_len_db > ep->maxpacket)
 8004e50:	4282      	cmp	r2, r0
 8004e52:	d901      	bls.n	8004e58 <USB_EPStartXfer+0xe0>
              ep->xfer_len_db -= len;
 8004e54:	1b93      	subs	r3, r2, r6
 8004e56:	0032      	movs	r2, r6
            PCD_SET_EP_DBUF0_CNT(USBx, ep->num, ep->is_in, len);
 8004e58:	7860      	ldrb	r0, [r4, #1]
 8004e5a:	6223      	str	r3, [r4, #32]
 8004e5c:	b293      	uxth	r3, r2
 8004e5e:	2800      	cmp	r0, #0
 8004e60:	d14c      	bne.n	8004efc <USB_EPStartXfer+0x184>
 8004e62:	0028      	movs	r0, r5
 8004e64:	3050      	adds	r0, #80	; 0x50
 8004e66:	8807      	ldrh	r7, [r0, #0]
 8004e68:	4890      	ldr	r0, [pc, #576]	; (80050ac <USB_EPStartXfer+0x334>)
 8004e6a:	7826      	ldrb	r6, [r4, #0]
 8004e6c:	1828      	adds	r0, r5, r0
 8004e6e:	00f6      	lsls	r6, r6, #3
 8004e70:	19c0      	adds	r0, r0, r7
 8004e72:	1830      	adds	r0, r6, r0
 8004e74:	2a00      	cmp	r2, #0
 8004e76:	d12c      	bne.n	8004ed2 <USB_EPStartXfer+0x15a>
 8004e78:	8802      	ldrh	r2, [r0, #0]
 8004e7a:	4e92      	ldr	r6, [pc, #584]	; (80050c4 <USB_EPStartXfer+0x34c>)
 8004e7c:	4032      	ands	r2, r6
 8004e7e:	2680      	movs	r6, #128	; 0x80
 8004e80:	8002      	strh	r2, [r0, #0]
 8004e82:	8802      	ldrh	r2, [r0, #0]
 8004e84:	0236      	lsls	r6, r6, #8
 8004e86:	4332      	orrs	r2, r6
 8004e88:	8002      	strh	r2, [r0, #0]
            USB_WritePMA(USBx, ep->xfer_buff, pmabuffer, (uint16_t)len);
 8004e8a:	8922      	ldrh	r2, [r4, #8]
          USB_WritePMA(USBx, ep->xfer_buff, pmabuffer, (uint16_t)len);
 8004e8c:	0028      	movs	r0, r5
 8004e8e:	f7ff ff5e 	bl	8004d4e <USB_WritePMA>
 8004e92:	e793      	b.n	8004dbc <USB_EPStartXfer+0x44>
            PCD_SET_EP_DBUF1_CNT(USBx, ep->num, ep->is_in, len);
 8004e94:	2e3e      	cmp	r6, #62	; 0x3e
 8004e96:	d806      	bhi.n	8004ea6 <USB_EPStartXfer+0x12e>
 8004e98:	2701      	movs	r7, #1
 8004e9a:	0870      	lsrs	r0, r6, #1
 8004e9c:	4037      	ands	r7, r6
 8004e9e:	19c0      	adds	r0, r0, r7
 8004ea0:	0280      	lsls	r0, r0, #10
 8004ea2:	b280      	uxth	r0, r0
 8004ea4:	e7c8      	b.n	8004e38 <USB_EPStartXfer+0xc0>
 8004ea6:	271f      	movs	r7, #31
 8004ea8:	4037      	ands	r7, r6
 8004eaa:	4279      	negs	r1, r7
 8004eac:	4179      	adcs	r1, r7
 8004eae:	0970      	lsrs	r0, r6, #5
 8004eb0:	1a40      	subs	r0, r0, r1
 8004eb2:	0287      	lsls	r7, r0, #10
 8004eb4:	4884      	ldr	r0, [pc, #528]	; (80050c8 <USB_EPStartXfer+0x350>)
 8004eb6:	4338      	orrs	r0, r7
 8004eb8:	e7f3      	b.n	8004ea2 <USB_EPStartXfer+0x12a>
 8004eba:	2a01      	cmp	r2, #1
 8004ebc:	d1bd      	bne.n	8004e3a <USB_EPStartXfer+0xc2>
 8004ebe:	002a      	movs	r2, r5
 8004ec0:	497f      	ldr	r1, [pc, #508]	; (80050c0 <USB_EPStartXfer+0x348>)
 8004ec2:	3250      	adds	r2, #80	; 0x50
 8004ec4:	8812      	ldrh	r2, [r2, #0]
 8004ec6:	186f      	adds	r7, r5, r1
 8004ec8:	18bf      	adds	r7, r7, r2
 8004eca:	00c0      	lsls	r0, r0, #3
 8004ecc:	1838      	adds	r0, r7, r0
 8004ece:	8003      	strh	r3, [r0, #0]
 8004ed0:	e7b3      	b.n	8004e3a <USB_EPStartXfer+0xc2>
            PCD_SET_EP_DBUF0_CNT(USBx, ep->num, ep->is_in, len);
 8004ed2:	2a3e      	cmp	r2, #62	; 0x3e
 8004ed4:	d806      	bhi.n	8004ee4 <USB_EPStartXfer+0x16c>
 8004ed6:	2701      	movs	r7, #1
 8004ed8:	0856      	lsrs	r6, r2, #1
 8004eda:	403a      	ands	r2, r7
 8004edc:	18b6      	adds	r6, r6, r2
 8004ede:	02b6      	lsls	r6, r6, #10
 8004ee0:	b2b2      	uxth	r2, r6
 8004ee2:	e7d1      	b.n	8004e88 <USB_EPStartXfer+0x110>
 8004ee4:	271f      	movs	r7, #31
 8004ee6:	0956      	lsrs	r6, r2, #5
 8004ee8:	403a      	ands	r2, r7
 8004eea:	4257      	negs	r7, r2
 8004eec:	417a      	adcs	r2, r7
 8004eee:	1ab6      	subs	r6, r6, r2
 8004ef0:	02b2      	lsls	r2, r6, #10
 8004ef2:	4e75      	ldr	r6, [pc, #468]	; (80050c8 <USB_EPStartXfer+0x350>)
 8004ef4:	4316      	orrs	r6, r2
 8004ef6:	b2b6      	uxth	r6, r6
 8004ef8:	8006      	strh	r6, [r0, #0]
 8004efa:	e7c6      	b.n	8004e8a <USB_EPStartXfer+0x112>
 8004efc:	2801      	cmp	r0, #1
 8004efe:	d1c4      	bne.n	8004e8a <USB_EPStartXfer+0x112>
 8004f00:	002a      	movs	r2, r5
 8004f02:	486a      	ldr	r0, [pc, #424]	; (80050ac <USB_EPStartXfer+0x334>)
 8004f04:	3250      	adds	r2, #80	; 0x50
 8004f06:	8816      	ldrh	r6, [r2, #0]
 8004f08:	7822      	ldrb	r2, [r4, #0]
 8004f0a:	1828      	adds	r0, r5, r0
 8004f0c:	00d2      	lsls	r2, r2, #3
 8004f0e:	1980      	adds	r0, r0, r6
 8004f10:	1812      	adds	r2, r2, r0
 8004f12:	8013      	strh	r3, [r2, #0]
 8004f14:	e7b9      	b.n	8004e8a <USB_EPStartXfer+0x112>
            PCD_SET_EP_DBUF0_CNT(USBx, ep->num, ep->is_in, len);
 8004f16:	2a00      	cmp	r2, #0
 8004f18:	d14f      	bne.n	8004fba <USB_EPStartXfer+0x242>
 8004f1a:	002a      	movs	r2, r5
 8004f1c:	3250      	adds	r2, #80	; 0x50
 8004f1e:	8817      	ldrh	r7, [r2, #0]
 8004f20:	4a62      	ldr	r2, [pc, #392]	; (80050ac <USB_EPStartXfer+0x334>)
 8004f22:	00c0      	lsls	r0, r0, #3
 8004f24:	18aa      	adds	r2, r5, r2
 8004f26:	19d2      	adds	r2, r2, r7
 8004f28:	1812      	adds	r2, r2, r0
 8004f2a:	2e00      	cmp	r6, #0
 8004f2c:	d132      	bne.n	8004f94 <USB_EPStartXfer+0x21c>
 8004f2e:	8810      	ldrh	r0, [r2, #0]
 8004f30:	4f64      	ldr	r7, [pc, #400]	; (80050c4 <USB_EPStartXfer+0x34c>)
 8004f32:	4038      	ands	r0, r7
 8004f34:	2780      	movs	r7, #128	; 0x80
 8004f36:	8010      	strh	r0, [r2, #0]
 8004f38:	8810      	ldrh	r0, [r2, #0]
 8004f3a:	023f      	lsls	r7, r7, #8
 8004f3c:	4338      	orrs	r0, r7
 8004f3e:	8010      	strh	r0, [r2, #0]
            USB_WritePMA(USBx, ep->xfer_buff, pmabuffer, (uint16_t)len);
 8004f40:	0028      	movs	r0, r5
 8004f42:	8922      	ldrh	r2, [r4, #8]
 8004f44:	9901      	ldr	r1, [sp, #4]
 8004f46:	f7ff ff02 	bl	8004d4e <USB_WritePMA>
            ep->xfer_buff += len;
 8004f4a:	6963      	ldr	r3, [r4, #20]
            if (ep->xfer_len_db > ep->maxpacket)
 8004f4c:	6a22      	ldr	r2, [r4, #32]
 8004f4e:	6920      	ldr	r0, [r4, #16]
            ep->xfer_buff += len;
 8004f50:	1999      	adds	r1, r3, r6
 8004f52:	6161      	str	r1, [r4, #20]
              ep->xfer_len_db = 0U;
 8004f54:	2300      	movs	r3, #0
            if (ep->xfer_len_db > ep->maxpacket)
 8004f56:	4282      	cmp	r2, r0
 8004f58:	d901      	bls.n	8004f5e <USB_EPStartXfer+0x1e6>
              ep->xfer_len_db -= len;
 8004f5a:	1b93      	subs	r3, r2, r6
 8004f5c:	0032      	movs	r2, r6
            PCD_SET_EP_DBUF1_CNT(USBx, ep->num, ep->is_in, len);
 8004f5e:	7860      	ldrb	r0, [r4, #1]
 8004f60:	6223      	str	r3, [r4, #32]
 8004f62:	b293      	uxth	r3, r2
 8004f64:	2800      	cmp	r0, #0
 8004f66:	d149      	bne.n	8004ffc <USB_EPStartXfer+0x284>
 8004f68:	0028      	movs	r0, r5
 8004f6a:	3050      	adds	r0, #80	; 0x50
 8004f6c:	8807      	ldrh	r7, [r0, #0]
 8004f6e:	4854      	ldr	r0, [pc, #336]	; (80050c0 <USB_EPStartXfer+0x348>)
 8004f70:	7826      	ldrb	r6, [r4, #0]
 8004f72:	1828      	adds	r0, r5, r0
 8004f74:	00f6      	lsls	r6, r6, #3
 8004f76:	19c0      	adds	r0, r0, r7
 8004f78:	1830      	adds	r0, r6, r0
 8004f7a:	2a00      	cmp	r2, #0
 8004f7c:	d129      	bne.n	8004fd2 <USB_EPStartXfer+0x25a>
 8004f7e:	8802      	ldrh	r2, [r0, #0]
 8004f80:	4e50      	ldr	r6, [pc, #320]	; (80050c4 <USB_EPStartXfer+0x34c>)
 8004f82:	4032      	ands	r2, r6
 8004f84:	2680      	movs	r6, #128	; 0x80
 8004f86:	8002      	strh	r2, [r0, #0]
 8004f88:	8802      	ldrh	r2, [r0, #0]
 8004f8a:	0236      	lsls	r6, r6, #8
 8004f8c:	4332      	orrs	r2, r6
 8004f8e:	8002      	strh	r2, [r0, #0]
            USB_WritePMA(USBx, ep->xfer_buff, pmabuffer, (uint16_t)len);
 8004f90:	8962      	ldrh	r2, [r4, #10]
 8004f92:	e77b      	b.n	8004e8c <USB_EPStartXfer+0x114>
            PCD_SET_EP_DBUF0_CNT(USBx, ep->num, ep->is_in, len);
 8004f94:	2e3e      	cmp	r6, #62	; 0x3e
 8004f96:	d806      	bhi.n	8004fa6 <USB_EPStartXfer+0x22e>
 8004f98:	2701      	movs	r7, #1
 8004f9a:	0870      	lsrs	r0, r6, #1
 8004f9c:	4037      	ands	r7, r6
 8004f9e:	19c0      	adds	r0, r0, r7
 8004fa0:	0280      	lsls	r0, r0, #10
 8004fa2:	b280      	uxth	r0, r0
 8004fa4:	e7cb      	b.n	8004f3e <USB_EPStartXfer+0x1c6>
 8004fa6:	271f      	movs	r7, #31
 8004fa8:	4037      	ands	r7, r6
 8004faa:	4279      	negs	r1, r7
 8004fac:	4179      	adcs	r1, r7
 8004fae:	0970      	lsrs	r0, r6, #5
 8004fb0:	1a40      	subs	r0, r0, r1
 8004fb2:	0287      	lsls	r7, r0, #10
 8004fb4:	4844      	ldr	r0, [pc, #272]	; (80050c8 <USB_EPStartXfer+0x350>)
 8004fb6:	4338      	orrs	r0, r7
 8004fb8:	e7f3      	b.n	8004fa2 <USB_EPStartXfer+0x22a>
 8004fba:	2a01      	cmp	r2, #1
 8004fbc:	d1c0      	bne.n	8004f40 <USB_EPStartXfer+0x1c8>
 8004fbe:	002a      	movs	r2, r5
 8004fc0:	3250      	adds	r2, #80	; 0x50
 8004fc2:	8817      	ldrh	r7, [r2, #0]
 8004fc4:	4a39      	ldr	r2, [pc, #228]	; (80050ac <USB_EPStartXfer+0x334>)
 8004fc6:	00c0      	lsls	r0, r0, #3
 8004fc8:	18aa      	adds	r2, r5, r2
 8004fca:	19d2      	adds	r2, r2, r7
 8004fcc:	1810      	adds	r0, r2, r0
 8004fce:	8003      	strh	r3, [r0, #0]
 8004fd0:	e7b6      	b.n	8004f40 <USB_EPStartXfer+0x1c8>
            PCD_SET_EP_DBUF1_CNT(USBx, ep->num, ep->is_in, len);
 8004fd2:	2a3e      	cmp	r2, #62	; 0x3e
 8004fd4:	d806      	bhi.n	8004fe4 <USB_EPStartXfer+0x26c>
 8004fd6:	2701      	movs	r7, #1
 8004fd8:	0856      	lsrs	r6, r2, #1
 8004fda:	403a      	ands	r2, r7
 8004fdc:	18b6      	adds	r6, r6, r2
 8004fde:	02b6      	lsls	r6, r6, #10
 8004fe0:	b2b2      	uxth	r2, r6
 8004fe2:	e7d4      	b.n	8004f8e <USB_EPStartXfer+0x216>
 8004fe4:	271f      	movs	r7, #31
 8004fe6:	0956      	lsrs	r6, r2, #5
 8004fe8:	403a      	ands	r2, r7
 8004fea:	4257      	negs	r7, r2
 8004fec:	417a      	adcs	r2, r7
 8004fee:	1ab6      	subs	r6, r6, r2
 8004ff0:	02b2      	lsls	r2, r6, #10
 8004ff2:	4e35      	ldr	r6, [pc, #212]	; (80050c8 <USB_EPStartXfer+0x350>)
 8004ff4:	4316      	orrs	r6, r2
 8004ff6:	b2b6      	uxth	r6, r6
 8004ff8:	8006      	strh	r6, [r0, #0]
 8004ffa:	e7c9      	b.n	8004f90 <USB_EPStartXfer+0x218>
 8004ffc:	2801      	cmp	r0, #1
 8004ffe:	d1c7      	bne.n	8004f90 <USB_EPStartXfer+0x218>
 8005000:	002a      	movs	r2, r5
 8005002:	482f      	ldr	r0, [pc, #188]	; (80050c0 <USB_EPStartXfer+0x348>)
 8005004:	3250      	adds	r2, #80	; 0x50
 8005006:	8816      	ldrh	r6, [r2, #0]
 8005008:	7822      	ldrb	r2, [r4, #0]
 800500a:	1828      	adds	r0, r5, r0
 800500c:	00d2      	lsls	r2, r2, #3
 800500e:	1980      	adds	r0, r0, r6
 8005010:	1812      	adds	r2, r2, r0
 8005012:	8013      	strh	r3, [r2, #0]
 8005014:	e7bc      	b.n	8004f90 <USB_EPStartXfer+0x218>
          PCD_CLEAR_BULK_EP_DBUF(USBx, ep->num);
 8005016:	4e2d      	ldr	r6, [pc, #180]	; (80050cc <USB_EPStartXfer+0x354>)
 8005018:	4926      	ldr	r1, [pc, #152]	; (80050b4 <USB_EPStartXfer+0x33c>)
 800501a:	4030      	ands	r0, r6
 800501c:	4308      	orrs	r0, r1
 800501e:	b280      	uxth	r0, r0
 8005020:	8010      	strh	r0, [r2, #0]
          PCD_SET_EP_TX_CNT(USBx, ep->num, len);
 8005022:	002a      	movs	r2, r5
 8005024:	4921      	ldr	r1, [pc, #132]	; (80050ac <USB_EPStartXfer+0x334>)
 8005026:	3250      	adds	r2, #80	; 0x50
 8005028:	8816      	ldrh	r6, [r2, #0]
 800502a:	7822      	ldrb	r2, [r4, #0]
 800502c:	1868      	adds	r0, r5, r1
 800502e:	00d2      	lsls	r2, r2, #3
 8005030:	1980      	adds	r0, r0, r6
 8005032:	1812      	adds	r2, r2, r0
 8005034:	b29b      	uxth	r3, r3
 8005036:	8013      	strh	r3, [r2, #0]
          USB_WritePMA(USBx, ep->xfer_buff, pmabuffer, (uint16_t)len);
 8005038:	8922      	ldrh	r2, [r4, #8]
 800503a:	e00f      	b.n	800505c <USB_EPStartXfer+0x2e4>
        if ((PCD_GET_ENDPOINT(USBx, ep->num) & USB_EP_DTOG_TX) != 0U)
 800503c:	8817      	ldrh	r7, [r2, #0]
 800503e:	00c2      	lsls	r2, r0, #3
 8005040:	0028      	movs	r0, r5
        ep->xfer_len_db -= len;
 8005042:	1b9b      	subs	r3, r3, r6
 8005044:	6223      	str	r3, [r4, #32]
        if ((PCD_GET_ENDPOINT(USBx, ep->num) & USB_EP_DTOG_TX) != 0U)
 8005046:	3050      	adds	r0, #80	; 0x50
 8005048:	b2b3      	uxth	r3, r6
          PCD_SET_EP_DBUF1_CNT(USBx, ep->num, ep->is_in, len);
 800504a:	8806      	ldrh	r6, [r0, #0]
        if ((PCD_GET_ENDPOINT(USBx, ep->num) & USB_EP_DTOG_TX) != 0U)
 800504c:	0679      	lsls	r1, r7, #25
 800504e:	d507      	bpl.n	8005060 <USB_EPStartXfer+0x2e8>
          PCD_SET_EP_DBUF1_CNT(USBx, ep->num, ep->is_in, len);
 8005050:	491b      	ldr	r1, [pc, #108]	; (80050c0 <USB_EPStartXfer+0x348>)
 8005052:	1868      	adds	r0, r5, r1
 8005054:	1980      	adds	r0, r0, r6
 8005056:	1880      	adds	r0, r0, r2
 8005058:	8003      	strh	r3, [r0, #0]
          USB_WritePMA(USBx, ep->xfer_buff, pmabuffer, (uint16_t)len);
 800505a:	8962      	ldrh	r2, [r4, #10]
          USB_WritePMA(USBx, ep->xfer_buff, pmabuffer, (uint16_t)len);
 800505c:	9901      	ldr	r1, [sp, #4]
 800505e:	e715      	b.n	8004e8c <USB_EPStartXfer+0x114>
          PCD_SET_EP_DBUF0_CNT(USBx, ep->num, ep->is_in, len);
 8005060:	4912      	ldr	r1, [pc, #72]	; (80050ac <USB_EPStartXfer+0x334>)
 8005062:	1868      	adds	r0, r5, r1
 8005064:	1980      	adds	r0, r0, r6
 8005066:	1880      	adds	r0, r0, r2
 8005068:	8003      	strh	r3, [r0, #0]
 800506a:	e7e5      	b.n	8005038 <USB_EPStartXfer+0x2c0>
    if (ep->doublebuffer == 0U)
 800506c:	2a00      	cmp	r2, #0
 800506e:	d12f      	bne.n	80050d0 <USB_EPStartXfer+0x358>
      if (ep->xfer_len > ep->maxpacket)
 8005070:	69a3      	ldr	r3, [r4, #24]
 8005072:	6921      	ldr	r1, [r4, #16]
 8005074:	428b      	cmp	r3, r1
 8005076:	d901      	bls.n	800507c <USB_EPStartXfer+0x304>
        ep->xfer_len -= len;
 8005078:	1a5a      	subs	r2, r3, r1
 800507a:	000b      	movs	r3, r1
 800507c:	61a2      	str	r2, [r4, #24]
      PCD_SET_EP_RX_CNT(USBx, ep->num, len);
 800507e:	002a      	movs	r2, r5
 8005080:	490f      	ldr	r1, [pc, #60]	; (80050c0 <USB_EPStartXfer+0x348>)
 8005082:	3250      	adds	r2, #80	; 0x50
 8005084:	8810      	ldrh	r0, [r2, #0]
 8005086:	7822      	ldrb	r2, [r4, #0]
 8005088:	1869      	adds	r1, r5, r1
 800508a:	00d2      	lsls	r2, r2, #3
 800508c:	1809      	adds	r1, r1, r0
        PCD_SET_EP_DBUF_CNT(USBx, ep->num, ep->is_in, len);
 800508e:	1889      	adds	r1, r1, r2
 8005090:	2b00      	cmp	r3, #0
 8005092:	d000      	beq.n	8005096 <USB_EPStartXfer+0x31e>
 8005094:	e0e7      	b.n	8005266 <USB_EPStartXfer+0x4ee>
 8005096:	880b      	ldrh	r3, [r1, #0]
 8005098:	4a0a      	ldr	r2, [pc, #40]	; (80050c4 <USB_EPStartXfer+0x34c>)
 800509a:	4013      	ands	r3, r2
 800509c:	2280      	movs	r2, #128	; 0x80
 800509e:	800b      	strh	r3, [r1, #0]
 80050a0:	880b      	ldrh	r3, [r1, #0]
 80050a2:	0212      	lsls	r2, r2, #8
 80050a4:	4313      	orrs	r3, r2
 80050a6:	800b      	strh	r3, [r1, #0]
 80050a8:	e077      	b.n	800519a <USB_EPStartXfer+0x422>
 80050aa:	46c0      	nop			; (mov r8, r8)
 80050ac:	00000402 	.word	0x00000402
 80050b0:	ffff8fbf 	.word	0xffff8fbf
 80050b4:	ffff8080 	.word	0xffff8080
 80050b8:	ffff8f8f 	.word	0xffff8f8f
 80050bc:	00008180 	.word	0x00008180
 80050c0:	00000406 	.word	0x00000406
 80050c4:	ffff83ff 	.word	0xffff83ff
 80050c8:	ffff8000 	.word	0xffff8000
 80050cc:	ffff8e8f 	.word	0xffff8e8f
      if (ep->type == EP_TYPE_BULK)
 80050d0:	78e3      	ldrb	r3, [r4, #3]
 80050d2:	2b02      	cmp	r3, #2
 80050d4:	d000      	beq.n	80050d8 <USB_EPStartXfer+0x360>
 80050d6:	e085      	b.n	80051e4 <USB_EPStartXfer+0x46c>
        PCD_SET_EP_DBUF_CNT(USBx, ep->num, ep->is_in, ep->maxpacket);
 80050d8:	2900      	cmp	r1, #0
 80050da:	d11e      	bne.n	800511a <USB_EPStartXfer+0x3a2>
 80050dc:	0003      	movs	r3, r0
 80050de:	4a72      	ldr	r2, [pc, #456]	; (80052a8 <USB_EPStartXfer+0x530>)
 80050e0:	3350      	adds	r3, #80	; 0x50
 80050e2:	8819      	ldrh	r1, [r3, #0]
 80050e4:	7823      	ldrb	r3, [r4, #0]
 80050e6:	1882      	adds	r2, r0, r2
 80050e8:	00db      	lsls	r3, r3, #3
 80050ea:	1852      	adds	r2, r2, r1
 80050ec:	189a      	adds	r2, r3, r2
 80050ee:	6923      	ldr	r3, [r4, #16]
 80050f0:	2b00      	cmp	r3, #0
 80050f2:	d109      	bne.n	8005108 <USB_EPStartXfer+0x390>
 80050f4:	8813      	ldrh	r3, [r2, #0]
 80050f6:	496d      	ldr	r1, [pc, #436]	; (80052ac <USB_EPStartXfer+0x534>)
 80050f8:	400b      	ands	r3, r1
 80050fa:	2180      	movs	r1, #128	; 0x80
 80050fc:	8013      	strh	r3, [r2, #0]
 80050fe:	8813      	ldrh	r3, [r2, #0]
 8005100:	0209      	lsls	r1, r1, #8
 8005102:	430b      	orrs	r3, r1
 8005104:	8013      	strh	r3, [r2, #0]
 8005106:	e008      	b.n	800511a <USB_EPStartXfer+0x3a2>
 8005108:	2b3e      	cmp	r3, #62	; 0x3e
 800510a:	d81f      	bhi.n	800514c <USB_EPStartXfer+0x3d4>
 800510c:	2001      	movs	r0, #1
 800510e:	0859      	lsrs	r1, r3, #1
 8005110:	4003      	ands	r3, r0
 8005112:	18c9      	adds	r1, r1, r3
 8005114:	0289      	lsls	r1, r1, #10
 8005116:	b289      	uxth	r1, r1
 8005118:	8011      	strh	r1, [r2, #0]
 800511a:	7862      	ldrb	r2, [r4, #1]
 800511c:	7823      	ldrb	r3, [r4, #0]
 800511e:	2a00      	cmp	r2, #0
 8005120:	d152      	bne.n	80051c8 <USB_EPStartXfer+0x450>
 8005122:	002a      	movs	r2, r5
 8005124:	3250      	adds	r2, #80	; 0x50
 8005126:	8811      	ldrh	r1, [r2, #0]
 8005128:	4a61      	ldr	r2, [pc, #388]	; (80052b0 <USB_EPStartXfer+0x538>)
 800512a:	00db      	lsls	r3, r3, #3
 800512c:	18aa      	adds	r2, r5, r2
 800512e:	1852      	adds	r2, r2, r1
 8005130:	18d2      	adds	r2, r2, r3
 8005132:	6923      	ldr	r3, [r4, #16]
 8005134:	2b00      	cmp	r3, #0
 8005136:	d114      	bne.n	8005162 <USB_EPStartXfer+0x3ea>
 8005138:	8813      	ldrh	r3, [r2, #0]
 800513a:	495c      	ldr	r1, [pc, #368]	; (80052ac <USB_EPStartXfer+0x534>)
 800513c:	400b      	ands	r3, r1
 800513e:	2180      	movs	r1, #128	; 0x80
 8005140:	8013      	strh	r3, [r2, #0]
 8005142:	8813      	ldrh	r3, [r2, #0]
 8005144:	0209      	lsls	r1, r1, #8
 8005146:	430b      	orrs	r3, r1
 8005148:	8013      	strh	r3, [r2, #0]
 800514a:	e013      	b.n	8005174 <USB_EPStartXfer+0x3fc>
 800514c:	201f      	movs	r0, #31
 800514e:	0959      	lsrs	r1, r3, #5
 8005150:	4003      	ands	r3, r0
 8005152:	4258      	negs	r0, r3
 8005154:	4143      	adcs	r3, r0
 8005156:	1ac9      	subs	r1, r1, r3
 8005158:	4b56      	ldr	r3, [pc, #344]	; (80052b4 <USB_EPStartXfer+0x53c>)
 800515a:	0289      	lsls	r1, r1, #10
 800515c:	430b      	orrs	r3, r1
 800515e:	b29b      	uxth	r3, r3
 8005160:	e7d0      	b.n	8005104 <USB_EPStartXfer+0x38c>
 8005162:	2b3e      	cmp	r3, #62	; 0x3e
 8005164:	d825      	bhi.n	80051b2 <USB_EPStartXfer+0x43a>
 8005166:	2001      	movs	r0, #1
 8005168:	0859      	lsrs	r1, r3, #1
 800516a:	4003      	ands	r3, r0
 800516c:	18c9      	adds	r1, r1, r3
 800516e:	0289      	lsls	r1, r1, #10
 8005170:	b289      	uxth	r1, r1
 8005172:	8011      	strh	r1, [r2, #0]
        if (ep->xfer_count != 0U)
 8005174:	69e3      	ldr	r3, [r4, #28]
 8005176:	2b00      	cmp	r3, #0
 8005178:	d00f      	beq.n	800519a <USB_EPStartXfer+0x422>
 800517a:	7823      	ldrb	r3, [r4, #0]
 800517c:	494e      	ldr	r1, [pc, #312]	; (80052b8 <USB_EPStartXfer+0x540>)
 800517e:	009b      	lsls	r3, r3, #2
 8005180:	18eb      	adds	r3, r5, r3
          wEPVal = PCD_GET_ENDPOINT(USBx, ep->num);
 8005182:	881a      	ldrh	r2, [r3, #0]
          if ((((wEPVal & USB_EP_DTOG_RX) != 0U) && ((wEPVal & USB_EP_DTOG_TX) != 0U)) ||
 8005184:	400a      	ands	r2, r1
 8005186:	428a      	cmp	r2, r1
 8005188:	d001      	beq.n	800518e <USB_EPStartXfer+0x416>
 800518a:	2a00      	cmp	r2, #0
 800518c:	d105      	bne.n	800519a <USB_EPStartXfer+0x422>
            PCD_FreeUserBuffer(USBx, ep->num, 0U);
 800518e:	881a      	ldrh	r2, [r3, #0]
 8005190:	494a      	ldr	r1, [pc, #296]	; (80052bc <USB_EPStartXfer+0x544>)
 8005192:	400a      	ands	r2, r1
 8005194:	494a      	ldr	r1, [pc, #296]	; (80052c0 <USB_EPStartXfer+0x548>)
 8005196:	430a      	orrs	r2, r1
 8005198:	801a      	strh	r2, [r3, #0]
    PCD_SET_EP_RX_STATUS(USBx, ep->num, USB_EP_RX_VALID);
 800519a:	7820      	ldrb	r0, [r4, #0]
 800519c:	4a49      	ldr	r2, [pc, #292]	; (80052c4 <USB_EPStartXfer+0x54c>)
 800519e:	0080      	lsls	r0, r0, #2
 80051a0:	182d      	adds	r5, r5, r0
 80051a2:	882b      	ldrh	r3, [r5, #0]
 80051a4:	401a      	ands	r2, r3
 80051a6:	23c0      	movs	r3, #192	; 0xc0
 80051a8:	019b      	lsls	r3, r3, #6
 80051aa:	4053      	eors	r3, r2
 80051ac:	4a46      	ldr	r2, [pc, #280]	; (80052c8 <USB_EPStartXfer+0x550>)
 80051ae:	4313      	orrs	r3, r2
 80051b0:	e60f      	b.n	8004dd2 <USB_EPStartXfer+0x5a>
        PCD_SET_EP_DBUF_CNT(USBx, ep->num, ep->is_in, ep->maxpacket);
 80051b2:	201f      	movs	r0, #31
 80051b4:	0959      	lsrs	r1, r3, #5
 80051b6:	4003      	ands	r3, r0
 80051b8:	4258      	negs	r0, r3
 80051ba:	4143      	adcs	r3, r0
 80051bc:	1ac9      	subs	r1, r1, r3
 80051be:	4b3d      	ldr	r3, [pc, #244]	; (80052b4 <USB_EPStartXfer+0x53c>)
 80051c0:	0289      	lsls	r1, r1, #10
 80051c2:	430b      	orrs	r3, r1
 80051c4:	b29b      	uxth	r3, r3
 80051c6:	e7bf      	b.n	8005148 <USB_EPStartXfer+0x3d0>
 80051c8:	2a01      	cmp	r2, #1
 80051ca:	d1d3      	bne.n	8005174 <USB_EPStartXfer+0x3fc>
 80051cc:	002a      	movs	r2, r5
 80051ce:	4938      	ldr	r1, [pc, #224]	; (80052b0 <USB_EPStartXfer+0x538>)
 80051d0:	3250      	adds	r2, #80	; 0x50
 80051d2:	8812      	ldrh	r2, [r2, #0]
 80051d4:	1869      	adds	r1, r5, r1
 80051d6:	1889      	adds	r1, r1, r2
 80051d8:	6922      	ldr	r2, [r4, #16]
 80051da:	00db      	lsls	r3, r3, #3
 80051dc:	18cb      	adds	r3, r1, r3
 80051de:	b292      	uxth	r2, r2
 80051e0:	801a      	strh	r2, [r3, #0]
 80051e2:	e7c7      	b.n	8005174 <USB_EPStartXfer+0x3fc>
        return HAL_ERROR;
 80051e4:	2001      	movs	r0, #1
      else if (ep->type == EP_TYPE_ISOC)
 80051e6:	4283      	cmp	r3, r0
 80051e8:	d000      	beq.n	80051ec <USB_EPStartXfer+0x474>
 80051ea:	e5f4      	b.n	8004dd6 <USB_EPStartXfer+0x5e>
        if (ep->xfer_len > ep->maxpacket)
 80051ec:	69a3      	ldr	r3, [r4, #24]
 80051ee:	6922      	ldr	r2, [r4, #16]
          ep->xfer_len = 0U;
 80051f0:	2000      	movs	r0, #0
        if (ep->xfer_len > ep->maxpacket)
 80051f2:	4293      	cmp	r3, r2
 80051f4:	d901      	bls.n	80051fa <USB_EPStartXfer+0x482>
          ep->xfer_len -= len;
 80051f6:	1a98      	subs	r0, r3, r2
 80051f8:	0013      	movs	r3, r2
 80051fa:	61a0      	str	r0, [r4, #24]
        PCD_SET_EP_DBUF_CNT(USBx, ep->num, ep->is_in, len);
 80051fc:	2900      	cmp	r1, #0
 80051fe:	d113      	bne.n	8005228 <USB_EPStartXfer+0x4b0>
 8005200:	002a      	movs	r2, r5
 8005202:	4929      	ldr	r1, [pc, #164]	; (80052a8 <USB_EPStartXfer+0x530>)
 8005204:	3250      	adds	r2, #80	; 0x50
 8005206:	8810      	ldrh	r0, [r2, #0]
 8005208:	7822      	ldrb	r2, [r4, #0]
 800520a:	1869      	adds	r1, r5, r1
 800520c:	00d2      	lsls	r2, r2, #3
 800520e:	1809      	adds	r1, r1, r0
 8005210:	1851      	adds	r1, r2, r1
 8005212:	2b00      	cmp	r3, #0
 8005214:	d114      	bne.n	8005240 <USB_EPStartXfer+0x4c8>
 8005216:	880a      	ldrh	r2, [r1, #0]
 8005218:	4824      	ldr	r0, [pc, #144]	; (80052ac <USB_EPStartXfer+0x534>)
 800521a:	4002      	ands	r2, r0
 800521c:	2080      	movs	r0, #128	; 0x80
 800521e:	800a      	strh	r2, [r1, #0]
 8005220:	880a      	ldrh	r2, [r1, #0]
 8005222:	0200      	lsls	r0, r0, #8
 8005224:	4302      	orrs	r2, r0
 8005226:	800a      	strh	r2, [r1, #0]
 8005228:	7861      	ldrb	r1, [r4, #1]
 800522a:	7822      	ldrb	r2, [r4, #0]
 800522c:	2900      	cmp	r1, #0
 800522e:	d12f      	bne.n	8005290 <USB_EPStartXfer+0x518>
 8005230:	0029      	movs	r1, r5
 8005232:	481f      	ldr	r0, [pc, #124]	; (80052b0 <USB_EPStartXfer+0x538>)
 8005234:	3150      	adds	r1, #80	; 0x50
 8005236:	8809      	ldrh	r1, [r1, #0]
 8005238:	1828      	adds	r0, r5, r0
 800523a:	1841      	adds	r1, r0, r1
 800523c:	00d2      	lsls	r2, r2, #3
 800523e:	e726      	b.n	800508e <USB_EPStartXfer+0x316>
 8005240:	2b3e      	cmp	r3, #62	; 0x3e
 8005242:	d806      	bhi.n	8005252 <USB_EPStartXfer+0x4da>
 8005244:	2001      	movs	r0, #1
 8005246:	085a      	lsrs	r2, r3, #1
 8005248:	4018      	ands	r0, r3
 800524a:	1812      	adds	r2, r2, r0
 800524c:	0292      	lsls	r2, r2, #10
 800524e:	b292      	uxth	r2, r2
 8005250:	e7e9      	b.n	8005226 <USB_EPStartXfer+0x4ae>
 8005252:	201f      	movs	r0, #31
 8005254:	4018      	ands	r0, r3
 8005256:	4246      	negs	r6, r0
 8005258:	4170      	adcs	r0, r6
 800525a:	095a      	lsrs	r2, r3, #5
 800525c:	1a12      	subs	r2, r2, r0
 800525e:	0290      	lsls	r0, r2, #10
 8005260:	4a14      	ldr	r2, [pc, #80]	; (80052b4 <USB_EPStartXfer+0x53c>)
 8005262:	4302      	orrs	r2, r0
 8005264:	e7f3      	b.n	800524e <USB_EPStartXfer+0x4d6>
 8005266:	2b3e      	cmp	r3, #62	; 0x3e
 8005268:	d807      	bhi.n	800527a <USB_EPStartXfer+0x502>
 800526a:	2001      	movs	r0, #1
 800526c:	085a      	lsrs	r2, r3, #1
 800526e:	4003      	ands	r3, r0
 8005270:	18d2      	adds	r2, r2, r3
 8005272:	0292      	lsls	r2, r2, #10
 8005274:	b292      	uxth	r2, r2
 8005276:	800a      	strh	r2, [r1, #0]
 8005278:	e78f      	b.n	800519a <USB_EPStartXfer+0x422>
 800527a:	201f      	movs	r0, #31
 800527c:	095a      	lsrs	r2, r3, #5
 800527e:	4003      	ands	r3, r0
 8005280:	4258      	negs	r0, r3
 8005282:	4143      	adcs	r3, r0
 8005284:	1ad2      	subs	r2, r2, r3
 8005286:	4b0b      	ldr	r3, [pc, #44]	; (80052b4 <USB_EPStartXfer+0x53c>)
 8005288:	0292      	lsls	r2, r2, #10
 800528a:	4313      	orrs	r3, r2
 800528c:	b29b      	uxth	r3, r3
 800528e:	e70a      	b.n	80050a6 <USB_EPStartXfer+0x32e>
 8005290:	2901      	cmp	r1, #1
 8005292:	d000      	beq.n	8005296 <USB_EPStartXfer+0x51e>
 8005294:	e781      	b.n	800519a <USB_EPStartXfer+0x422>
 8005296:	0029      	movs	r1, r5
 8005298:	3150      	adds	r1, #80	; 0x50
 800529a:	8808      	ldrh	r0, [r1, #0]
 800529c:	4904      	ldr	r1, [pc, #16]	; (80052b0 <USB_EPStartXfer+0x538>)
 800529e:	00d2      	lsls	r2, r2, #3
 80052a0:	1869      	adds	r1, r5, r1
 80052a2:	1809      	adds	r1, r1, r0
 80052a4:	1889      	adds	r1, r1, r2
 80052a6:	e7f1      	b.n	800528c <USB_EPStartXfer+0x514>
 80052a8:	00000402 	.word	0x00000402
 80052ac:	ffff83ff 	.word	0xffff83ff
 80052b0:	00000406 	.word	0x00000406
 80052b4:	ffff8000 	.word	0xffff8000
 80052b8:	00004040 	.word	0x00004040
 80052bc:	ffff8f8f 	.word	0xffff8f8f
 80052c0:	000080c0 	.word	0x000080c0
 80052c4:	ffffbf8f 	.word	0xffffbf8f
 80052c8:	00008080 	.word	0x00008080

080052cc <USB_ReadPMA>:
  * @param   wPMABufAddr address into PMA.
  * @param   wNBytes no. of bytes to be copied.
  * @retval None
  */
void USB_ReadPMA(USB_TypeDef *USBx, uint8_t *pbUsrBuf, uint16_t wPMABufAddr, uint16_t wNBytes)
{
 80052cc:	b5f0      	push	{r4, r5, r6, r7, lr}
  uint32_t BaseAddr = (uint32_t)USBx;
  uint32_t i, temp;
  __IO uint16_t *pdwVal;
  uint8_t *pBuf = pbUsrBuf;

  pdwVal = (__IO uint16_t *)(BaseAddr + 0x400U + ((uint32_t)wPMABufAddr * PMA_ACCESS));
 80052ce:	2580      	movs	r5, #128	; 0x80
  uint32_t n = (uint32_t)wNBytes >> 1;
 80052d0:	085c      	lsrs	r4, r3, #1
  pdwVal = (__IO uint16_t *)(BaseAddr + 0x400U + ((uint32_t)wPMABufAddr * PMA_ACCESS));
 80052d2:	00ed      	lsls	r5, r5, #3
 80052d4:	1952      	adds	r2, r2, r5

  for (i = n; i != 0U; i--)
 80052d6:	0026      	movs	r6, r4
  uint8_t *pBuf = pbUsrBuf;
 80052d8:	000d      	movs	r5, r1
  pdwVal = (__IO uint16_t *)(BaseAddr + 0x400U + ((uint32_t)wPMABufAddr * PMA_ACCESS));
 80052da:	1880      	adds	r0, r0, r2
  for (i = n; i != 0U; i--)
 80052dc:	1a47      	subs	r7, r0, r1
 80052de:	197a      	adds	r2, r7, r5
 80052e0:	2e00      	cmp	r6, #0
 80052e2:	d107      	bne.n	80052f4 <USB_ReadPMA+0x28>
 80052e4:	0064      	lsls	r4, r4, #1
 80052e6:	1900      	adds	r0, r0, r4
 80052e8:	1909      	adds	r1, r1, r4
#if PMA_ACCESS > 1U
    pdwVal++;
#endif
  }

  if ((wNBytes % 2U) != 0U)
 80052ea:	07db      	lsls	r3, r3, #31
 80052ec:	d501      	bpl.n	80052f2 <USB_ReadPMA+0x26>
  {
    temp = *pdwVal;
 80052ee:	8803      	ldrh	r3, [r0, #0]
    *pBuf = (uint8_t)((temp >> 0) & 0xFFU);
 80052f0:	700b      	strb	r3, [r1, #0]
  }
}
 80052f2:	bdf0      	pop	{r4, r5, r6, r7, pc}
    temp = *(__IO uint16_t *)pdwVal;
 80052f4:	8812      	ldrh	r2, [r2, #0]
  for (i = n; i != 0U; i--)
 80052f6:	3e01      	subs	r6, #1
    temp = *(__IO uint16_t *)pdwVal;
 80052f8:	b292      	uxth	r2, r2
    *pBuf = (uint8_t)((temp >> 0) & 0xFFU);
 80052fa:	702a      	strb	r2, [r5, #0]
    *pBuf = (uint8_t)((temp >> 8) & 0xFFU);
 80052fc:	0a12      	lsrs	r2, r2, #8
 80052fe:	706a      	strb	r2, [r5, #1]
    pBuf++;
 8005300:	3502      	adds	r5, #2
  for (i = n; i != 0U; i--)
 8005302:	e7ec      	b.n	80052de <USB_ReadPMA+0x12>

08005304 <USBD_CDC_EP0_RxReady>:
  */
static uint8_t  USBD_CDC_EP0_RxReady(USBD_HandleTypeDef *pdev)
{
  USBD_CDC_HandleTypeDef   *hcdc = (USBD_CDC_HandleTypeDef *) pdev->pClassData;

  if ((pdev->pUserData != NULL) && (hcdc->CmdOpCode != 0xFFU))
 8005304:	23af      	movs	r3, #175	; 0xaf
 8005306:	009b      	lsls	r3, r3, #2
 8005308:	58c3      	ldr	r3, [r0, r3]
{
 800530a:	b570      	push	{r4, r5, r6, lr}
  if ((pdev->pUserData != NULL) && (hcdc->CmdOpCode != 0xFFU))
 800530c:	2b00      	cmp	r3, #0
 800530e:	d00e      	beq.n	800532e <USBD_CDC_EP0_RxReady+0x2a>
  USBD_CDC_HandleTypeDef   *hcdc = (USBD_CDC_HandleTypeDef *) pdev->pClassData;
 8005310:	22ae      	movs	r2, #174	; 0xae
  if ((pdev->pUserData != NULL) && (hcdc->CmdOpCode != 0xFFU))
 8005312:	2580      	movs	r5, #128	; 0x80
  USBD_CDC_HandleTypeDef   *hcdc = (USBD_CDC_HandleTypeDef *) pdev->pClassData;
 8005314:	0092      	lsls	r2, r2, #2
 8005316:	5884      	ldr	r4, [r0, r2]
  if ((pdev->pUserData != NULL) && (hcdc->CmdOpCode != 0xFFU))
 8005318:	00ad      	lsls	r5, r5, #2
 800531a:	5d60      	ldrb	r0, [r4, r5]
 800531c:	28ff      	cmp	r0, #255	; 0xff
 800531e:	d006      	beq.n	800532e <USBD_CDC_EP0_RxReady+0x2a>
  {
    ((USBD_CDC_ItfTypeDef *)pdev->pUserData)->Control(hcdc->CmdOpCode,
 8005320:	4a04      	ldr	r2, [pc, #16]	; (8005334 <USBD_CDC_EP0_RxReady+0x30>)
 8005322:	689b      	ldr	r3, [r3, #8]
 8005324:	0021      	movs	r1, r4
 8005326:	5ca2      	ldrb	r2, [r4, r2]
 8005328:	4798      	blx	r3
                                                      (uint8_t *)(void *)hcdc->data,
                                                      (uint16_t)hcdc->CmdLength);
    hcdc->CmdOpCode = 0xFFU;
 800532a:	23ff      	movs	r3, #255	; 0xff
 800532c:	5563      	strb	r3, [r4, r5]

  }
  return USBD_OK;
}
 800532e:	2000      	movs	r0, #0
 8005330:	bd70      	pop	{r4, r5, r6, pc}
 8005332:	46c0      	nop			; (mov r8, r8)
 8005334:	00000201 	.word	0x00000201

08005338 <USBD_CDC_GetFSCfgDesc>:
  * @param  length : pointer data length
  * @retval pointer to descriptor buffer
  */
static uint8_t  *USBD_CDC_GetFSCfgDesc(uint16_t *length)
{
  *length = sizeof(USBD_CDC_CfgFSDesc);
 8005338:	2343      	movs	r3, #67	; 0x43
 800533a:	8003      	strh	r3, [r0, #0]
  return USBD_CDC_CfgFSDesc;
}
 800533c:	4800      	ldr	r0, [pc, #0]	; (8005340 <USBD_CDC_GetFSCfgDesc+0x8>)
 800533e:	4770      	bx	lr
 8005340:	20000088 	.word	0x20000088

08005344 <USBD_CDC_GetHSCfgDesc>:
  * @param  length : pointer data length
  * @retval pointer to descriptor buffer
  */
static uint8_t  *USBD_CDC_GetHSCfgDesc(uint16_t *length)
{
  *length = sizeof(USBD_CDC_CfgHSDesc);
 8005344:	2343      	movs	r3, #67	; 0x43
 8005346:	8003      	strh	r3, [r0, #0]
  return USBD_CDC_CfgHSDesc;
}
 8005348:	4800      	ldr	r0, [pc, #0]	; (800534c <USBD_CDC_GetHSCfgDesc+0x8>)
 800534a:	4770      	bx	lr
 800534c:	200000cc 	.word	0x200000cc

08005350 <USBD_CDC_GetOtherSpeedCfgDesc>:
  * @param  length : pointer data length
  * @retval pointer to descriptor buffer
  */
static uint8_t  *USBD_CDC_GetOtherSpeedCfgDesc(uint16_t *length)
{
  *length = sizeof(USBD_CDC_OtherSpeedCfgDesc);
 8005350:	2343      	movs	r3, #67	; 0x43
 8005352:	8003      	strh	r3, [r0, #0]
  return USBD_CDC_OtherSpeedCfgDesc;
}
 8005354:	4800      	ldr	r0, [pc, #0]	; (8005358 <USBD_CDC_GetOtherSpeedCfgDesc+0x8>)
 8005356:	4770      	bx	lr
 8005358:	2000011c 	.word	0x2000011c

0800535c <USBD_CDC_GetDeviceQualifierDescriptor>:
* @param  length : pointer data length
* @retval pointer to descriptor buffer
*/
uint8_t  *USBD_CDC_GetDeviceQualifierDescriptor(uint16_t *length)
{
  *length = sizeof(USBD_CDC_DeviceQualifierDesc);
 800535c:	230a      	movs	r3, #10
 800535e:	8003      	strh	r3, [r0, #0]
  return USBD_CDC_DeviceQualifierDesc;
}
 8005360:	4800      	ldr	r0, [pc, #0]	; (8005364 <USBD_CDC_GetDeviceQualifierDescriptor+0x8>)
 8005362:	4770      	bx	lr
 8005364:	20000110 	.word	0x20000110

08005368 <USBD_CDC_DataOut>:
{
 8005368:	b570      	push	{r4, r5, r6, lr}
  USBD_CDC_HandleTypeDef   *hcdc = (USBD_CDC_HandleTypeDef *) pdev->pClassData;
 800536a:	26ae      	movs	r6, #174	; 0xae
 800536c:	00b6      	lsls	r6, r6, #2
{
 800536e:	0004      	movs	r4, r0
  USBD_CDC_HandleTypeDef   *hcdc = (USBD_CDC_HandleTypeDef *) pdev->pClassData;
 8005370:	5985      	ldr	r5, [r0, r6]
  hcdc->RxLength = USBD_LL_GetRxDataSize(pdev, epnum);
 8005372:	f000 ff8f 	bl	8006294 <USBD_LL_GetRxDataSize>
 8005376:	2383      	movs	r3, #131	; 0x83
 8005378:	009b      	lsls	r3, r3, #2
 800537a:	50e8      	str	r0, [r5, r3]
  if (pdev->pClassData != NULL)
 800537c:	59a3      	ldr	r3, [r4, r6]
    return USBD_FAIL;
 800537e:	2002      	movs	r0, #2
  if (pdev->pClassData != NULL)
 8005380:	2b00      	cmp	r3, #0
 8005382:	d00a      	beq.n	800539a <USBD_CDC_DataOut+0x32>
    ((USBD_CDC_ItfTypeDef *)pdev->pUserData)->Receive(hcdc->RxBuffer, &hcdc->RxLength);
 8005384:	2383      	movs	r3, #131	; 0x83
 8005386:	2281      	movs	r2, #129	; 0x81
 8005388:	009b      	lsls	r3, r3, #2
 800538a:	18e9      	adds	r1, r5, r3
 800538c:	33b0      	adds	r3, #176	; 0xb0
 800538e:	58e3      	ldr	r3, [r4, r3]
 8005390:	0092      	lsls	r2, r2, #2
 8005392:	68db      	ldr	r3, [r3, #12]
 8005394:	58a8      	ldr	r0, [r5, r2]
 8005396:	4798      	blx	r3
    return USBD_OK;
 8005398:	2000      	movs	r0, #0
}
 800539a:	bd70      	pop	{r4, r5, r6, pc}

0800539c <USBD_CDC_DataIn>:
  USBD_CDC_HandleTypeDef *hcdc = (USBD_CDC_HandleTypeDef *)pdev->pClassData;
 800539c:	23ae      	movs	r3, #174	; 0xae
{
 800539e:	b5f7      	push	{r0, r1, r2, r4, r5, r6, r7, lr}
  USBD_CDC_HandleTypeDef *hcdc = (USBD_CDC_HandleTypeDef *)pdev->pClassData;
 80053a0:	009b      	lsls	r3, r3, #2
 80053a2:	58c3      	ldr	r3, [r0, r3]
{
 80053a4:	0005      	movs	r5, r0
 80053a6:	000f      	movs	r7, r1
    return USBD_FAIL;
 80053a8:	2002      	movs	r0, #2
  USBD_CDC_HandleTypeDef *hcdc = (USBD_CDC_HandleTypeDef *)pdev->pClassData;
 80053aa:	9301      	str	r3, [sp, #4]
  if (pdev->pClassData != NULL)
 80053ac:	2b00      	cmp	r3, #0
 80053ae:	d018      	beq.n	80053e2 <USBD_CDC_DataIn+0x46>
    if ((pdev->ep_in[epnum].total_length > 0U) && ((pdev->ep_in[epnum].total_length % hpcd->IN_ep[epnum].maxpacket) == 0U))
 80053b0:	2614      	movs	r6, #20
 80053b2:	434e      	muls	r6, r1
 80053b4:	19ae      	adds	r6, r5, r6
 80053b6:	69f0      	ldr	r0, [r6, #28]
 80053b8:	2800      	cmp	r0, #0
 80053ba:	d013      	beq.n	80053e4 <USBD_CDC_DataIn+0x48>
 80053bc:	2228      	movs	r2, #40	; 0x28
 80053be:	23b0      	movs	r3, #176	; 0xb0
 80053c0:	434a      	muls	r2, r1
 80053c2:	009b      	lsls	r3, r3, #2
 80053c4:	58eb      	ldr	r3, [r5, r3]
 80053c6:	189b      	adds	r3, r3, r2
 80053c8:	6b99      	ldr	r1, [r3, #56]	; 0x38
 80053ca:	f7fa ff53 	bl	8000274 <__aeabi_uidivmod>
 80053ce:	1e0c      	subs	r4, r1, #0
 80053d0:	d108      	bne.n	80053e4 <USBD_CDC_DataIn+0x48>
      USBD_LL_Transmit(pdev, epnum, NULL, 0U);
 80053d2:	000b      	movs	r3, r1
 80053d4:	000a      	movs	r2, r1
      pdev->ep_in[epnum].total_length = 0U;
 80053d6:	61f1      	str	r1, [r6, #28]
      USBD_LL_Transmit(pdev, epnum, NULL, 0U);
 80053d8:	0028      	movs	r0, r5
 80053da:	0039      	movs	r1, r7
 80053dc:	f000 ff3a 	bl	8006254 <USBD_LL_Transmit>
    return USBD_OK;
 80053e0:	0020      	movs	r0, r4
}
 80053e2:	bdfe      	pop	{r1, r2, r3, r4, r5, r6, r7, pc}
      hcdc->TxState = 0U;
 80053e4:	2385      	movs	r3, #133	; 0x85
 80053e6:	2000      	movs	r0, #0
 80053e8:	9a01      	ldr	r2, [sp, #4]
 80053ea:	009b      	lsls	r3, r3, #2
 80053ec:	50d0      	str	r0, [r2, r3]
 80053ee:	e7f8      	b.n	80053e2 <USBD_CDC_DataIn+0x46>

080053f0 <USBD_CDC_Setup>:
  USBD_CDC_HandleTypeDef   *hcdc = (USBD_CDC_HandleTypeDef *) pdev->pClassData;
 80053f0:	23ae      	movs	r3, #174	; 0xae
{
 80053f2:	b5f7      	push	{r0, r1, r2, r4, r5, r6, r7, lr}
  USBD_CDC_HandleTypeDef   *hcdc = (USBD_CDC_HandleTypeDef *) pdev->pClassData;
 80053f4:	009b      	lsls	r3, r3, #2
 80053f6:	58c7      	ldr	r7, [r0, r3]
  uint8_t ifalt = 0U;
 80053f8:	466b      	mov	r3, sp
  uint16_t status_info = 0U;
 80053fa:	466a      	mov	r2, sp
{
 80053fc:	000e      	movs	r6, r1
  uint8_t ifalt = 0U;
 80053fe:	1d59      	adds	r1, r3, #5
 8005400:	2300      	movs	r3, #0
{
 8005402:	0005      	movs	r5, r0
  uint8_t ifalt = 0U;
 8005404:	700b      	strb	r3, [r1, #0]
  uint16_t status_info = 0U;
 8005406:	80d3      	strh	r3, [r2, #6]
  switch (req->bmRequest & USB_REQ_TYPE_MASK)
 8005408:	7833      	ldrb	r3, [r6, #0]
  uint16_t status_info = 0U;
 800540a:	1d90      	adds	r0, r2, #6
 800540c:	001c      	movs	r4, r3
 800540e:	2260      	movs	r2, #96	; 0x60
 8005410:	4014      	ands	r4, r2
  switch (req->bmRequest & USB_REQ_TYPE_MASK)
 8005412:	4213      	tst	r3, r2
 8005414:	d02a      	beq.n	800546c <USBD_CDC_Setup+0x7c>
 8005416:	2c20      	cmp	r4, #32
 8005418:	d146      	bne.n	80054a8 <USBD_CDC_Setup+0xb8>
      if (req->wLength)
 800541a:	88f4      	ldrh	r4, [r6, #6]
 800541c:	7870      	ldrb	r0, [r6, #1]
 800541e:	2c00      	cmp	r4, #0
 8005420:	d01c      	beq.n	800545c <USBD_CDC_Setup+0x6c>
        if (req->bmRequest & 0x80U)
 8005422:	b25b      	sxtb	r3, r3
 8005424:	2b00      	cmp	r3, #0
 8005426:	da0e      	bge.n	8005446 <USBD_CDC_Setup+0x56>
          ((USBD_CDC_ItfTypeDef *)pdev->pUserData)->Control(req->bRequest,
 8005428:	23af      	movs	r3, #175	; 0xaf
 800542a:	009b      	lsls	r3, r3, #2
 800542c:	58eb      	ldr	r3, [r5, r3]
 800542e:	0022      	movs	r2, r4
 8005430:	0039      	movs	r1, r7
 8005432:	689b      	ldr	r3, [r3, #8]
 8005434:	4798      	blx	r3
          USBD_CtlSendData(pdev, (uint8_t *)(void *)hcdc->data, req->wLength);
 8005436:	0039      	movs	r1, r7
 8005438:	0028      	movs	r0, r5
 800543a:	88f2      	ldrh	r2, [r6, #6]
 800543c:	f000 fcac 	bl	8005d98 <USBD_CtlSendData>
  uint8_t ret = USBD_OK;
 8005440:	2400      	movs	r4, #0
}
 8005442:	0020      	movs	r0, r4
 8005444:	bdfe      	pop	{r1, r2, r3, r4, r5, r6, r7, pc}
          hcdc->CmdOpCode = req->bRequest;
 8005446:	2380      	movs	r3, #128	; 0x80
 8005448:	009b      	lsls	r3, r3, #2
 800544a:	54f8      	strb	r0, [r7, r3]
          hcdc->CmdLength = (uint8_t)req->wLength;
 800544c:	4b19      	ldr	r3, [pc, #100]	; (80054b4 <USBD_CDC_Setup+0xc4>)
          USBD_CtlPrepareRx(pdev, (uint8_t *)(void *)hcdc->data, req->wLength);
 800544e:	0022      	movs	r2, r4
 8005450:	0039      	movs	r1, r7
 8005452:	0028      	movs	r0, r5
          hcdc->CmdLength = (uint8_t)req->wLength;
 8005454:	54fc      	strb	r4, [r7, r3]
          USBD_CtlPrepareRx(pdev, (uint8_t *)(void *)hcdc->data, req->wLength);
 8005456:	f000 fcb5 	bl	8005dc4 <USBD_CtlPrepareRx>
 800545a:	e7f1      	b.n	8005440 <USBD_CDC_Setup+0x50>
        ((USBD_CDC_ItfTypeDef *)pdev->pUserData)->Control(req->bRequest,
 800545c:	23af      	movs	r3, #175	; 0xaf
 800545e:	009b      	lsls	r3, r3, #2
 8005460:	58eb      	ldr	r3, [r5, r3]
 8005462:	0022      	movs	r2, r4
 8005464:	0031      	movs	r1, r6
 8005466:	689b      	ldr	r3, [r3, #8]
 8005468:	4798      	blx	r3
 800546a:	e7ea      	b.n	8005442 <USBD_CDC_Setup+0x52>
      switch (req->bRequest)
 800546c:	7873      	ldrb	r3, [r6, #1]
 800546e:	2b0a      	cmp	r3, #10
 8005470:	d00e      	beq.n	8005490 <USBD_CDC_Setup+0xa0>
 8005472:	2b0b      	cmp	r3, #11
 8005474:	d013      	beq.n	800549e <USBD_CDC_Setup+0xae>
 8005476:	2b00      	cmp	r3, #0
 8005478:	d116      	bne.n	80054a8 <USBD_CDC_Setup+0xb8>
          if (pdev->dev_state == USBD_STATE_CONFIGURED)
 800547a:	23a7      	movs	r3, #167	; 0xa7
 800547c:	009b      	lsls	r3, r3, #2
 800547e:	5ceb      	ldrb	r3, [r5, r3]
 8005480:	2b03      	cmp	r3, #3
 8005482:	d111      	bne.n	80054a8 <USBD_CDC_Setup+0xb8>
            USBD_CtlSendData(pdev, (uint8_t *)(void *)&status_info, 2U);
 8005484:	2202      	movs	r2, #2
 8005486:	0001      	movs	r1, r0
            USBD_CtlSendData(pdev, &ifalt, 1U);
 8005488:	0028      	movs	r0, r5
 800548a:	f000 fc85 	bl	8005d98 <USBD_CtlSendData>
 800548e:	e7d8      	b.n	8005442 <USBD_CDC_Setup+0x52>
          if (pdev->dev_state == USBD_STATE_CONFIGURED)
 8005490:	23a7      	movs	r3, #167	; 0xa7
 8005492:	009b      	lsls	r3, r3, #2
 8005494:	5ceb      	ldrb	r3, [r5, r3]
 8005496:	2b03      	cmp	r3, #3
 8005498:	d106      	bne.n	80054a8 <USBD_CDC_Setup+0xb8>
            USBD_CtlSendData(pdev, &ifalt, 1U);
 800549a:	2201      	movs	r2, #1
 800549c:	e7f4      	b.n	8005488 <USBD_CDC_Setup+0x98>
          if (pdev->dev_state != USBD_STATE_CONFIGURED)
 800549e:	23a7      	movs	r3, #167	; 0xa7
 80054a0:	009b      	lsls	r3, r3, #2
 80054a2:	5ceb      	ldrb	r3, [r5, r3]
 80054a4:	2b03      	cmp	r3, #3
 80054a6:	d0cc      	beq.n	8005442 <USBD_CDC_Setup+0x52>
          USBD_CtlError(pdev, req);
 80054a8:	0031      	movs	r1, r6
 80054aa:	0028      	movs	r0, r5
 80054ac:	f000 fc4c 	bl	8005d48 <USBD_CtlError>
          ret = USBD_FAIL;
 80054b0:	2402      	movs	r4, #2
          break;
 80054b2:	e7c6      	b.n	8005442 <USBD_CDC_Setup+0x52>
 80054b4:	00000201 	.word	0x00000201

080054b8 <USBD_CDC_DeInit>:
{
 80054b8:	b570      	push	{r4, r5, r6, lr}
 80054ba:	0004      	movs	r4, r0
  pdev->ep_in[CDC_IN_EP & 0xFU].is_used = 0U;
 80054bc:	2500      	movs	r5, #0
  USBD_LL_CloseEP(pdev, CDC_IN_EP);
 80054be:	2181      	movs	r1, #129	; 0x81
 80054c0:	f000 fe72 	bl	80061a8 <USBD_LL_CloseEP>
  USBD_LL_CloseEP(pdev, CDC_OUT_EP);
 80054c4:	2101      	movs	r1, #1
 80054c6:	0020      	movs	r0, r4
  pdev->ep_in[CDC_IN_EP & 0xFU].is_used = 0U;
 80054c8:	62e5      	str	r5, [r4, #44]	; 0x2c
  USBD_LL_CloseEP(pdev, CDC_OUT_EP);
 80054ca:	f000 fe6d 	bl	80061a8 <USBD_LL_CloseEP>
  pdev->ep_out[CDC_OUT_EP & 0xFU].is_used = 0U;
 80054ce:	0023      	movs	r3, r4
  if (pdev->pClassData != NULL)
 80054d0:	26ae      	movs	r6, #174	; 0xae
  pdev->ep_out[CDC_OUT_EP & 0xFU].is_used = 0U;
 80054d2:	33fc      	adds	r3, #252	; 0xfc
 80054d4:	671d      	str	r5, [r3, #112]	; 0x70
  USBD_LL_CloseEP(pdev, CDC_CMD_EP);
 80054d6:	2182      	movs	r1, #130	; 0x82
 80054d8:	0020      	movs	r0, r4
  if (pdev->pClassData != NULL)
 80054da:	00b6      	lsls	r6, r6, #2
  USBD_LL_CloseEP(pdev, CDC_CMD_EP);
 80054dc:	f000 fe64 	bl	80061a8 <USBD_LL_CloseEP>
  if (pdev->pClassData != NULL)
 80054e0:	59a3      	ldr	r3, [r4, r6]
  pdev->ep_in[CDC_CMD_EP & 0xFU].is_used = 0U;
 80054e2:	6425      	str	r5, [r4, #64]	; 0x40
  if (pdev->pClassData != NULL)
 80054e4:	42ab      	cmp	r3, r5
 80054e6:	d008      	beq.n	80054fa <USBD_CDC_DeInit+0x42>
    ((USBD_CDC_ItfTypeDef *)pdev->pUserData)->DeInit();
 80054e8:	23af      	movs	r3, #175	; 0xaf
 80054ea:	009b      	lsls	r3, r3, #2
 80054ec:	58e3      	ldr	r3, [r4, r3]
 80054ee:	685b      	ldr	r3, [r3, #4]
 80054f0:	4798      	blx	r3
    USBD_free(pdev->pClassData);
 80054f2:	59a0      	ldr	r0, [r4, r6]
 80054f4:	f000 feda 	bl	80062ac <USBD_static_free>
    pdev->pClassData = NULL;
 80054f8:	51a5      	str	r5, [r4, r6]
}
 80054fa:	2000      	movs	r0, #0
 80054fc:	bd70      	pop	{r4, r5, r6, pc}

080054fe <USBD_CDC_Init>:
{
 80054fe:	b5f8      	push	{r3, r4, r5, r6, r7, lr}
 8005500:	0006      	movs	r6, r0
  if (pdev->dev_speed == USBD_SPEED_HIGH)
 8005502:	7c03      	ldrb	r3, [r0, #16]
{
 8005504:	0004      	movs	r4, r0
 8005506:	36fc      	adds	r6, #252	; 0xfc
  if (pdev->dev_speed == USBD_SPEED_HIGH)
 8005508:	2b00      	cmp	r3, #0
 800550a:	d139      	bne.n	8005580 <USBD_CDC_Init+0x82>
    USBD_LL_OpenEP(pdev, CDC_IN_EP, USBD_EP_TYPE_BULK,
 800550c:	2380      	movs	r3, #128	; 0x80
 800550e:	2202      	movs	r2, #2
 8005510:	009b      	lsls	r3, r3, #2
 8005512:	2181      	movs	r1, #129	; 0x81
 8005514:	f000 fe36 	bl	8006184 <USBD_LL_OpenEP>
    pdev->ep_in[CDC_IN_EP & 0xFU].is_used = 1U;
 8005518:	2501      	movs	r5, #1
    USBD_LL_OpenEP(pdev, CDC_OUT_EP, USBD_EP_TYPE_BULK,
 800551a:	2380      	movs	r3, #128	; 0x80
    pdev->ep_in[CDC_IN_EP & 0xFU].is_used = 1U;
 800551c:	62e5      	str	r5, [r4, #44]	; 0x2c
    USBD_LL_OpenEP(pdev, CDC_OUT_EP, USBD_EP_TYPE_BULK,
 800551e:	009b      	lsls	r3, r3, #2
    USBD_LL_OpenEP(pdev, CDC_OUT_EP, USBD_EP_TYPE_BULK,
 8005520:	0029      	movs	r1, r5
 8005522:	2202      	movs	r2, #2
 8005524:	0020      	movs	r0, r4
 8005526:	f000 fe2d 	bl	8006184 <USBD_LL_OpenEP>
  USBD_LL_OpenEP(pdev, CDC_CMD_EP, USBD_EP_TYPE_INTR, CDC_CMD_PACKET_SIZE);
 800552a:	2308      	movs	r3, #8
    pdev->ep_out[CDC_OUT_EP & 0xFU].is_used = 1U;
 800552c:	6735      	str	r5, [r6, #112]	; 0x70
  USBD_LL_OpenEP(pdev, CDC_CMD_EP, USBD_EP_TYPE_INTR, CDC_CMD_PACKET_SIZE);
 800552e:	2203      	movs	r2, #3
 8005530:	2182      	movs	r1, #130	; 0x82
 8005532:	0020      	movs	r0, r4
 8005534:	f000 fe26 	bl	8006184 <USBD_LL_OpenEP>
  pdev->ep_in[CDC_CMD_EP & 0xFU].is_used = 1U;
 8005538:	2701      	movs	r7, #1
  pdev->pClassData = USBD_malloc(sizeof(USBD_CDC_HandleTypeDef));
 800553a:	2087      	movs	r0, #135	; 0x87
  pdev->ep_in[CDC_CMD_EP & 0xFU].is_used = 1U;
 800553c:	6427      	str	r7, [r4, #64]	; 0x40
  pdev->pClassData = USBD_malloc(sizeof(USBD_CDC_HandleTypeDef));
 800553e:	0080      	lsls	r0, r0, #2
 8005540:	f000 feb0 	bl	80062a4 <USBD_static_malloc>
 8005544:	23ae      	movs	r3, #174	; 0xae
 8005546:	009b      	lsls	r3, r3, #2
 8005548:	0005      	movs	r5, r0
    ret = 1U;
 800554a:	003e      	movs	r6, r7
  pdev->pClassData = USBD_malloc(sizeof(USBD_CDC_HandleTypeDef));
 800554c:	50e0      	str	r0, [r4, r3]
  if (pdev->pClassData == NULL)
 800554e:	2800      	cmp	r0, #0
 8005550:	d014      	beq.n	800557c <USBD_CDC_Init+0x7e>
    ((USBD_CDC_ItfTypeDef *)pdev->pUserData)->Init();
 8005552:	3304      	adds	r3, #4
 8005554:	58e3      	ldr	r3, [r4, r3]
 8005556:	681b      	ldr	r3, [r3, #0]
 8005558:	4798      	blx	r3
    hcdc->TxState = 0U;
 800555a:	2385      	movs	r3, #133	; 0x85
 800555c:	2200      	movs	r2, #0
 800555e:	009b      	lsls	r3, r3, #2
 8005560:	50ea      	str	r2, [r5, r3]
    hcdc->RxState = 0U;
 8005562:	3304      	adds	r3, #4
 8005564:	50ea      	str	r2, [r5, r3]
    if (pdev->dev_speed == USBD_SPEED_HIGH)
 8005566:	2281      	movs	r2, #129	; 0x81
 8005568:	7c26      	ldrb	r6, [r4, #16]
 800556a:	0092      	lsls	r2, r2, #2
 800556c:	2e00      	cmp	r6, #0
 800556e:	d110      	bne.n	8005592 <USBD_CDC_Init+0x94>
      USBD_LL_PrepareReceive(pdev, CDC_OUT_EP, hcdc->RxBuffer,
 8005570:	0039      	movs	r1, r7
 8005572:	0020      	movs	r0, r4
 8005574:	58aa      	ldr	r2, [r5, r2]
 8005576:	3b18      	subs	r3, #24
 8005578:	f000 fe7c 	bl	8006274 <USBD_LL_PrepareReceive>
}
 800557c:	0030      	movs	r0, r6
 800557e:	bdf8      	pop	{r3, r4, r5, r6, r7, pc}
    pdev->ep_in[CDC_IN_EP & 0xFU].is_used = 1U;
 8005580:	2501      	movs	r5, #1
    USBD_LL_OpenEP(pdev, CDC_IN_EP, USBD_EP_TYPE_BULK,
 8005582:	2340      	movs	r3, #64	; 0x40
 8005584:	2202      	movs	r2, #2
 8005586:	2181      	movs	r1, #129	; 0x81
 8005588:	f000 fdfc 	bl	8006184 <USBD_LL_OpenEP>
    USBD_LL_OpenEP(pdev, CDC_OUT_EP, USBD_EP_TYPE_BULK,
 800558c:	2340      	movs	r3, #64	; 0x40
    pdev->ep_in[CDC_IN_EP & 0xFU].is_used = 1U;
 800558e:	62e5      	str	r5, [r4, #44]	; 0x2c
    USBD_LL_OpenEP(pdev, CDC_OUT_EP, USBD_EP_TYPE_BULK,
 8005590:	e7c6      	b.n	8005520 <USBD_CDC_Init+0x22>
      USBD_LL_PrepareReceive(pdev, CDC_OUT_EP, hcdc->RxBuffer,
 8005592:	2340      	movs	r3, #64	; 0x40
 8005594:	0039      	movs	r1, r7
 8005596:	0020      	movs	r0, r4
 8005598:	58aa      	ldr	r2, [r5, r2]
 800559a:	f000 fe6b 	bl	8006274 <USBD_LL_PrepareReceive>
  uint8_t ret = 0U;
 800559e:	2600      	movs	r6, #0
 80055a0:	e7ec      	b.n	800557c <USBD_CDC_Init+0x7e>

080055a2 <USBD_CDC_RegisterInterface>:
  * @param  fops: CD  Interface callback
  * @retval status
  */
uint8_t  USBD_CDC_RegisterInterface(USBD_HandleTypeDef   *pdev,
                                    USBD_CDC_ItfTypeDef *fops)
{
 80055a2:	0003      	movs	r3, r0
  uint8_t  ret = USBD_FAIL;
 80055a4:	2002      	movs	r0, #2

  if (fops != NULL)
 80055a6:	2900      	cmp	r1, #0
 80055a8:	d003      	beq.n	80055b2 <USBD_CDC_RegisterInterface+0x10>
  {
    pdev->pUserData = fops;
 80055aa:	22af      	movs	r2, #175	; 0xaf
    ret = USBD_OK;
 80055ac:	2000      	movs	r0, #0
    pdev->pUserData = fops;
 80055ae:	0092      	lsls	r2, r2, #2
 80055b0:	5099      	str	r1, [r3, r2]
  }

  return ret;
}
 80055b2:	4770      	bx	lr

080055b4 <USBD_CDC_SetTxBuffer>:
  */
uint8_t  USBD_CDC_SetTxBuffer(USBD_HandleTypeDef   *pdev,
                              uint8_t  *pbuff,
                              uint16_t length)
{
  USBD_CDC_HandleTypeDef   *hcdc = (USBD_CDC_HandleTypeDef *) pdev->pClassData;
 80055b4:	23ae      	movs	r3, #174	; 0xae
 80055b6:	009b      	lsls	r3, r3, #2
 80055b8:	58c3      	ldr	r3, [r0, r3]

  hcdc->TxBuffer = pbuff;
 80055ba:	2082      	movs	r0, #130	; 0x82
 80055bc:	0080      	lsls	r0, r0, #2
 80055be:	5019      	str	r1, [r3, r0]
  hcdc->TxLength = length;
 80055c0:	2184      	movs	r1, #132	; 0x84
 80055c2:	0089      	lsls	r1, r1, #2

  return USBD_OK;
}
 80055c4:	2000      	movs	r0, #0
  hcdc->TxLength = length;
 80055c6:	505a      	str	r2, [r3, r1]
}
 80055c8:	4770      	bx	lr

080055ca <USBD_CDC_SetRxBuffer>:
uint8_t  USBD_CDC_SetRxBuffer(USBD_HandleTypeDef   *pdev,
                              uint8_t  *pbuff)
{
  USBD_CDC_HandleTypeDef   *hcdc = (USBD_CDC_HandleTypeDef *) pdev->pClassData;

  hcdc->RxBuffer = pbuff;
 80055ca:	23ae      	movs	r3, #174	; 0xae
 80055cc:	009b      	lsls	r3, r3, #2
 80055ce:	58c2      	ldr	r2, [r0, r3]
 80055d0:	3bb4      	subs	r3, #180	; 0xb4

  return USBD_OK;
}
 80055d2:	2000      	movs	r0, #0
  hcdc->RxBuffer = pbuff;
 80055d4:	50d1      	str	r1, [r2, r3]
}
 80055d6:	4770      	bx	lr

080055d8 <USBD_CDC_TransmitPacket>:
  * @param  pdev: device instance
  * @retval status
  */
uint8_t  USBD_CDC_TransmitPacket(USBD_HandleTypeDef *pdev)
{
  USBD_CDC_HandleTypeDef   *hcdc = (USBD_CDC_HandleTypeDef *) pdev->pClassData;
 80055d8:	23ae      	movs	r3, #174	; 0xae
 80055da:	009b      	lsls	r3, r3, #2
 80055dc:	58c2      	ldr	r2, [r0, r3]
{
 80055de:	b510      	push	{r4, lr}
      return USBD_BUSY;
    }
  }
  else
  {
    return USBD_FAIL;
 80055e0:	2302      	movs	r3, #2
  if (pdev->pClassData != NULL)
 80055e2:	2a00      	cmp	r2, #0
 80055e4:	d012      	beq.n	800560c <USBD_CDC_TransmitPacket+0x34>
    if (hcdc->TxState == 0U)
 80055e6:	2185      	movs	r1, #133	; 0x85
 80055e8:	0089      	lsls	r1, r1, #2
 80055ea:	5854      	ldr	r4, [r2, r1]
 80055ec:	3b01      	subs	r3, #1
 80055ee:	2c00      	cmp	r4, #0
 80055f0:	d10c      	bne.n	800560c <USBD_CDC_TransmitPacket+0x34>
      hcdc->TxState = 1U;
 80055f2:	5053      	str	r3, [r2, r1]
      pdev->ep_in[CDC_IN_EP & 0xFU].total_length = hcdc->TxLength;
 80055f4:	2384      	movs	r3, #132	; 0x84
 80055f6:	009b      	lsls	r3, r3, #2
 80055f8:	58d3      	ldr	r3, [r2, r3]
      USBD_LL_Transmit(pdev, CDC_IN_EP, hcdc->TxBuffer,
 80055fa:	390c      	subs	r1, #12
 80055fc:	5852      	ldr	r2, [r2, r1]
 80055fe:	3988      	subs	r1, #136	; 0x88
      pdev->ep_in[CDC_IN_EP & 0xFU].total_length = hcdc->TxLength;
 8005600:	6303      	str	r3, [r0, #48]	; 0x30
      USBD_LL_Transmit(pdev, CDC_IN_EP, hcdc->TxBuffer,
 8005602:	39ff      	subs	r1, #255	; 0xff
 8005604:	b29b      	uxth	r3, r3
 8005606:	f000 fe25 	bl	8006254 <USBD_LL_Transmit>
      return USBD_OK;
 800560a:	0023      	movs	r3, r4
  }
}
 800560c:	0018      	movs	r0, r3
 800560e:	bd10      	pop	{r4, pc}

08005610 <USBD_CDC_ReceivePacket>:
  * @param  pdev: device instance
  * @retval status
  */
uint8_t  USBD_CDC_ReceivePacket(USBD_HandleTypeDef *pdev)
{
  USBD_CDC_HandleTypeDef   *hcdc = (USBD_CDC_HandleTypeDef *) pdev->pClassData;
 8005610:	23ae      	movs	r3, #174	; 0xae
 8005612:	009b      	lsls	r3, r3, #2
 8005614:	58c3      	ldr	r3, [r0, r3]
{
 8005616:	b510      	push	{r4, lr}
    }
    return USBD_OK;
  }
  else
  {
    return USBD_FAIL;
 8005618:	2402      	movs	r4, #2
  if (pdev->pClassData != NULL)
 800561a:	2b00      	cmp	r3, #0
 800561c:	d00a      	beq.n	8005634 <USBD_CDC_ReceivePacket+0x24>
    if (pdev->dev_speed == USBD_SPEED_HIGH)
 800561e:	2281      	movs	r2, #129	; 0x81
 8005620:	7c04      	ldrb	r4, [r0, #16]
 8005622:	0092      	lsls	r2, r2, #2
 8005624:	589a      	ldr	r2, [r3, r2]
 8005626:	2c00      	cmp	r4, #0
 8005628:	d106      	bne.n	8005638 <USBD_CDC_ReceivePacket+0x28>
      USBD_LL_PrepareReceive(pdev,
 800562a:	2380      	movs	r3, #128	; 0x80
 800562c:	2101      	movs	r1, #1
 800562e:	009b      	lsls	r3, r3, #2
 8005630:	f000 fe20 	bl	8006274 <USBD_LL_PrepareReceive>
  }
}
 8005634:	0020      	movs	r0, r4
 8005636:	bd10      	pop	{r4, pc}
      USBD_LL_PrepareReceive(pdev,
 8005638:	2340      	movs	r3, #64	; 0x40
 800563a:	2101      	movs	r1, #1
 800563c:	f000 fe1a 	bl	8006274 <USBD_LL_PrepareReceive>
    return USBD_OK;
 8005640:	2400      	movs	r4, #0
 8005642:	e7f7      	b.n	8005634 <USBD_CDC_ReceivePacket+0x24>

08005644 <USBD_Init>:
  if (pdev == NULL)
  {
#if (USBD_DEBUG_LEVEL > 1U)
    USBD_ErrLog("Invalid Device handle");
#endif
    return USBD_FAIL;
 8005644:	2302      	movs	r3, #2
{
 8005646:	b510      	push	{r4, lr}
  if (pdev == NULL)
 8005648:	2800      	cmp	r0, #0
 800564a:	d013      	beq.n	8005674 <USBD_Init+0x30>
  }

  /* Unlink previous class*/
  if (pdev->pClass != NULL)
 800564c:	23ad      	movs	r3, #173	; 0xad
 800564e:	009b      	lsls	r3, r3, #2
 8005650:	58c4      	ldr	r4, [r0, r3]
 8005652:	2c00      	cmp	r4, #0
 8005654:	d001      	beq.n	800565a <USBD_Init+0x16>
  {
    pdev->pClass = NULL;
 8005656:	2400      	movs	r4, #0
 8005658:	50c4      	str	r4, [r0, r3]
  }

  /* Assign USBD Descriptors */
  if (pdesc != NULL)
 800565a:	2900      	cmp	r1, #0
 800565c:	d002      	beq.n	8005664 <USBD_Init+0x20>
  {
    pdev->pDesc = pdesc;
 800565e:	23ac      	movs	r3, #172	; 0xac
 8005660:	009b      	lsls	r3, r3, #2
 8005662:	50c1      	str	r1, [r0, r3]
  }

  /* Set Device initial State */
  pdev->dev_state = USBD_STATE_DEFAULT;
 8005664:	23a7      	movs	r3, #167	; 0xa7
 8005666:	2101      	movs	r1, #1
 8005668:	009b      	lsls	r3, r3, #2
 800566a:	54c1      	strb	r1, [r0, r3]
  pdev->id = id;
 800566c:	7002      	strb	r2, [r0, #0]
  /* Initialize low level driver */
  USBD_LL_Init(pdev);
 800566e:	f000 fd39 	bl	80060e4 <USBD_LL_Init>

  return USBD_OK;
 8005672:	2300      	movs	r3, #0
}
 8005674:	0018      	movs	r0, r3
 8005676:	bd10      	pop	{r4, pc}

08005678 <USBD_RegisterClass>:
  * @param  pDevice : Device Handle
  * @param  pclass: Class handle
  * @retval USBD Status
  */
USBD_StatusTypeDef  USBD_RegisterClass(USBD_HandleTypeDef *pdev, USBD_ClassTypeDef *pclass)
{
 8005678:	0003      	movs	r3, r0
  else
  {
#if (USBD_DEBUG_LEVEL > 1U)
    USBD_ErrLog("Invalid Class handle");
#endif
    status = USBD_FAIL;
 800567a:	2002      	movs	r0, #2
  if (pclass != NULL)
 800567c:	2900      	cmp	r1, #0
 800567e:	d003      	beq.n	8005688 <USBD_RegisterClass+0x10>
    pdev->pClass = pclass;
 8005680:	22ad      	movs	r2, #173	; 0xad
    status = USBD_OK;
 8005682:	2000      	movs	r0, #0
    pdev->pClass = pclass;
 8005684:	0092      	lsls	r2, r2, #2
 8005686:	5099      	str	r1, [r3, r2]
  }

  return status;
}
 8005688:	4770      	bx	lr

0800568a <USBD_Start>:
  *         Start the USB Device Core.
  * @param  pdev: Device Handle
  * @retval USBD Status
  */
USBD_StatusTypeDef  USBD_Start(USBD_HandleTypeDef *pdev)
{
 800568a:	b510      	push	{r4, lr}
  /* Start the low level driver  */
  USBD_LL_Start(pdev);
 800568c:	f000 fd6a 	bl	8006164 <USBD_LL_Start>

  return USBD_OK;
}
 8005690:	2000      	movs	r0, #0
 8005692:	bd10      	pop	{r4, pc}

08005694 <USBD_SetClassConfig>:

USBD_StatusTypeDef USBD_SetClassConfig(USBD_HandleTypeDef  *pdev, uint8_t cfgidx)
{
  USBD_StatusTypeDef ret = USBD_FAIL;

  if (pdev->pClass != NULL)
 8005694:	23ad      	movs	r3, #173	; 0xad
 8005696:	009b      	lsls	r3, r3, #2
 8005698:	58c3      	ldr	r3, [r0, r3]
{
 800569a:	b510      	push	{r4, lr}
  if (pdev->pClass != NULL)
 800569c:	2b00      	cmp	r3, #0
 800569e:	d101      	bne.n	80056a4 <USBD_SetClassConfig+0x10>
  USBD_StatusTypeDef ret = USBD_FAIL;
 80056a0:	2002      	movs	r0, #2
      ret = USBD_OK;
    }
  }

  return ret;
}
 80056a2:	bd10      	pop	{r4, pc}
    if (pdev->pClass->Init(pdev, cfgidx) == 0U)
 80056a4:	681b      	ldr	r3, [r3, #0]
 80056a6:	4798      	blx	r3
 80056a8:	2800      	cmp	r0, #0
 80056aa:	d0fa      	beq.n	80056a2 <USBD_SetClassConfig+0xe>
 80056ac:	e7f8      	b.n	80056a0 <USBD_SetClassConfig+0xc>

080056ae <USBD_ClrClassConfig>:
* @retval status: USBD_StatusTypeDef
*/
USBD_StatusTypeDef USBD_ClrClassConfig(USBD_HandleTypeDef  *pdev, uint8_t cfgidx)
{
  /* Clear configuration  and De-initialize the Class process*/
  pdev->pClass->DeInit(pdev, cfgidx);
 80056ae:	23ad      	movs	r3, #173	; 0xad
{
 80056b0:	b510      	push	{r4, lr}
  pdev->pClass->DeInit(pdev, cfgidx);
 80056b2:	009b      	lsls	r3, r3, #2
 80056b4:	58c3      	ldr	r3, [r0, r3]
 80056b6:	685b      	ldr	r3, [r3, #4]
 80056b8:	4798      	blx	r3

  return USBD_OK;
}
 80056ba:	2000      	movs	r0, #0
 80056bc:	bd10      	pop	{r4, pc}
	...

080056c0 <USBD_LL_SetupStage>:
* @param  pdev: device instance
* @retval status
*/
USBD_StatusTypeDef USBD_LL_SetupStage(USBD_HandleTypeDef *pdev, uint8_t *psetup)
{
  USBD_ParseSetupRequest(&pdev->request, psetup);
 80056c0:	23aa      	movs	r3, #170	; 0xaa
 80056c2:	009b      	lsls	r3, r3, #2
{
 80056c4:	b570      	push	{r4, r5, r6, lr}
  USBD_ParseSetupRequest(&pdev->request, psetup);
 80056c6:	18c5      	adds	r5, r0, r3
{
 80056c8:	0004      	movs	r4, r0
  USBD_ParseSetupRequest(&pdev->request, psetup);
 80056ca:	0028      	movs	r0, r5
 80056cc:	f000 fb28 	bl	8005d20 <USBD_ParseSetupRequest>

  pdev->ep0_state = USBD_EP0_SETUP;
 80056d0:	23a5      	movs	r3, #165	; 0xa5
 80056d2:	2201      	movs	r2, #1
 80056d4:	009b      	lsls	r3, r3, #2
 80056d6:	50e2      	str	r2, [r4, r3]

  pdev->ep0_data_len = pdev->request.wLength;
 80056d8:	4b11      	ldr	r3, [pc, #68]	; (8005720 <USBD_LL_SetupStage+0x60>)
 80056da:	5ae2      	ldrh	r2, [r4, r3]
 80056dc:	3b16      	subs	r3, #22
 80056de:	50e2      	str	r2, [r4, r3]

  switch (pdev->request.bmRequest & 0x1FU)
 80056e0:	3310      	adds	r3, #16
 80056e2:	5ce1      	ldrb	r1, [r4, r3]
 80056e4:	231f      	movs	r3, #31
 80056e6:	400b      	ands	r3, r1
 80056e8:	2b01      	cmp	r3, #1
 80056ea:	d009      	beq.n	8005700 <USBD_LL_SetupStage+0x40>
 80056ec:	2b02      	cmp	r3, #2
 80056ee:	d00c      	beq.n	800570a <USBD_LL_SetupStage+0x4a>
 80056f0:	2b00      	cmp	r3, #0
 80056f2:	d10f      	bne.n	8005714 <USBD_LL_SetupStage+0x54>
  {
    case USB_REQ_RECIPIENT_DEVICE:
      USBD_StdDevReq(pdev, &pdev->request);
 80056f4:	0029      	movs	r1, r5
 80056f6:	0020      	movs	r0, r4
 80056f8:	f000 f91e 	bl	8005938 <USBD_StdDevReq>
      USBD_LL_StallEP(pdev, (pdev->request.bmRequest & 0x80U));
      break;
  }

  return USBD_OK;
}
 80056fc:	2000      	movs	r0, #0
 80056fe:	bd70      	pop	{r4, r5, r6, pc}
      USBD_StdItfReq(pdev, &pdev->request);
 8005700:	0029      	movs	r1, r5
 8005702:	0020      	movs	r0, r4
 8005704:	f000 fa4e 	bl	8005ba4 <USBD_StdItfReq>
      break;
 8005708:	e7f8      	b.n	80056fc <USBD_LL_SetupStage+0x3c>
      USBD_StdEPReq(pdev, &pdev->request);
 800570a:	0029      	movs	r1, r5
 800570c:	0020      	movs	r0, r4
 800570e:	f000 fa71 	bl	8005bf4 <USBD_StdEPReq>
      break;
 8005712:	e7f3      	b.n	80056fc <USBD_LL_SetupStage+0x3c>
      USBD_LL_StallEP(pdev, (pdev->request.bmRequest & 0x80U));
 8005714:	237f      	movs	r3, #127	; 0x7f
 8005716:	0020      	movs	r0, r4
 8005718:	4399      	bics	r1, r3
 800571a:	f000 fd55 	bl	80061c8 <USBD_LL_StallEP>
      break;
 800571e:	e7ed      	b.n	80056fc <USBD_LL_SetupStage+0x3c>
 8005720:	000002ae 	.word	0x000002ae

08005724 <USBD_LL_DataOutStage>:
* @param  epnum: endpoint index
* @retval status
*/
USBD_StatusTypeDef USBD_LL_DataOutStage(USBD_HandleTypeDef *pdev,
                                        uint8_t epnum, uint8_t *pdata)
{
 8005724:	b570      	push	{r4, r5, r6, lr}
 8005726:	000d      	movs	r5, r1
 8005728:	0004      	movs	r4, r0
 800572a:	0011      	movs	r1, r2
  USBD_EndpointTypeDef *pep;

  if (epnum == 0U)
 800572c:	2d00      	cmp	r5, #0
 800572e:	d12e      	bne.n	800578e <USBD_LL_DataOutStage+0x6a>
  {
    pep = &pdev->ep_out[0];

    if (pdev->ep0_state == USBD_EP0_DATA_OUT)
 8005730:	23a5      	movs	r3, #165	; 0xa5
 8005732:	009b      	lsls	r3, r3, #2
 8005734:	58c2      	ldr	r2, [r0, r3]
 8005736:	2a03      	cmp	r2, #3
 8005738:	d122      	bne.n	8005780 <USBD_LL_DataOutStage+0x5c>
    {
      if (pep->rem_length > pep->maxpacket)
 800573a:	0002      	movs	r2, r0
 800573c:	3255      	adds	r2, #85	; 0x55
 800573e:	32ff      	adds	r2, #255	; 0xff
 8005740:	68d3      	ldr	r3, [r2, #12]
 8005742:	6910      	ldr	r0, [r2, #16]
 8005744:	4283      	cmp	r3, r0
 8005746:	d90a      	bls.n	800575e <USBD_LL_DataOutStage+0x3a>
      {
        pep->rem_length -= pep->maxpacket;
 8005748:	1a1b      	subs	r3, r3, r0
 800574a:	60d3      	str	r3, [r2, #12]

        USBD_CtlContinueRx(pdev, pdata,
 800574c:	b282      	uxth	r2, r0
 800574e:	4298      	cmp	r0, r3
 8005750:	d900      	bls.n	8005754 <USBD_LL_DataOutStage+0x30>
 8005752:	b29a      	uxth	r2, r3
 8005754:	0020      	movs	r0, r4
 8005756:	f000 fb45 	bl	8005de4 <USBD_CtlContinueRx>
    /* should never be in this condition */
    return USBD_FAIL;
  }

  return USBD_OK;
}
 800575a:	0028      	movs	r0, r5
 800575c:	bd70      	pop	{r4, r5, r6, pc}
        if ((pdev->pClass->EP0_RxReady != NULL) &&
 800575e:	23ad      	movs	r3, #173	; 0xad
 8005760:	009b      	lsls	r3, r3, #2
 8005762:	58e3      	ldr	r3, [r4, r3]
 8005764:	691b      	ldr	r3, [r3, #16]
 8005766:	2b00      	cmp	r3, #0
 8005768:	d006      	beq.n	8005778 <USBD_LL_DataOutStage+0x54>
            (pdev->dev_state == USBD_STATE_CONFIGURED))
 800576a:	22a7      	movs	r2, #167	; 0xa7
 800576c:	0092      	lsls	r2, r2, #2
        if ((pdev->pClass->EP0_RxReady != NULL) &&
 800576e:	5ca2      	ldrb	r2, [r4, r2]
 8005770:	2a03      	cmp	r2, #3
 8005772:	d101      	bne.n	8005778 <USBD_LL_DataOutStage+0x54>
          pdev->pClass->EP0_RxReady(pdev);
 8005774:	0020      	movs	r0, r4
 8005776:	4798      	blx	r3
        USBD_CtlSendStatus(pdev);
 8005778:	0020      	movs	r0, r4
 800577a:	f000 fb3b 	bl	8005df4 <USBD_CtlSendStatus>
 800577e:	e7ec      	b.n	800575a <USBD_LL_DataOutStage+0x36>
      if (pdev->ep0_state == USBD_EP0_STATUS_OUT)
 8005780:	2a05      	cmp	r2, #5
 8005782:	d1ea      	bne.n	800575a <USBD_LL_DataOutStage+0x36>
        USBD_LL_StallEP(pdev, 0U);
 8005784:	0029      	movs	r1, r5
        pdev->ep0_state = USBD_EP0_IDLE;
 8005786:	50c5      	str	r5, [r0, r3]
        USBD_LL_StallEP(pdev, 0U);
 8005788:	f000 fd1e 	bl	80061c8 <USBD_LL_StallEP>
 800578c:	e7e5      	b.n	800575a <USBD_LL_DataOutStage+0x36>
  else if ((pdev->pClass->DataOut != NULL) &&
 800578e:	23ad      	movs	r3, #173	; 0xad
 8005790:	009b      	lsls	r3, r3, #2
 8005792:	58c3      	ldr	r3, [r0, r3]
 8005794:	699b      	ldr	r3, [r3, #24]
 8005796:	2b00      	cmp	r3, #0
 8005798:	d008      	beq.n	80057ac <USBD_LL_DataOutStage+0x88>
           (pdev->dev_state == USBD_STATE_CONFIGURED))
 800579a:	22a7      	movs	r2, #167	; 0xa7
 800579c:	0092      	lsls	r2, r2, #2
  else if ((pdev->pClass->DataOut != NULL) &&
 800579e:	5c82      	ldrb	r2, [r0, r2]
 80057a0:	2a03      	cmp	r2, #3
 80057a2:	d103      	bne.n	80057ac <USBD_LL_DataOutStage+0x88>
    pdev->pClass->DataOut(pdev, epnum);
 80057a4:	0029      	movs	r1, r5
 80057a6:	4798      	blx	r3
  return USBD_OK;
 80057a8:	2500      	movs	r5, #0
    pdev->pClass->DataOut(pdev, epnum);
 80057aa:	e7d6      	b.n	800575a <USBD_LL_DataOutStage+0x36>
    return USBD_FAIL;
 80057ac:	2502      	movs	r5, #2
 80057ae:	e7d4      	b.n	800575a <USBD_LL_DataOutStage+0x36>

080057b0 <USBD_LL_DataInStage>:
* @param  epnum: endpoint index
* @retval status
*/
USBD_StatusTypeDef USBD_LL_DataInStage(USBD_HandleTypeDef *pdev,
                                       uint8_t epnum, uint8_t *pdata)
{
 80057b0:	b5f8      	push	{r3, r4, r5, r6, r7, lr}
 80057b2:	000d      	movs	r5, r1
 80057b4:	0004      	movs	r4, r0
 80057b6:	0011      	movs	r1, r2
  USBD_EndpointTypeDef *pep;

  if (epnum == 0U)
 80057b8:	2d00      	cmp	r5, #0
 80057ba:	d14d      	bne.n	8005858 <USBD_LL_DataInStage+0xa8>
  {
    pep = &pdev->ep_in[0];

    if (pdev->ep0_state == USBD_EP0_DATA_IN)
 80057bc:	23a5      	movs	r3, #165	; 0xa5
 80057be:	009b      	lsls	r3, r3, #2
 80057c0:	58c3      	ldr	r3, [r0, r3]
 80057c2:	2b02      	cmp	r3, #2
 80057c4:	d141      	bne.n	800584a <USBD_LL_DataInStage+0x9a>
    {
      if (pep->rem_length > pep->maxpacket)
 80057c6:	6a03      	ldr	r3, [r0, #32]
 80057c8:	6a46      	ldr	r6, [r0, #36]	; 0x24
 80057ca:	42b3      	cmp	r3, r6
 80057cc:	d913      	bls.n	80057f6 <USBD_LL_DataInStage+0x46>
      {
        pep->rem_length -= pep->maxpacket;
 80057ce:	1b9b      	subs	r3, r3, r6
 80057d0:	6203      	str	r3, [r0, #32]

        USBD_CtlContinueSendData(pdev, pdata, (uint16_t)pep->rem_length);
 80057d2:	b29a      	uxth	r2, r3
 80057d4:	f000 faee 	bl	8005db4 <USBD_CtlContinueSendData>
        {
          USBD_CtlContinueSendData(pdev, NULL, 0U);
          pdev->ep0_data_len = 0U;

          /* Prepare endpoint for premature end of transfer */
          USBD_LL_PrepareReceive(pdev, 0U, NULL, 0U);
 80057d8:	002b      	movs	r3, r5
 80057da:	002a      	movs	r2, r5
 80057dc:	0029      	movs	r1, r5
 80057de:	0020      	movs	r0, r4
 80057e0:	f000 fd48 	bl	8006274 <USBD_LL_PrepareReceive>
      {
        USBD_LL_StallEP(pdev, 0x80U);
      }
    }

    if (pdev->dev_test_mode == 1U)
 80057e4:	23a8      	movs	r3, #168	; 0xa8
 80057e6:	009b      	lsls	r3, r3, #2
 80057e8:	5ce2      	ldrb	r2, [r4, r3]
 80057ea:	2a01      	cmp	r2, #1
 80057ec:	d101      	bne.n	80057f2 <USBD_LL_DataInStage+0x42>
    {
      USBD_RunTestMode(pdev);
      pdev->dev_test_mode = 0U;
 80057ee:	2200      	movs	r2, #0
 80057f0:	54e2      	strb	r2, [r4, r3]
    /* should never be in this condition */
    return USBD_FAIL;
  }

  return USBD_OK;
}
 80057f2:	0028      	movs	r0, r5
 80057f4:	bdf8      	pop	{r3, r4, r5, r6, r7, pc}
        if ((pep->total_length % pep->maxpacket == 0U) &&
 80057f6:	69c7      	ldr	r7, [r0, #28]
 80057f8:	0031      	movs	r1, r6
 80057fa:	0038      	movs	r0, r7
 80057fc:	f7fa fd3a 	bl	8000274 <__aeabi_uidivmod>
 8005800:	2900      	cmp	r1, #0
 8005802:	d10d      	bne.n	8005820 <USBD_LL_DataInStage+0x70>
 8005804:	42be      	cmp	r6, r7
 8005806:	d80b      	bhi.n	8005820 <USBD_LL_DataInStage+0x70>
            (pep->total_length < pdev->ep0_data_len))
 8005808:	26a6      	movs	r6, #166	; 0xa6
 800580a:	00b6      	lsls	r6, r6, #2
            (pep->total_length >= pep->maxpacket) &&
 800580c:	59a3      	ldr	r3, [r4, r6]
 800580e:	429f      	cmp	r7, r3
 8005810:	d206      	bcs.n	8005820 <USBD_LL_DataInStage+0x70>
          USBD_CtlContinueSendData(pdev, NULL, 0U);
 8005812:	002a      	movs	r2, r5
 8005814:	0029      	movs	r1, r5
 8005816:	0020      	movs	r0, r4
 8005818:	f000 facc 	bl	8005db4 <USBD_CtlContinueSendData>
          pdev->ep0_data_len = 0U;
 800581c:	51a5      	str	r5, [r4, r6]
 800581e:	e7db      	b.n	80057d8 <USBD_LL_DataInStage+0x28>
          if ((pdev->pClass->EP0_TxSent != NULL) &&
 8005820:	23ad      	movs	r3, #173	; 0xad
 8005822:	009b      	lsls	r3, r3, #2
 8005824:	58e3      	ldr	r3, [r4, r3]
 8005826:	68db      	ldr	r3, [r3, #12]
 8005828:	2b00      	cmp	r3, #0
 800582a:	d006      	beq.n	800583a <USBD_LL_DataInStage+0x8a>
              (pdev->dev_state == USBD_STATE_CONFIGURED))
 800582c:	22a7      	movs	r2, #167	; 0xa7
 800582e:	0092      	lsls	r2, r2, #2
          if ((pdev->pClass->EP0_TxSent != NULL) &&
 8005830:	5ca2      	ldrb	r2, [r4, r2]
 8005832:	2a03      	cmp	r2, #3
 8005834:	d101      	bne.n	800583a <USBD_LL_DataInStage+0x8a>
            pdev->pClass->EP0_TxSent(pdev);
 8005836:	0020      	movs	r0, r4
 8005838:	4798      	blx	r3
          USBD_LL_StallEP(pdev, 0x80U);
 800583a:	2180      	movs	r1, #128	; 0x80
 800583c:	0020      	movs	r0, r4
 800583e:	f000 fcc3 	bl	80061c8 <USBD_LL_StallEP>
          USBD_CtlReceiveStatus(pdev);
 8005842:	0020      	movs	r0, r4
 8005844:	f000 fae2 	bl	8005e0c <USBD_CtlReceiveStatus>
 8005848:	e7cc      	b.n	80057e4 <USBD_LL_DataInStage+0x34>
      if ((pdev->ep0_state == USBD_EP0_STATUS_IN) ||
 800584a:	2204      	movs	r2, #4
 800584c:	4393      	bics	r3, r2
 800584e:	d1c9      	bne.n	80057e4 <USBD_LL_DataInStage+0x34>
        USBD_LL_StallEP(pdev, 0x80U);
 8005850:	2180      	movs	r1, #128	; 0x80
 8005852:	f000 fcb9 	bl	80061c8 <USBD_LL_StallEP>
 8005856:	e7c5      	b.n	80057e4 <USBD_LL_DataInStage+0x34>
  else if ((pdev->pClass->DataIn != NULL) &&
 8005858:	23ad      	movs	r3, #173	; 0xad
 800585a:	009b      	lsls	r3, r3, #2
 800585c:	58c3      	ldr	r3, [r0, r3]
 800585e:	695b      	ldr	r3, [r3, #20]
 8005860:	2b00      	cmp	r3, #0
 8005862:	d008      	beq.n	8005876 <USBD_LL_DataInStage+0xc6>
           (pdev->dev_state == USBD_STATE_CONFIGURED))
 8005864:	22a7      	movs	r2, #167	; 0xa7
 8005866:	0092      	lsls	r2, r2, #2
  else if ((pdev->pClass->DataIn != NULL) &&
 8005868:	5c82      	ldrb	r2, [r0, r2]
 800586a:	2a03      	cmp	r2, #3
 800586c:	d103      	bne.n	8005876 <USBD_LL_DataInStage+0xc6>
    pdev->pClass->DataIn(pdev, epnum);
 800586e:	0029      	movs	r1, r5
 8005870:	4798      	blx	r3
  return USBD_OK;
 8005872:	2500      	movs	r5, #0
    pdev->pClass->DataIn(pdev, epnum);
 8005874:	e7bd      	b.n	80057f2 <USBD_LL_DataInStage+0x42>
    return USBD_FAIL;
 8005876:	2502      	movs	r5, #2
 8005878:	e7bb      	b.n	80057f2 <USBD_LL_DataInStage+0x42>

0800587a <USBD_LL_Reset>:
*/

USBD_StatusTypeDef USBD_LL_Reset(USBD_HandleTypeDef *pdev)
{
  /* Open EP0 OUT */
  USBD_LL_OpenEP(pdev, 0x00U, USBD_EP_TYPE_CTRL, USB_MAX_EP0_SIZE);
 800587a:	2200      	movs	r2, #0
{
 800587c:	b570      	push	{r4, r5, r6, lr}
 800587e:	0004      	movs	r4, r0
  USBD_LL_OpenEP(pdev, 0x00U, USBD_EP_TYPE_CTRL, USB_MAX_EP0_SIZE);
 8005880:	0011      	movs	r1, r2
 8005882:	2340      	movs	r3, #64	; 0x40
 8005884:	f000 fc7e 	bl	8006184 <USBD_LL_OpenEP>
  pdev->ep_out[0x00U & 0xFU].is_used = 1U;
 8005888:	0023      	movs	r3, r4
 800588a:	2501      	movs	r5, #1

  pdev->ep_out[0].maxpacket = USB_MAX_EP0_SIZE;
 800588c:	2640      	movs	r6, #64	; 0x40
  pdev->ep_out[0x00U & 0xFU].is_used = 1U;
 800588e:	33fc      	adds	r3, #252	; 0xfc

  /* Open EP0 IN */
  USBD_LL_OpenEP(pdev, 0x80U, USBD_EP_TYPE_CTRL, USB_MAX_EP0_SIZE);
 8005890:	2180      	movs	r1, #128	; 0x80
  pdev->ep_out[0x00U & 0xFU].is_used = 1U;
 8005892:	65dd      	str	r5, [r3, #92]	; 0x5c
  pdev->ep_out[0].maxpacket = USB_MAX_EP0_SIZE;
 8005894:	669e      	str	r6, [r3, #104]	; 0x68
  USBD_LL_OpenEP(pdev, 0x80U, USBD_EP_TYPE_CTRL, USB_MAX_EP0_SIZE);
 8005896:	2200      	movs	r2, #0
 8005898:	0033      	movs	r3, r6
 800589a:	0020      	movs	r0, r4
 800589c:	f000 fc72 	bl	8006184 <USBD_LL_OpenEP>
  pdev->ep_in[0x80U & 0xFU].is_used = 1U;

  pdev->ep_in[0].maxpacket = USB_MAX_EP0_SIZE;

  /* Upon Reset call user call back */
  pdev->dev_state = USBD_STATE_DEFAULT;
 80058a0:	23a7      	movs	r3, #167	; 0xa7
  pdev->ep0_state = USBD_EP0_IDLE;
 80058a2:	2100      	movs	r1, #0
  pdev->dev_state = USBD_STATE_DEFAULT;
 80058a4:	009b      	lsls	r3, r3, #2
  pdev->ep_in[0x80U & 0xFU].is_used = 1U;
 80058a6:	61a5      	str	r5, [r4, #24]
  pdev->ep_in[0].maxpacket = USB_MAX_EP0_SIZE;
 80058a8:	6266      	str	r6, [r4, #36]	; 0x24
  pdev->dev_state = USBD_STATE_DEFAULT;
 80058aa:	54e5      	strb	r5, [r4, r3]
  pdev->ep0_state = USBD_EP0_IDLE;
 80058ac:	3b08      	subs	r3, #8
 80058ae:	50e1      	str	r1, [r4, r3]
  pdev->dev_config = 0U;
  pdev->dev_remote_wakeup = 0U;
 80058b0:	3310      	adds	r3, #16
  pdev->dev_config = 0U;
 80058b2:	6061      	str	r1, [r4, #4]
  pdev->dev_remote_wakeup = 0U;
 80058b4:	50e1      	str	r1, [r4, r3]

  if (pdev->pClassData)
 80058b6:	3314      	adds	r3, #20
 80058b8:	58e3      	ldr	r3, [r4, r3]
 80058ba:	428b      	cmp	r3, r1
 80058bc:	d005      	beq.n	80058ca <USBD_LL_Reset+0x50>
  {
    pdev->pClass->DeInit(pdev, (uint8_t)pdev->dev_config);
 80058be:	23ad      	movs	r3, #173	; 0xad
 80058c0:	009b      	lsls	r3, r3, #2
 80058c2:	58e3      	ldr	r3, [r4, r3]
 80058c4:	0020      	movs	r0, r4
 80058c6:	685b      	ldr	r3, [r3, #4]
 80058c8:	4798      	blx	r3
  }

  return USBD_OK;
}
 80058ca:	2000      	movs	r0, #0
 80058cc:	bd70      	pop	{r4, r5, r6, pc}

080058ce <USBD_LL_SetSpeed>:
* @retval status
*/
USBD_StatusTypeDef USBD_LL_SetSpeed(USBD_HandleTypeDef *pdev,
                                    USBD_SpeedTypeDef speed)
{
  pdev->dev_speed = speed;
 80058ce:	7401      	strb	r1, [r0, #16]

  return USBD_OK;
}
 80058d0:	2000      	movs	r0, #0
 80058d2:	4770      	bx	lr

080058d4 <USBD_LL_Suspend>:
* @retval status
*/

USBD_StatusTypeDef USBD_LL_Suspend(USBD_HandleTypeDef *pdev)
{
  pdev->dev_old_state =  pdev->dev_state;
 80058d4:	23a7      	movs	r3, #167	; 0xa7
 80058d6:	009b      	lsls	r3, r3, #2
 80058d8:	5cc1      	ldrb	r1, [r0, r3]
 80058da:	4a03      	ldr	r2, [pc, #12]	; (80058e8 <USBD_LL_Suspend+0x14>)
 80058dc:	5481      	strb	r1, [r0, r2]
  pdev->dev_state  = USBD_STATE_SUSPENDED;
 80058de:	2204      	movs	r2, #4
 80058e0:	54c2      	strb	r2, [r0, r3]

  return USBD_OK;
}
 80058e2:	2000      	movs	r0, #0
 80058e4:	4770      	bx	lr
 80058e6:	46c0      	nop			; (mov r8, r8)
 80058e8:	0000029d 	.word	0x0000029d

080058ec <USBD_LL_Resume>:
* @retval status
*/

USBD_StatusTypeDef USBD_LL_Resume(USBD_HandleTypeDef *pdev)
{
  if (pdev->dev_state == USBD_STATE_SUSPENDED)
 80058ec:	23a7      	movs	r3, #167	; 0xa7
 80058ee:	009b      	lsls	r3, r3, #2
 80058f0:	5cc2      	ldrb	r2, [r0, r3]
 80058f2:	2a04      	cmp	r2, #4
 80058f4:	d102      	bne.n	80058fc <USBD_LL_Resume+0x10>
  {
    pdev->dev_state = pdev->dev_old_state;
 80058f6:	4a02      	ldr	r2, [pc, #8]	; (8005900 <USBD_LL_Resume+0x14>)
 80058f8:	5c82      	ldrb	r2, [r0, r2]
 80058fa:	54c2      	strb	r2, [r0, r3]
  }

  return USBD_OK;
}
 80058fc:	2000      	movs	r0, #0
 80058fe:	4770      	bx	lr
 8005900:	0000029d 	.word	0x0000029d

08005904 <USBD_LL_SOF>:
* @retval status
*/

USBD_StatusTypeDef USBD_LL_SOF(USBD_HandleTypeDef *pdev)
{
  if (pdev->dev_state == USBD_STATE_CONFIGURED)
 8005904:	23a7      	movs	r3, #167	; 0xa7
{
 8005906:	b510      	push	{r4, lr}
  if (pdev->dev_state == USBD_STATE_CONFIGURED)
 8005908:	009b      	lsls	r3, r3, #2
 800590a:	5cc3      	ldrb	r3, [r0, r3]
 800590c:	2b03      	cmp	r3, #3
 800590e:	d106      	bne.n	800591e <USBD_LL_SOF+0x1a>
  {
    if (pdev->pClass->SOF != NULL)
 8005910:	23ad      	movs	r3, #173	; 0xad
 8005912:	009b      	lsls	r3, r3, #2
 8005914:	58c3      	ldr	r3, [r0, r3]
 8005916:	69db      	ldr	r3, [r3, #28]
 8005918:	2b00      	cmp	r3, #0
 800591a:	d000      	beq.n	800591e <USBD_LL_SOF+0x1a>
    {
      pdev->pClass->SOF(pdev);
 800591c:	4798      	blx	r3
    }
  }

  return USBD_OK;
}
 800591e:	2000      	movs	r0, #0
 8005920:	bd10      	pop	{r4, pc}

08005922 <USBD_CtlError.constprop.0>:
* @param  pdev: device instance
* @param  req: usb request
* @retval None
*/

void USBD_CtlError(USBD_HandleTypeDef *pdev,
 8005922:	b510      	push	{r4, lr}
 8005924:	0004      	movs	r4, r0
                   USBD_SetupReqTypedef *req)
{
  USBD_LL_StallEP(pdev, 0x80U);
 8005926:	2180      	movs	r1, #128	; 0x80
 8005928:	f000 fc4e 	bl	80061c8 <USBD_LL_StallEP>
  USBD_LL_StallEP(pdev, 0U);
 800592c:	2100      	movs	r1, #0
 800592e:	0020      	movs	r0, r4
 8005930:	f000 fc4a 	bl	80061c8 <USBD_LL_StallEP>
}
 8005934:	bd10      	pop	{r4, pc}
	...

08005938 <USBD_StdDevReq>:
{
 8005938:	2260      	movs	r2, #96	; 0x60
 800593a:	780b      	ldrb	r3, [r1, #0]
 800593c:	b573      	push	{r0, r1, r4, r5, r6, lr}
 800593e:	4013      	ands	r3, r2
 8005940:	000d      	movs	r5, r1
  switch (req->bmRequest & USB_REQ_TYPE_MASK)
 8005942:	0019      	movs	r1, r3
 8005944:	1892      	adds	r2, r2, r2
 8005946:	3920      	subs	r1, #32
{
 8005948:	0004      	movs	r4, r0
  switch (req->bmRequest & USB_REQ_TYPE_MASK)
 800594a:	4211      	tst	r1, r2
 800594c:	d012      	beq.n	8005974 <USBD_StdDevReq+0x3c>
 800594e:	2b00      	cmp	r3, #0
 8005950:	d000      	beq.n	8005954 <USBD_StdDevReq+0x1c>
 8005952:	e096      	b.n	8005a82 <USBD_StdDevReq+0x14a>
      switch (req->bRequest)
 8005954:	7868      	ldrb	r0, [r5, #1]
 8005956:	2809      	cmp	r0, #9
 8005958:	d900      	bls.n	800595c <USBD_StdDevReq+0x24>
 800595a:	e092      	b.n	8005a82 <USBD_StdDevReq+0x14a>
 800595c:	f7fa fbfa 	bl	8000154 <__gnu_thumb1_case_uhi>
 8005960:	010e00f0 	.word	0x010e00f0
 8005964:	01060091 	.word	0x01060091
 8005968:	00830091 	.word	0x00830091
 800596c:	00910012 	.word	0x00910012
 8005970:	00a400da 	.word	0x00a400da
      pdev->pClass->Setup(pdev, req);
 8005974:	23ad      	movs	r3, #173	; 0xad
 8005976:	009b      	lsls	r3, r3, #2
 8005978:	58c3      	ldr	r3, [r0, r3]
 800597a:	0029      	movs	r1, r5
 800597c:	689b      	ldr	r3, [r3, #8]
 800597e:	4798      	blx	r3
}
 8005980:	2000      	movs	r0, #0
 8005982:	bd76      	pop	{r1, r2, r4, r5, r6, pc}
  uint16_t len = 0U;
 8005984:	2300      	movs	r3, #0
 8005986:	466a      	mov	r2, sp
 8005988:	80d3      	strh	r3, [r2, #6]
  switch (req->wValue >> 8)
 800598a:	886b      	ldrh	r3, [r5, #2]
 800598c:	0a18      	lsrs	r0, r3, #8
 800598e:	3801      	subs	r0, #1
 8005990:	2806      	cmp	r0, #6
 8005992:	d876      	bhi.n	8005a82 <USBD_StdDevReq+0x14a>
 8005994:	f7fa fbca 	bl	800012c <__gnu_thumb1_case_uqi>
 8005998:	75261704 	.word	0x75261704
 800599c:	4075      	.short	0x4075
 800599e:	4b          	.byte	0x4b
 800599f:	00          	.byte	0x00
      pbuf = pdev->pDesc->GetDeviceDescriptor(pdev->dev_speed, &len);
 80059a0:	23ac      	movs	r3, #172	; 0xac
 80059a2:	009b      	lsls	r3, r3, #2
 80059a4:	58e3      	ldr	r3, [r4, r3]
 80059a6:	7c20      	ldrb	r0, [r4, #16]
 80059a8:	681b      	ldr	r3, [r3, #0]
            pbuf = pdev->pDesc->GetLangIDStrDescriptor(pdev->dev_speed, &len);
 80059aa:	466a      	mov	r2, sp
 80059ac:	1d91      	adds	r1, r2, #6
 80059ae:	4798      	blx	r3
    if ((len != 0U) && (req->wLength != 0U))
 80059b0:	466b      	mov	r3, sp
 80059b2:	88d9      	ldrh	r1, [r3, #6]
 80059b4:	2900      	cmp	r1, #0
 80059b6:	d051      	beq.n	8005a5c <USBD_StdDevReq+0x124>
 80059b8:	88ea      	ldrh	r2, [r5, #6]
 80059ba:	2a00      	cmp	r2, #0
 80059bc:	d143      	bne.n	8005a46 <USBD_StdDevReq+0x10e>
        USBD_CtlSendStatus(pdev);
 80059be:	0020      	movs	r0, r4
 80059c0:	f000 fa18 	bl	8005df4 <USBD_CtlSendStatus>
 80059c4:	e7dc      	b.n	8005980 <USBD_StdDevReq+0x48>
      if (pdev->dev_speed == USBD_SPEED_HIGH)
 80059c6:	23ad      	movs	r3, #173	; 0xad
 80059c8:	7c22      	ldrb	r2, [r4, #16]
 80059ca:	009b      	lsls	r3, r3, #2
 80059cc:	58e3      	ldr	r3, [r4, r3]
 80059ce:	2a00      	cmp	r2, #0
 80059d0:	d106      	bne.n	80059e0 <USBD_StdDevReq+0xa8>
        pbuf = pdev->pClass->GetHSConfigDescriptor(&len);
 80059d2:	6a9b      	ldr	r3, [r3, #40]	; 0x28
        pbuf = pdev->pClass->GetFSConfigDescriptor(&len);
 80059d4:	466a      	mov	r2, sp
 80059d6:	1d90      	adds	r0, r2, #6
 80059d8:	4798      	blx	r3
        pbuf[1] = USB_DESC_TYPE_CONFIGURATION;
 80059da:	2302      	movs	r3, #2
        pbuf[1] = USB_DESC_TYPE_OTHER_SPEED_CONFIGURATION;
 80059dc:	7043      	strb	r3, [r0, #1]
  if (err != 0U)
 80059de:	e7e7      	b.n	80059b0 <USBD_StdDevReq+0x78>
        pbuf = pdev->pClass->GetFSConfigDescriptor(&len);
 80059e0:	6adb      	ldr	r3, [r3, #44]	; 0x2c
 80059e2:	e7f7      	b.n	80059d4 <USBD_StdDevReq+0x9c>
      switch ((uint8_t)(req->wValue))
 80059e4:	b2d8      	uxtb	r0, r3
 80059e6:	2805      	cmp	r0, #5
 80059e8:	d84b      	bhi.n	8005a82 <USBD_StdDevReq+0x14a>
 80059ea:	23ac      	movs	r3, #172	; 0xac
 80059ec:	009b      	lsls	r3, r3, #2
          if (pdev->pDesc->GetInterfaceStrDescriptor != NULL)
 80059ee:	58e3      	ldr	r3, [r4, r3]
 80059f0:	f7fa fb9c 	bl	800012c <__gnu_thumb1_case_uqi>
 80059f4:	0c0a0803 	.word	0x0c0a0803
 80059f8:	100e      	.short	0x100e
          if (pdev->pDesc->GetLangIDStrDescriptor != NULL)
 80059fa:	685b      	ldr	r3, [r3, #4]
 80059fc:	2b00      	cmp	r3, #0
 80059fe:	d040      	beq.n	8005a82 <USBD_StdDevReq+0x14a>
            pbuf = pdev->pDesc->GetLangIDStrDescriptor(pdev->dev_speed, &len);
 8005a00:	7c20      	ldrb	r0, [r4, #16]
 8005a02:	e7d2      	b.n	80059aa <USBD_StdDevReq+0x72>
          if (pdev->pDesc->GetManufacturerStrDescriptor != NULL)
 8005a04:	689b      	ldr	r3, [r3, #8]
 8005a06:	e7f9      	b.n	80059fc <USBD_StdDevReq+0xc4>
          if (pdev->pDesc->GetProductStrDescriptor != NULL)
 8005a08:	68db      	ldr	r3, [r3, #12]
 8005a0a:	e7f7      	b.n	80059fc <USBD_StdDevReq+0xc4>
          if (pdev->pDesc->GetSerialStrDescriptor != NULL)
 8005a0c:	691b      	ldr	r3, [r3, #16]
 8005a0e:	e7f5      	b.n	80059fc <USBD_StdDevReq+0xc4>
          if (pdev->pDesc->GetConfigurationStrDescriptor != NULL)
 8005a10:	695b      	ldr	r3, [r3, #20]
 8005a12:	e7f3      	b.n	80059fc <USBD_StdDevReq+0xc4>
          if (pdev->pDesc->GetInterfaceStrDescriptor != NULL)
 8005a14:	699b      	ldr	r3, [r3, #24]
 8005a16:	e7f1      	b.n	80059fc <USBD_StdDevReq+0xc4>
      if (pdev->dev_speed == USBD_SPEED_HIGH)
 8005a18:	7c23      	ldrb	r3, [r4, #16]
 8005a1a:	2b00      	cmp	r3, #0
 8005a1c:	d131      	bne.n	8005a82 <USBD_StdDevReq+0x14a>
        pbuf = pdev->pClass->GetDeviceQualifierDescriptor(&len);
 8005a1e:	23ad      	movs	r3, #173	; 0xad
 8005a20:	466a      	mov	r2, sp
 8005a22:	009b      	lsls	r3, r3, #2
 8005a24:	58e3      	ldr	r3, [r4, r3]
 8005a26:	1d90      	adds	r0, r2, #6
 8005a28:	6b5b      	ldr	r3, [r3, #52]	; 0x34
 8005a2a:	4798      	blx	r3
  if (err != 0U)
 8005a2c:	e7c0      	b.n	80059b0 <USBD_StdDevReq+0x78>
      if (pdev->dev_speed == USBD_SPEED_HIGH)
 8005a2e:	7c23      	ldrb	r3, [r4, #16]
 8005a30:	2b00      	cmp	r3, #0
 8005a32:	d126      	bne.n	8005a82 <USBD_StdDevReq+0x14a>
        pbuf = pdev->pClass->GetOtherSpeedConfigDescriptor(&len);
 8005a34:	23ad      	movs	r3, #173	; 0xad
 8005a36:	466a      	mov	r2, sp
 8005a38:	009b      	lsls	r3, r3, #2
 8005a3a:	58e3      	ldr	r3, [r4, r3]
 8005a3c:	1d90      	adds	r0, r2, #6
 8005a3e:	6b1b      	ldr	r3, [r3, #48]	; 0x30
 8005a40:	4798      	blx	r3
        pbuf[1] = USB_DESC_TYPE_OTHER_SPEED_CONFIGURATION;
 8005a42:	2307      	movs	r3, #7
 8005a44:	e7ca      	b.n	80059dc <USBD_StdDevReq+0xa4>
      len = MIN(len, req->wLength);
 8005a46:	1c0b      	adds	r3, r1, #0
 8005a48:	4291      	cmp	r1, r2
 8005a4a:	d900      	bls.n	8005a4e <USBD_StdDevReq+0x116>
 8005a4c:	1c13      	adds	r3, r2, #0
 8005a4e:	4669      	mov	r1, sp
 8005a50:	b29a      	uxth	r2, r3
 8005a52:	80cb      	strh	r3, [r1, #6]
      (void)USBD_CtlSendData(pdev, pbuf, len);
 8005a54:	0001      	movs	r1, r0
 8005a56:	0020      	movs	r0, r4
 8005a58:	f000 f99e 	bl	8005d98 <USBD_CtlSendData>
    if (req->wLength == 0U)
 8005a5c:	88eb      	ldrh	r3, [r5, #6]
 8005a5e:	2b00      	cmp	r3, #0
 8005a60:	d000      	beq.n	8005a64 <USBD_StdDevReq+0x12c>
 8005a62:	e78d      	b.n	8005980 <USBD_StdDevReq+0x48>
 8005a64:	e7ab      	b.n	80059be <USBD_StdDevReq+0x86>
  if ((req->wIndex == 0U) && (req->wLength == 0U) && (req->wValue < 128U))
 8005a66:	88ab      	ldrh	r3, [r5, #4]
 8005a68:	2b00      	cmp	r3, #0
 8005a6a:	d10a      	bne.n	8005a82 <USBD_StdDevReq+0x14a>
 8005a6c:	88eb      	ldrh	r3, [r5, #6]
 8005a6e:	2b00      	cmp	r3, #0
 8005a70:	d107      	bne.n	8005a82 <USBD_StdDevReq+0x14a>
 8005a72:	886e      	ldrh	r6, [r5, #2]
 8005a74:	2e7f      	cmp	r6, #127	; 0x7f
 8005a76:	d804      	bhi.n	8005a82 <USBD_StdDevReq+0x14a>
    if (pdev->dev_state == USBD_STATE_CONFIGURED)
 8005a78:	25a7      	movs	r5, #167	; 0xa7
 8005a7a:	00ad      	lsls	r5, r5, #2
 8005a7c:	5d63      	ldrb	r3, [r4, r5]
 8005a7e:	2b03      	cmp	r3, #3
 8005a80:	d103      	bne.n	8005a8a <USBD_StdDevReq+0x152>
        USBD_CtlError(pdev, req);
 8005a82:	0020      	movs	r0, r4
 8005a84:	f7ff ff4d 	bl	8005922 <USBD_CtlError.constprop.0>
        break;
 8005a88:	e77a      	b.n	8005980 <USBD_StdDevReq+0x48>
      pdev->dev_address = dev_addr;
 8005a8a:	4b44      	ldr	r3, [pc, #272]	; (8005b9c <USBD_StdDevReq+0x264>)
    dev_addr = (uint8_t)(req->wValue) & 0x7FU;
 8005a8c:	b2f1      	uxtb	r1, r6
      pdev->dev_address = dev_addr;
 8005a8e:	54e1      	strb	r1, [r4, r3]
      USBD_LL_SetUSBAddress(pdev, dev_addr);
 8005a90:	0020      	movs	r0, r4
 8005a92:	f000 fbcf 	bl	8006234 <USBD_LL_SetUSBAddress>
      USBD_CtlSendStatus(pdev);
 8005a96:	0020      	movs	r0, r4
 8005a98:	f000 f9ac 	bl	8005df4 <USBD_CtlSendStatus>
        pdev->dev_state = USBD_STATE_ADDRESSED;
 8005a9c:	2302      	movs	r3, #2
      if (dev_addr != 0U)
 8005a9e:	2e00      	cmp	r6, #0
 8005aa0:	d100      	bne.n	8005aa4 <USBD_StdDevReq+0x16c>
        pdev->dev_state = USBD_STATE_DEFAULT;
 8005aa2:	2301      	movs	r3, #1
 8005aa4:	5563      	strb	r3, [r4, r5]
 8005aa6:	e76b      	b.n	8005980 <USBD_StdDevReq+0x48>
  cfgidx = (uint8_t)(req->wValue);
 8005aa8:	78a9      	ldrb	r1, [r5, #2]
 8005aaa:	4d3d      	ldr	r5, [pc, #244]	; (8005ba0 <USBD_StdDevReq+0x268>)
 8005aac:	7029      	strb	r1, [r5, #0]
  if (cfgidx > USBD_MAX_NUM_CONFIGURATION)
 8005aae:	2901      	cmp	r1, #1
 8005ab0:	d8e7      	bhi.n	8005a82 <USBD_StdDevReq+0x14a>
    switch (pdev->dev_state)
 8005ab2:	23a7      	movs	r3, #167	; 0xa7
 8005ab4:	009b      	lsls	r3, r3, #2
 8005ab6:	5ce2      	ldrb	r2, [r4, r3]
 8005ab8:	2a02      	cmp	r2, #2
 8005aba:	d009      	beq.n	8005ad0 <USBD_StdDevReq+0x198>
 8005abc:	2a03      	cmp	r2, #3
 8005abe:	d015      	beq.n	8005aec <USBD_StdDevReq+0x1b4>
        USBD_CtlError(pdev, req);
 8005ac0:	0020      	movs	r0, r4
 8005ac2:	f7ff ff2e 	bl	8005922 <USBD_CtlError.constprop.0>
        USBD_ClrClassConfig(pdev, cfgidx);
 8005ac6:	0020      	movs	r0, r4
 8005ac8:	7829      	ldrb	r1, [r5, #0]
 8005aca:	f7ff fdf0 	bl	80056ae <USBD_ClrClassConfig>
        break;
 8005ace:	e757      	b.n	8005980 <USBD_StdDevReq+0x48>
        if (cfgidx)
 8005ad0:	2900      	cmp	r1, #0
 8005ad2:	d100      	bne.n	8005ad6 <USBD_StdDevReq+0x19e>
 8005ad4:	e773      	b.n	80059be <USBD_StdDevReq+0x86>
          pdev->dev_config = cfgidx;
 8005ad6:	2101      	movs	r1, #1
          pdev->dev_state = USBD_STATE_CONFIGURED;
 8005ad8:	2203      	movs	r2, #3
          pdev->dev_config = cfgidx;
 8005ada:	6061      	str	r1, [r4, #4]
          pdev->dev_state = USBD_STATE_CONFIGURED;
 8005adc:	54e2      	strb	r2, [r4, r3]
          if (USBD_SetClassConfig(pdev, cfgidx) == USBD_FAIL)
 8005ade:	0020      	movs	r0, r4
 8005ae0:	f7ff fdd8 	bl	8005694 <USBD_SetClassConfig>
 8005ae4:	2802      	cmp	r0, #2
 8005ae6:	d000      	beq.n	8005aea <USBD_StdDevReq+0x1b2>
 8005ae8:	e769      	b.n	80059be <USBD_StdDevReq+0x86>
 8005aea:	e7ca      	b.n	8005a82 <USBD_StdDevReq+0x14a>
        if (cfgidx == 0U)
 8005aec:	2900      	cmp	r1, #0
 8005aee:	d106      	bne.n	8005afe <USBD_StdDevReq+0x1c6>
          pdev->dev_state = USBD_STATE_ADDRESSED;
 8005af0:	2202      	movs	r2, #2
          USBD_ClrClassConfig(pdev, cfgidx);
 8005af2:	0020      	movs	r0, r4
          pdev->dev_state = USBD_STATE_ADDRESSED;
 8005af4:	54e2      	strb	r2, [r4, r3]
          pdev->dev_config = cfgidx;
 8005af6:	6061      	str	r1, [r4, #4]
          USBD_ClrClassConfig(pdev, cfgidx);
 8005af8:	f7ff fdd9 	bl	80056ae <USBD_ClrClassConfig>
          USBD_CtlSendStatus(pdev);
 8005afc:	e75f      	b.n	80059be <USBD_StdDevReq+0x86>
        else if (cfgidx != pdev->dev_config)
 8005afe:	6861      	ldr	r1, [r4, #4]
 8005b00:	2901      	cmp	r1, #1
 8005b02:	d100      	bne.n	8005b06 <USBD_StdDevReq+0x1ce>
 8005b04:	e75b      	b.n	80059be <USBD_StdDevReq+0x86>
          USBD_ClrClassConfig(pdev, (uint8_t)pdev->dev_config);
 8005b06:	b2c9      	uxtb	r1, r1
 8005b08:	0020      	movs	r0, r4
 8005b0a:	f7ff fdd0 	bl	80056ae <USBD_ClrClassConfig>
          pdev->dev_config = cfgidx;
 8005b0e:	7829      	ldrb	r1, [r5, #0]
 8005b10:	6061      	str	r1, [r4, #4]
 8005b12:	e7e4      	b.n	8005ade <USBD_StdDevReq+0x1a6>
  if (req->wLength != 1U)
 8005b14:	88ea      	ldrh	r2, [r5, #6]
 8005b16:	2a01      	cmp	r2, #1
 8005b18:	d1b3      	bne.n	8005a82 <USBD_StdDevReq+0x14a>
    switch (pdev->dev_state)
 8005b1a:	23a7      	movs	r3, #167	; 0xa7
 8005b1c:	009b      	lsls	r3, r3, #2
 8005b1e:	5ce3      	ldrb	r3, [r4, r3]
 8005b20:	2b02      	cmp	r3, #2
 8005b22:	d806      	bhi.n	8005b32 <USBD_StdDevReq+0x1fa>
 8005b24:	2b00      	cmp	r3, #0
 8005b26:	d0ac      	beq.n	8005a82 <USBD_StdDevReq+0x14a>
        pdev->dev_default_config = 0U;
 8005b28:	2300      	movs	r3, #0
        USBD_CtlSendData(pdev, (uint8_t *)(void *)&pdev->dev_default_config, 1U);
 8005b2a:	0021      	movs	r1, r4
        pdev->dev_default_config = 0U;
 8005b2c:	60a3      	str	r3, [r4, #8]
        USBD_CtlSendData(pdev, (uint8_t *)(void *)&pdev->dev_default_config, 1U);
 8005b2e:	3108      	adds	r1, #8
 8005b30:	e002      	b.n	8005b38 <USBD_StdDevReq+0x200>
        USBD_CtlSendData(pdev, (uint8_t *)(void *)&pdev->dev_config, 1U);
 8005b32:	1d21      	adds	r1, r4, #4
    switch (pdev->dev_state)
 8005b34:	2b03      	cmp	r3, #3
 8005b36:	d1a4      	bne.n	8005a82 <USBD_StdDevReq+0x14a>
      USBD_CtlSendData(pdev, (uint8_t *)(void *)&pdev->dev_config_status, 2U);
 8005b38:	0020      	movs	r0, r4
 8005b3a:	f000 f92d 	bl	8005d98 <USBD_CtlSendData>
      break;
 8005b3e:	e71f      	b.n	8005980 <USBD_StdDevReq+0x48>
  switch (pdev->dev_state)
 8005b40:	23a7      	movs	r3, #167	; 0xa7
 8005b42:	009b      	lsls	r3, r3, #2
 8005b44:	5ce3      	ldrb	r3, [r4, r3]
 8005b46:	3b01      	subs	r3, #1
 8005b48:	2b02      	cmp	r3, #2
 8005b4a:	d89a      	bhi.n	8005a82 <USBD_StdDevReq+0x14a>
      if (req->wLength != 0x2U)
 8005b4c:	88eb      	ldrh	r3, [r5, #6]
 8005b4e:	2b02      	cmp	r3, #2
 8005b50:	d197      	bne.n	8005a82 <USBD_StdDevReq+0x14a>
      pdev->dev_config_status = USB_CONFIG_SELF_POWERED;
 8005b52:	3b01      	subs	r3, #1
 8005b54:	60e3      	str	r3, [r4, #12]
      if (pdev->dev_remote_wakeup)
 8005b56:	23a9      	movs	r3, #169	; 0xa9
 8005b58:	009b      	lsls	r3, r3, #2
 8005b5a:	58e3      	ldr	r3, [r4, r3]
 8005b5c:	2b00      	cmp	r3, #0
 8005b5e:	d001      	beq.n	8005b64 <USBD_StdDevReq+0x22c>
        pdev->dev_config_status |= USB_CONFIG_REMOTE_WAKEUP;
 8005b60:	2303      	movs	r3, #3
 8005b62:	60e3      	str	r3, [r4, #12]
      USBD_CtlSendData(pdev, (uint8_t *)(void *)&pdev->dev_config_status, 2U);
 8005b64:	0021      	movs	r1, r4
 8005b66:	2202      	movs	r2, #2
 8005b68:	310c      	adds	r1, #12
 8005b6a:	e7e5      	b.n	8005b38 <USBD_StdDevReq+0x200>
  if (req->wValue == USB_FEATURE_REMOTE_WAKEUP)
 8005b6c:	886b      	ldrh	r3, [r5, #2]
 8005b6e:	2b01      	cmp	r3, #1
 8005b70:	d000      	beq.n	8005b74 <USBD_StdDevReq+0x23c>
 8005b72:	e705      	b.n	8005980 <USBD_StdDevReq+0x48>
    pdev->dev_remote_wakeup = 1U;
 8005b74:	22a9      	movs	r2, #169	; 0xa9
 8005b76:	0092      	lsls	r2, r2, #2
 8005b78:	50a3      	str	r3, [r4, r2]
    USBD_CtlSendStatus(pdev);
 8005b7a:	e720      	b.n	80059be <USBD_StdDevReq+0x86>
  switch (pdev->dev_state)
 8005b7c:	23a7      	movs	r3, #167	; 0xa7
 8005b7e:	009b      	lsls	r3, r3, #2
 8005b80:	5ce3      	ldrb	r3, [r4, r3]
 8005b82:	3b01      	subs	r3, #1
 8005b84:	2b02      	cmp	r3, #2
 8005b86:	d900      	bls.n	8005b8a <USBD_StdDevReq+0x252>
 8005b88:	e77b      	b.n	8005a82 <USBD_StdDevReq+0x14a>
      if (req->wValue == USB_FEATURE_REMOTE_WAKEUP)
 8005b8a:	886b      	ldrh	r3, [r5, #2]
 8005b8c:	2b01      	cmp	r3, #1
 8005b8e:	d000      	beq.n	8005b92 <USBD_StdDevReq+0x25a>
 8005b90:	e6f6      	b.n	8005980 <USBD_StdDevReq+0x48>
        pdev->dev_remote_wakeup = 0U;
 8005b92:	23a9      	movs	r3, #169	; 0xa9
 8005b94:	2200      	movs	r2, #0
 8005b96:	009b      	lsls	r3, r3, #2
 8005b98:	50e2      	str	r2, [r4, r3]
 8005b9a:	e710      	b.n	80059be <USBD_StdDevReq+0x86>
 8005b9c:	0000029e 	.word	0x0000029e
 8005ba0:	20000248 	.word	0x20000248

08005ba4 <USBD_StdItfReq>:
  switch (req->bmRequest & USB_REQ_TYPE_MASK)
 8005ba4:	2360      	movs	r3, #96	; 0x60
 8005ba6:	780a      	ldrb	r2, [r1, #0]
{
 8005ba8:	b570      	push	{r4, r5, r6, lr}
  switch (req->bmRequest & USB_REQ_TYPE_MASK)
 8005baa:	4013      	ands	r3, r2
{
 8005bac:	0004      	movs	r4, r0
 8005bae:	000d      	movs	r5, r1
  switch (req->bmRequest & USB_REQ_TYPE_MASK)
 8005bb0:	2b40      	cmp	r3, #64	; 0x40
 8005bb2:	d001      	beq.n	8005bb8 <USBD_StdItfReq+0x14>
 8005bb4:	0653      	lsls	r3, r2, #25
 8005bb6:	d419      	bmi.n	8005bec <USBD_StdItfReq+0x48>
      switch (pdev->dev_state)
 8005bb8:	23a7      	movs	r3, #167	; 0xa7
 8005bba:	009b      	lsls	r3, r3, #2
 8005bbc:	5ce3      	ldrb	r3, [r4, r3]
 8005bbe:	3b01      	subs	r3, #1
 8005bc0:	2b02      	cmp	r3, #2
 8005bc2:	d813      	bhi.n	8005bec <USBD_StdItfReq+0x48>
          if (LOBYTE(req->wIndex) <= USBD_MAX_NUM_INTERFACES)
 8005bc4:	792b      	ldrb	r3, [r5, #4]
 8005bc6:	2b01      	cmp	r3, #1
 8005bc8:	d810      	bhi.n	8005bec <USBD_StdItfReq+0x48>
            ret = (USBD_StatusTypeDef)pdev->pClass->Setup(pdev, req);
 8005bca:	23ad      	movs	r3, #173	; 0xad
 8005bcc:	009b      	lsls	r3, r3, #2
 8005bce:	58e3      	ldr	r3, [r4, r3]
 8005bd0:	0029      	movs	r1, r5
 8005bd2:	689b      	ldr	r3, [r3, #8]
 8005bd4:	0020      	movs	r0, r4
 8005bd6:	4798      	blx	r3
            if ((req->wLength == 0U) && (ret == USBD_OK))
 8005bd8:	88eb      	ldrh	r3, [r5, #6]
 8005bda:	2b00      	cmp	r3, #0
 8005bdc:	d104      	bne.n	8005be8 <USBD_StdItfReq+0x44>
 8005bde:	2800      	cmp	r0, #0
 8005be0:	d102      	bne.n	8005be8 <USBD_StdItfReq+0x44>
              USBD_CtlSendStatus(pdev);
 8005be2:	0020      	movs	r0, r4
 8005be4:	f000 f906 	bl	8005df4 <USBD_CtlSendStatus>
}
 8005be8:	2000      	movs	r0, #0
 8005bea:	bd70      	pop	{r4, r5, r6, pc}
          USBD_CtlError(pdev, req);
 8005bec:	0020      	movs	r0, r4
 8005bee:	f7ff fe98 	bl	8005922 <USBD_CtlError.constprop.0>
          break;
 8005bf2:	e7f9      	b.n	8005be8 <USBD_StdItfReq+0x44>

08005bf4 <USBD_StdEPReq>:
{
 8005bf4:	780a      	ldrb	r2, [r1, #0]
 8005bf6:	000b      	movs	r3, r1
 8005bf8:	2160      	movs	r1, #96	; 0x60
 8005bfa:	400a      	ands	r2, r1
 8005bfc:	b570      	push	{r4, r5, r6, lr}
 8005bfe:	0004      	movs	r4, r0
  switch (req->bmRequest & USB_REQ_TYPE_MASK)
 8005c00:	0010      	movs	r0, r2
 8005c02:	1849      	adds	r1, r1, r1
 8005c04:	3820      	subs	r0, #32
 8005c06:	4208      	tst	r0, r1
 8005c08:	d029      	beq.n	8005c5e <USBD_StdEPReq+0x6a>
 8005c0a:	2a00      	cmp	r2, #0
 8005c0c:	d137      	bne.n	8005c7e <USBD_StdEPReq+0x8a>
  ep_addr  = LOBYTE(req->wIndex);
 8005c0e:	8898      	ldrh	r0, [r3, #4]
      switch (req->bRequest)
 8005c10:	785a      	ldrb	r2, [r3, #1]
  ep_addr  = LOBYTE(req->wIndex);
 8005c12:	b2c1      	uxtb	r1, r0
      switch (req->bRequest)
 8005c14:	2a01      	cmp	r2, #1
 8005c16:	d045      	beq.n	8005ca4 <USBD_StdEPReq+0xb0>
 8005c18:	2a03      	cmp	r2, #3
 8005c1a:	d029      	beq.n	8005c70 <USBD_StdEPReq+0x7c>
 8005c1c:	2a00      	cmp	r2, #0
 8005c1e:	d12e      	bne.n	8005c7e <USBD_StdEPReq+0x8a>
          switch (pdev->dev_state)
 8005c20:	23a7      	movs	r3, #167	; 0xa7
 8005c22:	009b      	lsls	r3, r3, #2
 8005c24:	5ce3      	ldrb	r3, [r4, r3]
 8005c26:	2b02      	cmp	r3, #2
 8005c28:	d056      	beq.n	8005cd8 <USBD_StdEPReq+0xe4>
 8005c2a:	2b03      	cmp	r3, #3
 8005c2c:	d127      	bne.n	8005c7e <USBD_StdEPReq+0x8a>
              if ((ep_addr & 0x80U) == 0x80U)
 8005c2e:	220f      	movs	r2, #15
 8005c30:	2314      	movs	r3, #20
 8005c32:	400a      	ands	r2, r1
                if (pdev->ep_in[ep_addr & 0xFU].is_used == 0U)
 8005c34:	435a      	muls	r2, r3
 8005c36:	18a2      	adds	r2, r4, r2
              if ((ep_addr & 0x80U) == 0x80U)
 8005c38:	0600      	lsls	r0, r0, #24
 8005c3a:	d55d      	bpl.n	8005cf8 <USBD_StdEPReq+0x104>
                if (pdev->ep_in[ep_addr & 0xFU].is_used == 0U)
 8005c3c:	6992      	ldr	r2, [r2, #24]
 8005c3e:	2a00      	cmp	r2, #0
 8005c40:	d01d      	beq.n	8005c7e <USBD_StdEPReq+0x8a>
              pep = ((ep_addr & 0x80U) == 0x80U) ? &pdev->ep_in[ep_addr & 0x7FU] : \
 8005c42:	257f      	movs	r5, #127	; 0x7f
 8005c44:	400d      	ands	r5, r1
 8005c46:	3501      	adds	r5, #1
 8005c48:	435d      	muls	r5, r3
              if ((ep_addr == 0x00U) || (ep_addr == 0x80U))
 8005c4a:	237f      	movs	r3, #127	; 0x7f
 8005c4c:	000a      	movs	r2, r1
              pep = ((ep_addr & 0x80U) == 0x80U) ? &pdev->ep_in[ep_addr & 0x7FU] : \
 8005c4e:	1965      	adds	r5, r4, r5
              if ((ep_addr == 0x00U) || (ep_addr == 0x80U))
 8005c50:	401a      	ands	r2, r3
 8005c52:	4219      	tst	r1, r3
 8005c54:	d15a      	bne.n	8005d0c <USBD_StdEPReq+0x118>
                pep->status = 0x0000U;
 8005c56:	602a      	str	r2, [r5, #0]
              USBD_CtlSendData(pdev, (uint8_t *)(void *)&pep->status, 2U);
 8005c58:	2202      	movs	r2, #2
 8005c5a:	0029      	movs	r1, r5
 8005c5c:	e048      	b.n	8005cf0 <USBD_StdEPReq+0xfc>
      pdev->pClass->Setup(pdev, req);
 8005c5e:	22ad      	movs	r2, #173	; 0xad
 8005c60:	0092      	lsls	r2, r2, #2
 8005c62:	58a2      	ldr	r2, [r4, r2]
 8005c64:	0019      	movs	r1, r3
 8005c66:	0020      	movs	r0, r4
 8005c68:	6892      	ldr	r2, [r2, #8]
 8005c6a:	4790      	blx	r2
}
 8005c6c:	2000      	movs	r0, #0
 8005c6e:	bd70      	pop	{r4, r5, r6, pc}
          switch (pdev->dev_state)
 8005c70:	22a7      	movs	r2, #167	; 0xa7
 8005c72:	0092      	lsls	r2, r2, #2
 8005c74:	5ca2      	ldrb	r2, [r4, r2]
 8005c76:	2a02      	cmp	r2, #2
 8005c78:	d024      	beq.n	8005cc4 <USBD_StdEPReq+0xd0>
 8005c7a:	2a03      	cmp	r2, #3
 8005c7c:	d003      	beq.n	8005c86 <USBD_StdEPReq+0x92>
              USBD_CtlError(pdev, req);
 8005c7e:	0020      	movs	r0, r4
 8005c80:	f7ff fe4f 	bl	8005922 <USBD_CtlError.constprop.0>
              break;
 8005c84:	e7f2      	b.n	8005c6c <USBD_StdEPReq+0x78>
              if (req->wValue == USB_FEATURE_EP_HALT)
 8005c86:	885a      	ldrh	r2, [r3, #2]
 8005c88:	2a00      	cmp	r2, #0
 8005c8a:	d107      	bne.n	8005c9c <USBD_StdEPReq+0xa8>
                if ((ep_addr != 0x00U) &&
 8005c8c:	064a      	lsls	r2, r1, #25
 8005c8e:	d005      	beq.n	8005c9c <USBD_StdEPReq+0xa8>
                    (ep_addr != 0x80U) && (req->wLength == 0x00U))
 8005c90:	88db      	ldrh	r3, [r3, #6]
 8005c92:	2b00      	cmp	r3, #0
 8005c94:	d102      	bne.n	8005c9c <USBD_StdEPReq+0xa8>
                  USBD_LL_StallEP(pdev, ep_addr);
 8005c96:	0020      	movs	r0, r4
 8005c98:	f000 fa96 	bl	80061c8 <USBD_LL_StallEP>
              USBD_CtlSendStatus(pdev);
 8005c9c:	0020      	movs	r0, r4
 8005c9e:	f000 f8a9 	bl	8005df4 <USBD_CtlSendStatus>
              break;
 8005ca2:	e7e3      	b.n	8005c6c <USBD_StdEPReq+0x78>
          switch (pdev->dev_state)
 8005ca4:	22a7      	movs	r2, #167	; 0xa7
 8005ca6:	0092      	lsls	r2, r2, #2
 8005ca8:	5ca2      	ldrb	r2, [r4, r2]
 8005caa:	2a02      	cmp	r2, #2
 8005cac:	d00a      	beq.n	8005cc4 <USBD_StdEPReq+0xd0>
 8005cae:	2a03      	cmp	r2, #3
 8005cb0:	d1e5      	bne.n	8005c7e <USBD_StdEPReq+0x8a>
              if (req->wValue == USB_FEATURE_EP_HALT)
 8005cb2:	885b      	ldrh	r3, [r3, #2]
 8005cb4:	2b00      	cmp	r3, #0
 8005cb6:	d1d9      	bne.n	8005c6c <USBD_StdEPReq+0x78>
                if ((ep_addr & 0x7FU) != 0x00U)
 8005cb8:	064b      	lsls	r3, r1, #25
 8005cba:	d0ef      	beq.n	8005c9c <USBD_StdEPReq+0xa8>
                  USBD_LL_ClearStallEP(pdev, ep_addr);
 8005cbc:	0020      	movs	r0, r4
 8005cbe:	f000 fa93 	bl	80061e8 <USBD_LL_ClearStallEP>
 8005cc2:	e7eb      	b.n	8005c9c <USBD_StdEPReq+0xa8>
              if ((ep_addr != 0x00U) && (ep_addr != 0x80U))
 8005cc4:	064b      	lsls	r3, r1, #25
 8005cc6:	d0da      	beq.n	8005c7e <USBD_StdEPReq+0x8a>
                USBD_LL_StallEP(pdev, ep_addr);
 8005cc8:	0020      	movs	r0, r4
 8005cca:	f000 fa7d 	bl	80061c8 <USBD_LL_StallEP>
                USBD_LL_StallEP(pdev, 0x80U);
 8005cce:	2180      	movs	r1, #128	; 0x80
 8005cd0:	0020      	movs	r0, r4
 8005cd2:	f000 fa79 	bl	80061c8 <USBD_LL_StallEP>
 8005cd6:	e7c9      	b.n	8005c6c <USBD_StdEPReq+0x78>
              if ((ep_addr != 0x00U) && (ep_addr != 0x80U))
 8005cd8:	064b      	lsls	r3, r1, #25
 8005cda:	d1d0      	bne.n	8005c7e <USBD_StdEPReq+0x8a>
              pep = ((ep_addr & 0x80U) == 0x80U) ? &pdev->ep_in[ep_addr & 0x7FU] : \
 8005cdc:	0021      	movs	r1, r4
 8005cde:	3155      	adds	r1, #85	; 0x55
 8005ce0:	31ff      	adds	r1, #255	; 0xff
 8005ce2:	0603      	lsls	r3, r0, #24
 8005ce4:	d501      	bpl.n	8005cea <USBD_StdEPReq+0xf6>
 8005ce6:	3941      	subs	r1, #65	; 0x41
 8005ce8:	39ff      	subs	r1, #255	; 0xff
              pep->status = 0x0000U;
 8005cea:	2300      	movs	r3, #0
              USBD_CtlSendData(pdev, (uint8_t *)(void *)&pep->status, 2U);
 8005cec:	2202      	movs	r2, #2
              pep->status = 0x0000U;
 8005cee:	600b      	str	r3, [r1, #0]
              USBD_CtlSendData(pdev, (uint8_t *)(void *)&pep->status, 2U);
 8005cf0:	0020      	movs	r0, r4
 8005cf2:	f000 f851 	bl	8005d98 <USBD_CtlSendData>
              break;
 8005cf6:	e7b9      	b.n	8005c6c <USBD_StdEPReq+0x78>
                if (pdev->ep_out[ep_addr & 0xFU].is_used == 0U)
 8005cf8:	32fc      	adds	r2, #252	; 0xfc
 8005cfa:	6dd2      	ldr	r2, [r2, #92]	; 0x5c
 8005cfc:	2a00      	cmp	r2, #0
 8005cfe:	d0be      	beq.n	8005c7e <USBD_StdEPReq+0x8a>
                    &pdev->ep_out[ep_addr & 0x7FU];
 8005d00:	257f      	movs	r5, #127	; 0x7f
 8005d02:	400d      	ands	r5, r1
              pep = ((ep_addr & 0x80U) == 0x80U) ? &pdev->ep_in[ep_addr & 0x7FU] : \
 8005d04:	435d      	muls	r5, r3
 8005d06:	3555      	adds	r5, #85	; 0x55
 8005d08:	35ff      	adds	r5, #255	; 0xff
 8005d0a:	e79e      	b.n	8005c4a <USBD_StdEPReq+0x56>
              else if (USBD_LL_IsStallEP(pdev, ep_addr))
 8005d0c:	0020      	movs	r0, r4
 8005d0e:	f000 fa7b 	bl	8006208 <USBD_LL_IsStallEP>
 8005d12:	2800      	cmp	r0, #0
 8005d14:	d002      	beq.n	8005d1c <USBD_StdEPReq+0x128>
                pep->status = 0x0001U;
 8005d16:	2301      	movs	r3, #1
 8005d18:	602b      	str	r3, [r5, #0]
 8005d1a:	e79d      	b.n	8005c58 <USBD_StdEPReq+0x64>
                pep->status = 0x0000U;
 8005d1c:	6028      	str	r0, [r5, #0]
 8005d1e:	e79b      	b.n	8005c58 <USBD_StdEPReq+0x64>

08005d20 <USBD_ParseSetupRequest>:
  req->bmRequest = *(uint8_t *)(pdata);
 8005d20:	780b      	ldrb	r3, [r1, #0]
 8005d22:	7003      	strb	r3, [r0, #0]
  req->bRequest = *(uint8_t *)(pdata + 1U);
 8005d24:	784b      	ldrb	r3, [r1, #1]
 8005d26:	7043      	strb	r3, [r0, #1]
  req->wValue = SWAPBYTE(pdata + 2U);
 8005d28:	78ca      	ldrb	r2, [r1, #3]
 8005d2a:	788b      	ldrb	r3, [r1, #2]
 8005d2c:	0212      	lsls	r2, r2, #8
 8005d2e:	189b      	adds	r3, r3, r2
 8005d30:	8043      	strh	r3, [r0, #2]
  req->wIndex = SWAPBYTE(pdata + 4U);
 8005d32:	794a      	ldrb	r2, [r1, #5]
 8005d34:	790b      	ldrb	r3, [r1, #4]
 8005d36:	0212      	lsls	r2, r2, #8
 8005d38:	189b      	adds	r3, r3, r2
 8005d3a:	8083      	strh	r3, [r0, #4]
  req->wLength = SWAPBYTE(pdata + 6U);
 8005d3c:	79ca      	ldrb	r2, [r1, #7]
 8005d3e:	798b      	ldrb	r3, [r1, #6]
 8005d40:	0212      	lsls	r2, r2, #8
 8005d42:	189b      	adds	r3, r3, r2
 8005d44:	80c3      	strh	r3, [r0, #6]
}
 8005d46:	4770      	bx	lr

08005d48 <USBD_CtlError>:
{
 8005d48:	b510      	push	{r4, lr}
 8005d4a:	0004      	movs	r4, r0
  USBD_LL_StallEP(pdev, 0x80U);
 8005d4c:	2180      	movs	r1, #128	; 0x80
 8005d4e:	f000 fa3b 	bl	80061c8 <USBD_LL_StallEP>
  USBD_LL_StallEP(pdev, 0U);
 8005d52:	2100      	movs	r1, #0
 8005d54:	0020      	movs	r0, r4
 8005d56:	f000 fa37 	bl	80061c8 <USBD_LL_StallEP>
}
 8005d5a:	bd10      	pop	{r4, pc}

08005d5c <USBD_GetString>:
  * @param  unicode : Formatted string buffer (unicode)
  * @param  len : descriptor length
  * @retval None
  */
void USBD_GetString(uint8_t *desc, uint8_t *unicode, uint16_t *len)
{
 8005d5c:	b570      	push	{r4, r5, r6, lr}
 8005d5e:	2500      	movs	r5, #0
  */
static uint8_t USBD_GetLen(uint8_t *buf)
{
  uint8_t  len = 0U;

  while (*buf != '\0')
 8005d60:	1e46      	subs	r6, r0, #1
  if (desc != NULL)
 8005d62:	42a8      	cmp	r0, r5
 8005d64:	d00f      	beq.n	8005d86 <USBD_GetString+0x2a>
  while (*buf != '\0')
 8005d66:	002b      	movs	r3, r5
 8005d68:	3501      	adds	r5, #1
 8005d6a:	5d74      	ldrb	r4, [r6, r5]
 8005d6c:	2c00      	cmp	r4, #0
 8005d6e:	d1fa      	bne.n	8005d66 <USBD_GetString+0xa>
    *len = (uint16_t)USBD_GetLen(desc) * 2U + 2U;
 8005d70:	b2db      	uxtb	r3, r3
 8005d72:	3301      	adds	r3, #1
 8005d74:	005b      	lsls	r3, r3, #1
 8005d76:	8013      	strh	r3, [r2, #0]
    unicode[idx++] = *(uint8_t *)(void *)len;
 8005d78:	700b      	strb	r3, [r1, #0]
    unicode[idx++] = USB_DESC_TYPE_STRING;
 8005d7a:	2303      	movs	r3, #3
 8005d7c:	704b      	strb	r3, [r1, #1]
 8005d7e:	3b01      	subs	r3, #1
    while (*desc != '\0')
 8005d80:	7805      	ldrb	r5, [r0, #0]
 8005d82:	2d00      	cmp	r5, #0
 8005d84:	d100      	bne.n	8005d88 <USBD_GetString+0x2c>
}
 8005d86:	bd70      	pop	{r4, r5, r6, pc}
      unicode[idx++] = *desc++;
 8005d88:	1c5a      	adds	r2, r3, #1
 8005d8a:	54cd      	strb	r5, [r1, r3]
 8005d8c:	b2d2      	uxtb	r2, r2
      unicode[idx++] =  0U;
 8005d8e:	3302      	adds	r3, #2
      unicode[idx++] = *desc++;
 8005d90:	3001      	adds	r0, #1
      unicode[idx++] =  0U;
 8005d92:	b2db      	uxtb	r3, r3
 8005d94:	548c      	strb	r4, [r1, r2]
 8005d96:	e7f3      	b.n	8005d80 <USBD_GetString+0x24>

08005d98 <USBD_CtlSendData>:
* @param  len: length of data to be sent
* @retval status
*/
USBD_StatusTypeDef USBD_CtlSendData(USBD_HandleTypeDef *pdev,
                                    uint8_t *pbuf, uint16_t len)
{
 8005d98:	0013      	movs	r3, r2
  /* Set EP0 State */
  pdev->ep0_state = USBD_EP0_DATA_IN;
 8005d9a:	22a5      	movs	r2, #165	; 0xa5
{
 8005d9c:	b510      	push	{r4, lr}
  pdev->ep0_state = USBD_EP0_DATA_IN;
 8005d9e:	2402      	movs	r4, #2
 8005da0:	0092      	lsls	r2, r2, #2
 8005da2:	5084      	str	r4, [r0, r2]
  pdev->ep_in[0].total_length = len;
  pdev->ep_in[0].rem_length   = len;

  /* Start the transfer */
  USBD_LL_Transmit(pdev, 0x00U, pbuf, len);
 8005da4:	000a      	movs	r2, r1
  pdev->ep_in[0].total_length = len;
 8005da6:	61c3      	str	r3, [r0, #28]
  USBD_LL_Transmit(pdev, 0x00U, pbuf, len);
 8005da8:	2100      	movs	r1, #0
  pdev->ep_in[0].rem_length   = len;
 8005daa:	6203      	str	r3, [r0, #32]
  USBD_LL_Transmit(pdev, 0x00U, pbuf, len);
 8005dac:	f000 fa52 	bl	8006254 <USBD_LL_Transmit>

  return USBD_OK;
}
 8005db0:	2000      	movs	r0, #0
 8005db2:	bd10      	pop	{r4, pc}

08005db4 <USBD_CtlContinueSendData>:
* @param  len: length of data to be sent
* @retval status
*/
USBD_StatusTypeDef USBD_CtlContinueSendData(USBD_HandleTypeDef *pdev,
                                            uint8_t *pbuf, uint16_t len)
{
 8005db4:	b510      	push	{r4, lr}
 8005db6:	0013      	movs	r3, r2
  /* Start the next transfer */
  USBD_LL_Transmit(pdev, 0x00U, pbuf, len);
 8005db8:	000a      	movs	r2, r1
 8005dba:	2100      	movs	r1, #0
 8005dbc:	f000 fa4a 	bl	8006254 <USBD_LL_Transmit>

  return USBD_OK;
}
 8005dc0:	2000      	movs	r0, #0
 8005dc2:	bd10      	pop	{r4, pc}

08005dc4 <USBD_CtlPrepareRx>:
* @param  len: length of data to be received
* @retval status
*/
USBD_StatusTypeDef USBD_CtlPrepareRx(USBD_HandleTypeDef *pdev,
                                     uint8_t *pbuf, uint16_t len)
{
 8005dc4:	0013      	movs	r3, r2
  /* Set EP0 State */
  pdev->ep0_state = USBD_EP0_DATA_OUT;
 8005dc6:	22a5      	movs	r2, #165	; 0xa5
{
 8005dc8:	b510      	push	{r4, lr}
  pdev->ep0_state = USBD_EP0_DATA_OUT;
 8005dca:	2403      	movs	r4, #3
 8005dcc:	0092      	lsls	r2, r2, #2
 8005dce:	5084      	str	r4, [r0, r2]
  pdev->ep_out[0].total_length = len;
 8005dd0:	0002      	movs	r2, r0
 8005dd2:	32fc      	adds	r2, #252	; 0xfc
 8005dd4:	6613      	str	r3, [r2, #96]	; 0x60
  pdev->ep_out[0].rem_length   = len;
 8005dd6:	6653      	str	r3, [r2, #100]	; 0x64

  /* Start the transfer */
  USBD_LL_PrepareReceive(pdev, 0U, pbuf, len);
 8005dd8:	000a      	movs	r2, r1
 8005dda:	2100      	movs	r1, #0
 8005ddc:	f000 fa4a 	bl	8006274 <USBD_LL_PrepareReceive>

  return USBD_OK;
}
 8005de0:	2000      	movs	r0, #0
 8005de2:	bd10      	pop	{r4, pc}

08005de4 <USBD_CtlContinueRx>:
* @param  len: length of data to be received
* @retval status
*/
USBD_StatusTypeDef USBD_CtlContinueRx(USBD_HandleTypeDef *pdev,
                                      uint8_t *pbuf, uint16_t len)
{
 8005de4:	b510      	push	{r4, lr}
 8005de6:	0013      	movs	r3, r2
  USBD_LL_PrepareReceive(pdev, 0U, pbuf, len);
 8005de8:	000a      	movs	r2, r1
 8005dea:	2100      	movs	r1, #0
 8005dec:	f000 fa42 	bl	8006274 <USBD_LL_PrepareReceive>

  return USBD_OK;
}
 8005df0:	2000      	movs	r0, #0
 8005df2:	bd10      	pop	{r4, pc}

08005df4 <USBD_CtlSendStatus>:
* @retval status
*/
USBD_StatusTypeDef USBD_CtlSendStatus(USBD_HandleTypeDef *pdev)
{
  /* Set EP0 State */
  pdev->ep0_state = USBD_EP0_STATUS_IN;
 8005df4:	23a5      	movs	r3, #165	; 0xa5
 8005df6:	2204      	movs	r2, #4
 8005df8:	009b      	lsls	r3, r3, #2
{
 8005dfa:	b510      	push	{r4, lr}
  pdev->ep0_state = USBD_EP0_STATUS_IN;
 8005dfc:	50c2      	str	r2, [r0, r3]

  /* Start the transfer */
  USBD_LL_Transmit(pdev, 0x00U, NULL, 0U);
 8005dfe:	2300      	movs	r3, #0
 8005e00:	001a      	movs	r2, r3
 8005e02:	0019      	movs	r1, r3
 8005e04:	f000 fa26 	bl	8006254 <USBD_LL_Transmit>

  return USBD_OK;
}
 8005e08:	2000      	movs	r0, #0
 8005e0a:	bd10      	pop	{r4, pc}

08005e0c <USBD_CtlReceiveStatus>:
* @retval status
*/
USBD_StatusTypeDef USBD_CtlReceiveStatus(USBD_HandleTypeDef *pdev)
{
  /* Set EP0 State */
  pdev->ep0_state = USBD_EP0_STATUS_OUT;
 8005e0c:	23a5      	movs	r3, #165	; 0xa5
 8005e0e:	2205      	movs	r2, #5
 8005e10:	009b      	lsls	r3, r3, #2
{
 8005e12:	b510      	push	{r4, lr}
  pdev->ep0_state = USBD_EP0_STATUS_OUT;
 8005e14:	50c2      	str	r2, [r0, r3]

  /* Start the transfer */
  USBD_LL_PrepareReceive(pdev, 0U, NULL, 0U);
 8005e16:	2300      	movs	r3, #0
 8005e18:	001a      	movs	r2, r3
 8005e1a:	0019      	movs	r1, r3
 8005e1c:	f000 fa2a 	bl	8006274 <USBD_LL_PrepareReceive>

  return USBD_OK;
}
 8005e20:	2000      	movs	r0, #0
 8005e22:	bd10      	pop	{r4, pc}

08005e24 <MX_USB_DEVICE_Init>:
/**
  * Init USB device Library, add supported class and start the library
  * @retval None
  */
void MX_USB_DEVICE_Init(void)
{
 8005e24:	b510      	push	{r4, lr}
  /* USER CODE BEGIN USB_DEVICE_Init_PreTreatment */

  /* USER CODE END USB_DEVICE_Init_PreTreatment */

  /* Init Device Library, add supported class and start the library. */
  if (USBD_Init(&hUsbDeviceFS, &FS_Desc, DEVICE_FS) != USBD_OK)
 8005e26:	4c11      	ldr	r4, [pc, #68]	; (8005e6c <MX_USB_DEVICE_Init+0x48>)
 8005e28:	2200      	movs	r2, #0
 8005e2a:	0020      	movs	r0, r4
 8005e2c:	4910      	ldr	r1, [pc, #64]	; (8005e70 <MX_USB_DEVICE_Init+0x4c>)
 8005e2e:	f7ff fc09 	bl	8005644 <USBD_Init>
 8005e32:	2800      	cmp	r0, #0
 8005e34:	d001      	beq.n	8005e3a <MX_USB_DEVICE_Init+0x16>
  {
    Error_Handler();
 8005e36:	f7fa fe2b 	bl	8000a90 <Error_Handler>
  }
  if (USBD_RegisterClass(&hUsbDeviceFS, &USBD_CDC) != USBD_OK)
 8005e3a:	0020      	movs	r0, r4
 8005e3c:	490d      	ldr	r1, [pc, #52]	; (8005e74 <MX_USB_DEVICE_Init+0x50>)
 8005e3e:	f7ff fc1b 	bl	8005678 <USBD_RegisterClass>
 8005e42:	2800      	cmp	r0, #0
 8005e44:	d001      	beq.n	8005e4a <MX_USB_DEVICE_Init+0x26>
  {
    Error_Handler();
 8005e46:	f7fa fe23 	bl	8000a90 <Error_Handler>
  }
  if (USBD_CDC_RegisterInterface(&hUsbDeviceFS, &USBD_Interface_fops_FS) != USBD_OK)
 8005e4a:	0020      	movs	r0, r4
 8005e4c:	490a      	ldr	r1, [pc, #40]	; (8005e78 <MX_USB_DEVICE_Init+0x54>)
 8005e4e:	f7ff fba8 	bl	80055a2 <USBD_CDC_RegisterInterface>
 8005e52:	2800      	cmp	r0, #0
 8005e54:	d001      	beq.n	8005e5a <MX_USB_DEVICE_Init+0x36>
  {
    Error_Handler();
 8005e56:	f7fa fe1b 	bl	8000a90 <Error_Handler>
  }
  if (USBD_Start(&hUsbDeviceFS) != USBD_OK)
 8005e5a:	0020      	movs	r0, r4
 8005e5c:	f7ff fc15 	bl	800568a <USBD_Start>
 8005e60:	2800      	cmp	r0, #0
 8005e62:	d001      	beq.n	8005e68 <MX_USB_DEVICE_Init+0x44>
  {
    Error_Handler();
 8005e64:	f7fa fe14 	bl	8000a90 <Error_Handler>
  }

  /* USER CODE BEGIN USB_DEVICE_Init_PostTreatment */

  /* USER CODE END USB_DEVICE_Init_PostTreatment */
}
 8005e68:	bd10      	pop	{r4, pc}
 8005e6a:	46c0      	nop			; (mov r8, r8)
 8005e6c:	200008f8 	.word	0x200008f8
 8005e70:	20000170 	.word	0x20000170
 8005e74:	20000050 	.word	0x20000050
 8005e78:	20000160 	.word	0x20000160

08005e7c <CDC_DeInit_FS>:
static int8_t CDC_DeInit_FS(void)
{
  /* USER CODE BEGIN 4 */
  return (USBD_OK);
  /* USER CODE END 4 */
}
 8005e7c:	2000      	movs	r0, #0
 8005e7e:	4770      	bx	lr

08005e80 <CDC_Control_FS>:
    break;
  }

  return (USBD_OK);
  /* USER CODE END 5 */
}
 8005e80:	2000      	movs	r0, #0
 8005e82:	4770      	bx	lr

08005e84 <CDC_Receive_FS>:
  * @param  Buf: Buffer of data to be received
  * @param  Len: Number of data received (in bytes)
  * @retval Result of the operation: USBD_OK if all operations are OK else USBD_FAIL
  */
static int8_t CDC_Receive_FS(uint8_t* Buf, uint32_t *Len)
{
 8005e84:	b570      	push	{r4, r5, r6, lr}
 8005e86:	0004      	movs	r4, r0
  /* USER CODE BEGIN 6 */
	Test_RxPacket(Buf,*Len);
 8005e88:	6809      	ldr	r1, [r1, #0]
 8005e8a:	f7fa fd07 	bl	800089c <Test_RxPacket>
  USBD_CDC_SetRxBuffer(&hUsbDeviceFS, &Buf[0]);
 8005e8e:	4d05      	ldr	r5, [pc, #20]	; (8005ea4 <CDC_Receive_FS+0x20>)
 8005e90:	0021      	movs	r1, r4
 8005e92:	0028      	movs	r0, r5
 8005e94:	f7ff fb99 	bl	80055ca <USBD_CDC_SetRxBuffer>
  USBD_CDC_ReceivePacket(&hUsbDeviceFS);
 8005e98:	0028      	movs	r0, r5
 8005e9a:	f7ff fbb9 	bl	8005610 <USBD_CDC_ReceivePacket>
  return (USBD_OK);
  /* USER CODE END 6 */
}
 8005e9e:	2000      	movs	r0, #0
 8005ea0:	bd70      	pop	{r4, r5, r6, pc}
 8005ea2:	46c0      	nop			; (mov r8, r8)
 8005ea4:	200008f8 	.word	0x200008f8

08005ea8 <CDC_Init_FS>:
{
 8005ea8:	b510      	push	{r4, lr}
  USBD_CDC_SetTxBuffer(&hUsbDeviceFS, UserTxBufferFS, 0);
 8005eaa:	4c06      	ldr	r4, [pc, #24]	; (8005ec4 <CDC_Init_FS+0x1c>)
 8005eac:	2200      	movs	r2, #0
 8005eae:	0020      	movs	r0, r4
 8005eb0:	4905      	ldr	r1, [pc, #20]	; (8005ec8 <CDC_Init_FS+0x20>)
 8005eb2:	f7ff fb7f 	bl	80055b4 <USBD_CDC_SetTxBuffer>
  USBD_CDC_SetRxBuffer(&hUsbDeviceFS, UserRxBufferFS);
 8005eb6:	0020      	movs	r0, r4
 8005eb8:	4904      	ldr	r1, [pc, #16]	; (8005ecc <CDC_Init_FS+0x24>)
 8005eba:	f7ff fb86 	bl	80055ca <USBD_CDC_SetRxBuffer>
}
 8005ebe:	2000      	movs	r0, #0
 8005ec0:	bd10      	pop	{r4, pc}
 8005ec2:	46c0      	nop			; (mov r8, r8)
 8005ec4:	200008f8 	.word	0x200008f8
 8005ec8:	20000cbc 	.word	0x20000cbc
 8005ecc:	20000bbc 	.word	0x20000bbc

08005ed0 <CDC_Transmit_FS>:
  * @param  Buf: Buffer of data to be sent
  * @param  Len: Number of data to be sent (in bytes)
  * @retval USBD_OK if all operations are OK else USBD_FAIL or USBD_BUSY
  */
uint8_t CDC_Transmit_FS(uint8_t* Buf, uint16_t Len)
{
 8005ed0:	000a      	movs	r2, r1
  uint8_t result = USBD_OK;
  /* USER CODE BEGIN 7 */
  USBD_CDC_HandleTypeDef *hcdc = (USBD_CDC_HandleTypeDef*)hUsbDeviceFS.pClassData;
 8005ed2:	21ae      	movs	r1, #174	; 0xae
{
 8005ed4:	b510      	push	{r4, lr}
  USBD_CDC_HandleTypeDef *hcdc = (USBD_CDC_HandleTypeDef*)hUsbDeviceFS.pClassData;
 8005ed6:	4c08      	ldr	r4, [pc, #32]	; (8005ef8 <CDC_Transmit_FS+0x28>)
 8005ed8:	0089      	lsls	r1, r1, #2
{
 8005eda:	0003      	movs	r3, r0
  USBD_CDC_HandleTypeDef *hcdc = (USBD_CDC_HandleTypeDef*)hUsbDeviceFS.pClassData;
 8005edc:	5860      	ldr	r0, [r4, r1]
  if (hcdc->TxState != 0){
 8005ede:	39a4      	subs	r1, #164	; 0xa4
 8005ee0:	5841      	ldr	r1, [r0, r1]
    return USBD_BUSY;
 8005ee2:	2001      	movs	r0, #1
  if (hcdc->TxState != 0){
 8005ee4:	2900      	cmp	r1, #0
 8005ee6:	d106      	bne.n	8005ef6 <CDC_Transmit_FS+0x26>
  }
  USBD_CDC_SetTxBuffer(&hUsbDeviceFS, Buf, Len);
 8005ee8:	0019      	movs	r1, r3
 8005eea:	0020      	movs	r0, r4
 8005eec:	f7ff fb62 	bl	80055b4 <USBD_CDC_SetTxBuffer>
  result = USBD_CDC_TransmitPacket(&hUsbDeviceFS);
 8005ef0:	0020      	movs	r0, r4
 8005ef2:	f7ff fb71 	bl	80055d8 <USBD_CDC_TransmitPacket>
  /* USER CODE END 7 */
  return result;
}
 8005ef6:	bd10      	pop	{r4, pc}
 8005ef8:	200008f8 	.word	0x200008f8

08005efc <USBD_FS_DeviceDescriptor>:
  * @retval Pointer to descriptor buffer
  */
uint8_t * USBD_FS_DeviceDescriptor(USBD_SpeedTypeDef speed, uint16_t *length)
{
  UNUSED(speed);
  *length = sizeof(USBD_FS_DeviceDesc);
 8005efc:	2312      	movs	r3, #18
  return USBD_FS_DeviceDesc;
}
 8005efe:	4801      	ldr	r0, [pc, #4]	; (8005f04 <USBD_FS_DeviceDescriptor+0x8>)
  *length = sizeof(USBD_FS_DeviceDesc);
 8005f00:	800b      	strh	r3, [r1, #0]
}
 8005f02:	4770      	bx	lr
 8005f04:	2000018c 	.word	0x2000018c

08005f08 <USBD_FS_LangIDStrDescriptor>:
  * @retval Pointer to descriptor buffer
  */
uint8_t * USBD_FS_LangIDStrDescriptor(USBD_SpeedTypeDef speed, uint16_t *length)
{
  UNUSED(speed);
  *length = sizeof(USBD_LangIDDesc);
 8005f08:	2304      	movs	r3, #4
  return USBD_LangIDDesc;
}
 8005f0a:	4801      	ldr	r0, [pc, #4]	; (8005f10 <USBD_FS_LangIDStrDescriptor+0x8>)
  *length = sizeof(USBD_LangIDDesc);
 8005f0c:	800b      	strh	r3, [r1, #0]
}
 8005f0e:	4770      	bx	lr
 8005f10:	200001a0 	.word	0x200001a0

08005f14 <IntToUnicode>:
  * @param  pbuf: pointer to the buffer
  * @param  len: buffer length
  * @retval None
  */
static void IntToUnicode(uint32_t value, uint8_t * pbuf, uint8_t len)
{
 8005f14:	b530      	push	{r4, r5, lr}
      pbuf[2 * idx] = (value >> 28) + 'A' - 10;
    }

    value = value << 4;

    pbuf[2 * idx + 1] = 0;
 8005f16:	2500      	movs	r5, #0
 8005f18:	0052      	lsls	r2, r2, #1
 8005f1a:	188a      	adds	r2, r1, r2
    if (((value >> 28)) < 0xA)
 8005f1c:	0f04      	lsrs	r4, r0, #28
 8005f1e:	b2e3      	uxtb	r3, r4
 8005f20:	2c09      	cmp	r4, #9
 8005f22:	d807      	bhi.n	8005f34 <IntToUnicode+0x20>
      pbuf[2 * idx] = (value >> 28) + '0';
 8005f24:	3330      	adds	r3, #48	; 0x30
      pbuf[2 * idx] = (value >> 28) + 'A' - 10;
 8005f26:	700b      	strb	r3, [r1, #0]
    pbuf[2 * idx + 1] = 0;
 8005f28:	704d      	strb	r5, [r1, #1]
 8005f2a:	3102      	adds	r1, #2
    value = value << 4;
 8005f2c:	0100      	lsls	r0, r0, #4
  for (idx = 0; idx < len; idx++)
 8005f2e:	428a      	cmp	r2, r1
 8005f30:	d1f4      	bne.n	8005f1c <IntToUnicode+0x8>
  }
}
 8005f32:	bd30      	pop	{r4, r5, pc}
      pbuf[2 * idx] = (value >> 28) + 'A' - 10;
 8005f34:	3337      	adds	r3, #55	; 0x37
 8005f36:	e7f6      	b.n	8005f26 <IntToUnicode+0x12>

08005f38 <USBD_FS_SerialStrDescriptor>:
  *length = USB_SIZ_STRING_SERIAL;
 8005f38:	231a      	movs	r3, #26
{
 8005f3a:	b570      	push	{r4, r5, r6, lr}
  *length = USB_SIZ_STRING_SERIAL;
 8005f3c:	800b      	strh	r3, [r1, #0]
  deviceserial0 = *(uint32_t *) DEVICE_ID1;
 8005f3e:	4b0b      	ldr	r3, [pc, #44]	; (8005f6c <USBD_FS_SerialStrDescriptor+0x34>)
 8005f40:	4c0b      	ldr	r4, [pc, #44]	; (8005f70 <USBD_FS_SerialStrDescriptor+0x38>)
 8005f42:	6818      	ldr	r0, [r3, #0]
  deviceserial2 = *(uint32_t *) DEVICE_ID3;
 8005f44:	4b0b      	ldr	r3, [pc, #44]	; (8005f74 <USBD_FS_SerialStrDescriptor+0x3c>)
  deviceserial0 += deviceserial2;
 8005f46:	681b      	ldr	r3, [r3, #0]
 8005f48:	18c0      	adds	r0, r0, r3
  if (deviceserial0 != 0)
 8005f4a:	2800      	cmp	r0, #0
 8005f4c:	d00b      	beq.n	8005f66 <USBD_FS_SerialStrDescriptor+0x2e>
  deviceserial1 = *(uint32_t *) DEVICE_ID2;
 8005f4e:	4b0a      	ldr	r3, [pc, #40]	; (8005f78 <USBD_FS_SerialStrDescriptor+0x40>)
    IntToUnicode(deviceserial0, &USBD_StringSerial[2], 8);
 8005f50:	2208      	movs	r2, #8
 8005f52:	1ca1      	adds	r1, r4, #2
  deviceserial1 = *(uint32_t *) DEVICE_ID2;
 8005f54:	681d      	ldr	r5, [r3, #0]
    IntToUnicode(deviceserial0, &USBD_StringSerial[2], 8);
 8005f56:	f7ff ffdd 	bl	8005f14 <IntToUnicode>
    IntToUnicode(deviceserial1, &USBD_StringSerial[18], 4);
 8005f5a:	0021      	movs	r1, r4
 8005f5c:	2204      	movs	r2, #4
 8005f5e:	0028      	movs	r0, r5
 8005f60:	3112      	adds	r1, #18
 8005f62:	f7ff ffd7 	bl	8005f14 <IntToUnicode>
}
 8005f66:	0020      	movs	r0, r4
 8005f68:	bd70      	pop	{r4, r5, r6, pc}
 8005f6a:	46c0      	nop			; (mov r8, r8)
 8005f6c:	1ffff7ac 	.word	0x1ffff7ac
 8005f70:	200001a4 	.word	0x200001a4
 8005f74:	1ffff7b4 	.word	0x1ffff7b4
 8005f78:	1ffff7b0 	.word	0x1ffff7b0

08005f7c <USBD_FS_ManufacturerStrDescriptor>:
{
 8005f7c:	b510      	push	{r4, lr}
  USBD_GetString((uint8_t *)USBD_MANUFACTURER_STRING, USBD_StrDesc, length);
 8005f7e:	4c04      	ldr	r4, [pc, #16]	; (8005f90 <USBD_FS_ManufacturerStrDescriptor+0x14>)
{
 8005f80:	000a      	movs	r2, r1
  USBD_GetString((uint8_t *)USBD_MANUFACTURER_STRING, USBD_StrDesc, length);
 8005f82:	4804      	ldr	r0, [pc, #16]	; (8005f94 <USBD_FS_ManufacturerStrDescriptor+0x18>)
 8005f84:	0021      	movs	r1, r4
 8005f86:	f7ff fee9 	bl	8005d5c <USBD_GetString>
}
 8005f8a:	0020      	movs	r0, r4
 8005f8c:	bd10      	pop	{r4, pc}
 8005f8e:	46c0      	nop			; (mov r8, r8)
 8005f90:	20000dbc 	.word	0x20000dbc
 8005f94:	080071ef 	.word	0x080071ef

08005f98 <USBD_FS_ProductStrDescriptor>:
{
 8005f98:	b510      	push	{r4, lr}
    USBD_GetString((uint8_t *)USBD_PRODUCT_STRING_FS, USBD_StrDesc, length);
 8005f9a:	4c04      	ldr	r4, [pc, #16]	; (8005fac <USBD_FS_ProductStrDescriptor+0x14>)
{
 8005f9c:	000a      	movs	r2, r1
    USBD_GetString((uint8_t *)USBD_PRODUCT_STRING_FS, USBD_StrDesc, length);
 8005f9e:	4804      	ldr	r0, [pc, #16]	; (8005fb0 <USBD_FS_ProductStrDescriptor+0x18>)
 8005fa0:	0021      	movs	r1, r4
 8005fa2:	f7ff fedb 	bl	8005d5c <USBD_GetString>
}
 8005fa6:	0020      	movs	r0, r4
 8005fa8:	bd10      	pop	{r4, pc}
 8005faa:	46c0      	nop			; (mov r8, r8)
 8005fac:	20000dbc 	.word	0x20000dbc
 8005fb0:	08007202 	.word	0x08007202

08005fb4 <USBD_FS_ConfigStrDescriptor>:
{
 8005fb4:	b510      	push	{r4, lr}
    USBD_GetString((uint8_t *)USBD_CONFIGURATION_STRING_FS, USBD_StrDesc, length);
 8005fb6:	4c04      	ldr	r4, [pc, #16]	; (8005fc8 <USBD_FS_ConfigStrDescriptor+0x14>)
{
 8005fb8:	000a      	movs	r2, r1
    USBD_GetString((uint8_t *)USBD_CONFIGURATION_STRING_FS, USBD_StrDesc, length);
 8005fba:	4804      	ldr	r0, [pc, #16]	; (8005fcc <USBD_FS_ConfigStrDescriptor+0x18>)
 8005fbc:	0021      	movs	r1, r4
 8005fbe:	f7ff fecd 	bl	8005d5c <USBD_GetString>
}
 8005fc2:	0020      	movs	r0, r4
 8005fc4:	bd10      	pop	{r4, pc}
 8005fc6:	46c0      	nop			; (mov r8, r8)
 8005fc8:	20000dbc 	.word	0x20000dbc
 8005fcc:	08007218 	.word	0x08007218

08005fd0 <USBD_FS_InterfaceStrDescriptor>:
{
 8005fd0:	b510      	push	{r4, lr}
    USBD_GetString((uint8_t *)USBD_INTERFACE_STRING_FS, USBD_StrDesc, length);
 8005fd2:	4c04      	ldr	r4, [pc, #16]	; (8005fe4 <USBD_FS_InterfaceStrDescriptor+0x14>)
{
 8005fd4:	000a      	movs	r2, r1
    USBD_GetString((uint8_t *)USBD_INTERFACE_STRING_FS, USBD_StrDesc, length);
 8005fd6:	4804      	ldr	r0, [pc, #16]	; (8005fe8 <USBD_FS_InterfaceStrDescriptor+0x18>)
 8005fd8:	0021      	movs	r1, r4
 8005fda:	f7ff febf 	bl	8005d5c <USBD_GetString>
}
 8005fde:	0020      	movs	r0, r4
 8005fe0:	bd10      	pop	{r4, pc}
 8005fe2:	46c0      	nop			; (mov r8, r8)
 8005fe4:	20000dbc 	.word	0x20000dbc
 8005fe8:	08007223 	.word	0x08007223

08005fec <HAL_PCD_MspInit>:
                       LL Driver Callbacks (PCD -> USB Device Library)
*******************************************************************************/
/* MSP Init */

void HAL_PCD_MspInit(PCD_HandleTypeDef* pcdHandle)
{
 8005fec:	b507      	push	{r0, r1, r2, lr}
  if(pcdHandle->Instance==USB)
 8005fee:	4b0b      	ldr	r3, [pc, #44]	; (800601c <HAL_PCD_MspInit+0x30>)
 8005ff0:	6802      	ldr	r2, [r0, #0]
 8005ff2:	429a      	cmp	r2, r3
 8005ff4:	d111      	bne.n	800601a <HAL_PCD_MspInit+0x2e>
  {
  /* USER CODE BEGIN USB_MspInit 0 */

  /* USER CODE END USB_MspInit 0 */
    /* Peripheral clock enable */
    __HAL_RCC_USB_CLK_ENABLE();
 8005ff6:	2080      	movs	r0, #128	; 0x80
 8005ff8:	4a09      	ldr	r2, [pc, #36]	; (8006020 <HAL_PCD_MspInit+0x34>)
 8005ffa:	0400      	lsls	r0, r0, #16
 8005ffc:	69d1      	ldr	r1, [r2, #28]
 8005ffe:	4301      	orrs	r1, r0
 8006000:	61d1      	str	r1, [r2, #28]
 8006002:	69d3      	ldr	r3, [r2, #28]

    /* Peripheral interrupt init */
    HAL_NVIC_SetPriority(USB_IRQn, 0, 0);
 8006004:	2200      	movs	r2, #0
    __HAL_RCC_USB_CLK_ENABLE();
 8006006:	4003      	ands	r3, r0
 8006008:	9301      	str	r3, [sp, #4]
    HAL_NVIC_SetPriority(USB_IRQn, 0, 0);
 800600a:	201f      	movs	r0, #31
 800600c:	0011      	movs	r1, r2
    __HAL_RCC_USB_CLK_ENABLE();
 800600e:	9b01      	ldr	r3, [sp, #4]
    HAL_NVIC_SetPriority(USB_IRQn, 0, 0);
 8006010:	f7fc f81c 	bl	800204c <HAL_NVIC_SetPriority>
    HAL_NVIC_EnableIRQ(USB_IRQn);
 8006014:	201f      	movs	r0, #31
 8006016:	f7fc f843 	bl	80020a0 <HAL_NVIC_EnableIRQ>
  /* USER CODE BEGIN USB_MspInit 1 */

  /* USER CODE END USB_MspInit 1 */
  }
}
 800601a:	bd07      	pop	{r0, r1, r2, pc}
 800601c:	40005c00 	.word	0x40005c00
 8006020:	40021000 	.word	0x40021000

08006024 <HAL_PCD_SetupStageCallback>:
static void PCD_SetupStageCallback(PCD_HandleTypeDef *hpcd)
#else
void HAL_PCD_SetupStageCallback(PCD_HandleTypeDef *hpcd)
#endif /* USE_HAL_PCD_REGISTER_CALLBACKS */
{
  USBD_LL_SetupStage((USBD_HandleTypeDef*)hpcd->pData, (uint8_t *)hpcd->Setup);
 8006024:	23ac      	movs	r3, #172	; 0xac
{
 8006026:	b510      	push	{r4, lr}
  USBD_LL_SetupStage((USBD_HandleTypeDef*)hpcd->pData, (uint8_t *)hpcd->Setup);
 8006028:	009b      	lsls	r3, r3, #2
 800602a:	18c1      	adds	r1, r0, r3
 800602c:	3340      	adds	r3, #64	; 0x40
 800602e:	58c0      	ldr	r0, [r0, r3]
 8006030:	f7ff fb46 	bl	80056c0 <USBD_LL_SetupStage>
}
 8006034:	bd10      	pop	{r4, pc}

08006036 <HAL_PCD_DataOutStageCallback>:
static void PCD_DataOutStageCallback(PCD_HandleTypeDef *hpcd, uint8_t epnum)
#else
void HAL_PCD_DataOutStageCallback(PCD_HandleTypeDef *hpcd, uint8_t epnum)
#endif /* USE_HAL_PCD_REGISTER_CALLBACKS */
{
  USBD_LL_DataOutStage((USBD_HandleTypeDef*)hpcd->pData, epnum, hpcd->OUT_ep[epnum].xfer_buff);
 8006036:	2328      	movs	r3, #40	; 0x28
 8006038:	434b      	muls	r3, r1
 800603a:	18c3      	adds	r3, r0, r3
 800603c:	337d      	adds	r3, #125	; 0x7d
 800603e:	33ff      	adds	r3, #255	; 0xff
 8006040:	681a      	ldr	r2, [r3, #0]
 8006042:	23bc      	movs	r3, #188	; 0xbc
{
 8006044:	b510      	push	{r4, lr}
  USBD_LL_DataOutStage((USBD_HandleTypeDef*)hpcd->pData, epnum, hpcd->OUT_ep[epnum].xfer_buff);
 8006046:	009b      	lsls	r3, r3, #2
 8006048:	58c0      	ldr	r0, [r0, r3]
 800604a:	f7ff fb6b 	bl	8005724 <USBD_LL_DataOutStage>
}
 800604e:	bd10      	pop	{r4, pc}

08006050 <HAL_PCD_DataInStageCallback>:
static void PCD_DataInStageCallback(PCD_HandleTypeDef *hpcd, uint8_t epnum)
#else
void HAL_PCD_DataInStageCallback(PCD_HandleTypeDef *hpcd, uint8_t epnum)
#endif /* USE_HAL_PCD_REGISTER_CALLBACKS */
{
  USBD_LL_DataInStage((USBD_HandleTypeDef*)hpcd->pData, epnum, hpcd->IN_ep[epnum].xfer_buff);
 8006050:	2328      	movs	r3, #40	; 0x28
 8006052:	434b      	muls	r3, r1
 8006054:	18c3      	adds	r3, r0, r3
 8006056:	6bda      	ldr	r2, [r3, #60]	; 0x3c
 8006058:	23bc      	movs	r3, #188	; 0xbc
{
 800605a:	b510      	push	{r4, lr}
  USBD_LL_DataInStage((USBD_HandleTypeDef*)hpcd->pData, epnum, hpcd->IN_ep[epnum].xfer_buff);
 800605c:	009b      	lsls	r3, r3, #2
 800605e:	58c0      	ldr	r0, [r0, r3]
 8006060:	f7ff fba6 	bl	80057b0 <USBD_LL_DataInStage>
}
 8006064:	bd10      	pop	{r4, pc}

08006066 <HAL_PCD_SOFCallback>:
static void PCD_SOFCallback(PCD_HandleTypeDef *hpcd)
#else
void HAL_PCD_SOFCallback(PCD_HandleTypeDef *hpcd)
#endif /* USE_HAL_PCD_REGISTER_CALLBACKS */
{
  USBD_LL_SOF((USBD_HandleTypeDef*)hpcd->pData);
 8006066:	23bc      	movs	r3, #188	; 0xbc
{
 8006068:	b510      	push	{r4, lr}
  USBD_LL_SOF((USBD_HandleTypeDef*)hpcd->pData);
 800606a:	009b      	lsls	r3, r3, #2
 800606c:	58c0      	ldr	r0, [r0, r3]
 800606e:	f7ff fc49 	bl	8005904 <USBD_LL_SOF>
}
 8006072:	bd10      	pop	{r4, pc}

08006074 <HAL_PCD_ResetCallback>:
void HAL_PCD_ResetCallback(PCD_HandleTypeDef *hpcd)
#endif /* USE_HAL_PCD_REGISTER_CALLBACKS */
{
  USBD_SpeedTypeDef speed = USBD_SPEED_FULL;

  if ( hpcd->Init.speed != PCD_SPEED_FULL)
 8006074:	6883      	ldr	r3, [r0, #8]
{
 8006076:	b570      	push	{r4, r5, r6, lr}
 8006078:	0004      	movs	r4, r0
  if ( hpcd->Init.speed != PCD_SPEED_FULL)
 800607a:	2b02      	cmp	r3, #2
 800607c:	d001      	beq.n	8006082 <HAL_PCD_ResetCallback+0xe>
  {
    Error_Handler();
 800607e:	f7fa fd07 	bl	8000a90 <Error_Handler>
  }
    /* Set Speed. */
  USBD_LL_SetSpeed((USBD_HandleTypeDef*)hpcd->pData, speed);
 8006082:	25bc      	movs	r5, #188	; 0xbc
 8006084:	00ad      	lsls	r5, r5, #2
 8006086:	2101      	movs	r1, #1
 8006088:	5960      	ldr	r0, [r4, r5]
 800608a:	f7ff fc20 	bl	80058ce <USBD_LL_SetSpeed>

  /* Reset Device. */
  USBD_LL_Reset((USBD_HandleTypeDef*)hpcd->pData);
 800608e:	5960      	ldr	r0, [r4, r5]
 8006090:	f7ff fbf3 	bl	800587a <USBD_LL_Reset>
}
 8006094:	bd70      	pop	{r4, r5, r6, pc}
	...

08006098 <HAL_PCD_SuspendCallback>:
#else
void HAL_PCD_SuspendCallback(PCD_HandleTypeDef *hpcd)
#endif /* USE_HAL_PCD_REGISTER_CALLBACKS */
{
  /* Inform USB library that core enters in suspend Mode. */
  USBD_LL_Suspend((USBD_HandleTypeDef*)hpcd->pData);
 8006098:	23bc      	movs	r3, #188	; 0xbc
{
 800609a:	b510      	push	{r4, lr}
 800609c:	0004      	movs	r4, r0
  USBD_LL_Suspend((USBD_HandleTypeDef*)hpcd->pData);
 800609e:	009b      	lsls	r3, r3, #2
 80060a0:	58c0      	ldr	r0, [r0, r3]
 80060a2:	f7ff fc17 	bl	80058d4 <USBD_LL_Suspend>
  /* Enter in STOP mode. */
  /* USER CODE BEGIN 2 */
  if (hpcd->Init.low_power_enable)
 80060a6:	69a3      	ldr	r3, [r4, #24]
 80060a8:	2b00      	cmp	r3, #0
 80060aa:	d004      	beq.n	80060b6 <HAL_PCD_SuspendCallback+0x1e>
  {
    /* Set SLEEPDEEP bit and SleepOnExit of Cortex System Control Register. */
    SCB->SCR |= (uint32_t)((uint32_t)(SCB_SCR_SLEEPDEEP_Msk | SCB_SCR_SLEEPONEXIT_Msk));
 80060ac:	2306      	movs	r3, #6
 80060ae:	4a02      	ldr	r2, [pc, #8]	; (80060b8 <HAL_PCD_SuspendCallback+0x20>)
 80060b0:	6911      	ldr	r1, [r2, #16]
 80060b2:	430b      	orrs	r3, r1
 80060b4:	6113      	str	r3, [r2, #16]
  }
  /* USER CODE END 2 */
}
 80060b6:	bd10      	pop	{r4, pc}
 80060b8:	e000ed00 	.word	0xe000ed00

080060bc <HAL_PCD_ResumeCallback>:
#else
void HAL_PCD_ResumeCallback(PCD_HandleTypeDef *hpcd)
#endif /* USE_HAL_PCD_REGISTER_CALLBACKS */
{
  /* USER CODE BEGIN 3 */
  if (hpcd->Init.low_power_enable)
 80060bc:	6983      	ldr	r3, [r0, #24]
{
 80060be:	b510      	push	{r4, lr}
 80060c0:	0004      	movs	r4, r0
  if (hpcd->Init.low_power_enable)
 80060c2:	2b00      	cmp	r3, #0
 80060c4:	d006      	beq.n	80060d4 <HAL_PCD_ResumeCallback+0x18>
  {
    /* Reset SLEEPDEEP bit of Cortex System Control Register. */
    SCB->SCR &= (uint32_t)~((uint32_t)(SCB_SCR_SLEEPDEEP_Msk | SCB_SCR_SLEEPONEXIT_Msk));
 80060c6:	2106      	movs	r1, #6
 80060c8:	4a05      	ldr	r2, [pc, #20]	; (80060e0 <HAL_PCD_ResumeCallback+0x24>)
 80060ca:	6913      	ldr	r3, [r2, #16]
 80060cc:	438b      	bics	r3, r1
 80060ce:	6113      	str	r3, [r2, #16]
  *         enable HSI, PLL and select PLL as system clock source.
  * @retval None
  */
static void SystemClockConfig_Resume(void)
{
  SystemClock_Config();
 80060d0:	f7fa fe20 	bl	8000d14 <SystemClock_Config>
  USBD_LL_Resume((USBD_HandleTypeDef*)hpcd->pData);
 80060d4:	23bc      	movs	r3, #188	; 0xbc
 80060d6:	009b      	lsls	r3, r3, #2
 80060d8:	58e0      	ldr	r0, [r4, r3]
 80060da:	f7ff fc07 	bl	80058ec <USBD_LL_Resume>
}
 80060de:	bd10      	pop	{r4, pc}
 80060e0:	e000ed00 	.word	0xe000ed00

080060e4 <USBD_LL_Init>:
  hpcd_USB_FS.pData = pdev;
 80060e4:	23bc      	movs	r3, #188	; 0xbc
{
 80060e6:	b570      	push	{r4, r5, r6, lr}
 80060e8:	0004      	movs	r4, r0
  hpcd_USB_FS.pData = pdev;
 80060ea:	481c      	ldr	r0, [pc, #112]	; (800615c <USBD_LL_Init+0x78>)
 80060ec:	009b      	lsls	r3, r3, #2
 80060ee:	50c4      	str	r4, [r0, r3]
  hpcd_USB_FS.Instance = USB;
 80060f0:	4b1b      	ldr	r3, [pc, #108]	; (8006160 <USBD_LL_Init+0x7c>)
  pdev->pData = &hpcd_USB_FS;
 80060f2:	25b0      	movs	r5, #176	; 0xb0
  hpcd_USB_FS.Instance = USB;
 80060f4:	6003      	str	r3, [r0, #0]
  hpcd_USB_FS.Init.dev_endpoints = 8;
 80060f6:	2308      	movs	r3, #8
 80060f8:	6043      	str	r3, [r0, #4]
  hpcd_USB_FS.Init.speed = PCD_SPEED_FULL;
 80060fa:	3b06      	subs	r3, #6
 80060fc:	6083      	str	r3, [r0, #8]
  hpcd_USB_FS.Init.phy_itface = PCD_PHY_EMBEDDED;
 80060fe:	6103      	str	r3, [r0, #16]
  hpcd_USB_FS.Init.low_power_enable = DISABLE;
 8006100:	2300      	movs	r3, #0
  pdev->pData = &hpcd_USB_FS;
 8006102:	00ad      	lsls	r5, r5, #2
 8006104:	5160      	str	r0, [r4, r5]
  hpcd_USB_FS.Init.low_power_enable = DISABLE;
 8006106:	6183      	str	r3, [r0, #24]
  hpcd_USB_FS.Init.lpm_enable = DISABLE;
 8006108:	61c3      	str	r3, [r0, #28]
  hpcd_USB_FS.Init.battery_charging_enable = DISABLE;
 800610a:	6203      	str	r3, [r0, #32]
  if (HAL_PCD_Init(&hpcd_USB_FS) != HAL_OK)
 800610c:	f7fc fae4 	bl	80026d8 <HAL_PCD_Init>
 8006110:	2800      	cmp	r0, #0
 8006112:	d001      	beq.n	8006118 <USBD_LL_Init+0x34>
    Error_Handler( );
 8006114:	f7fa fcbc 	bl	8000a90 <Error_Handler>
  HAL_PCDEx_PMAConfig((PCD_HandleTypeDef*)pdev->pData , 0x00 , PCD_SNG_BUF, 0x18);
 8006118:	2200      	movs	r2, #0
 800611a:	5960      	ldr	r0, [r4, r5]
 800611c:	0011      	movs	r1, r2
 800611e:	2318      	movs	r3, #24
 8006120:	f7fd f97b 	bl	800341a <HAL_PCDEx_PMAConfig>
  HAL_PCDEx_PMAConfig((PCD_HandleTypeDef*)pdev->pData , 0x80 , PCD_SNG_BUF, 0x58);
 8006124:	5960      	ldr	r0, [r4, r5]
 8006126:	2358      	movs	r3, #88	; 0x58
 8006128:	2200      	movs	r2, #0
 800612a:	2180      	movs	r1, #128	; 0x80
 800612c:	f7fd f975 	bl	800341a <HAL_PCDEx_PMAConfig>
  HAL_PCDEx_PMAConfig((PCD_HandleTypeDef*)pdev->pData , 0x81 , PCD_SNG_BUF, 0xC0);
 8006130:	5960      	ldr	r0, [r4, r5]
 8006132:	23c0      	movs	r3, #192	; 0xc0
 8006134:	2200      	movs	r2, #0
 8006136:	2181      	movs	r1, #129	; 0x81
 8006138:	f7fd f96f 	bl	800341a <HAL_PCDEx_PMAConfig>
  HAL_PCDEx_PMAConfig((PCD_HandleTypeDef*)pdev->pData , 0x01 , PCD_SNG_BUF, 0x110);
 800613c:	2388      	movs	r3, #136	; 0x88
 800613e:	5960      	ldr	r0, [r4, r5]
 8006140:	2200      	movs	r2, #0
 8006142:	2101      	movs	r1, #1
 8006144:	005b      	lsls	r3, r3, #1
 8006146:	f7fd f968 	bl	800341a <HAL_PCDEx_PMAConfig>
  HAL_PCDEx_PMAConfig((PCD_HandleTypeDef*)pdev->pData , 0x82 , PCD_SNG_BUF, 0x100);
 800614a:	2380      	movs	r3, #128	; 0x80
 800614c:	5960      	ldr	r0, [r4, r5]
 800614e:	2200      	movs	r2, #0
 8006150:	2182      	movs	r1, #130	; 0x82
 8006152:	005b      	lsls	r3, r3, #1
 8006154:	f7fd f961 	bl	800341a <HAL_PCDEx_PMAConfig>
}
 8006158:	2000      	movs	r0, #0
 800615a:	bd70      	pop	{r4, r5, r6, pc}
 800615c:	20000fbc 	.word	0x20000fbc
 8006160:	40005c00 	.word	0x40005c00

08006164 <USBD_LL_Start>:
  hal_status = HAL_PCD_Start(pdev->pData);
 8006164:	23b0      	movs	r3, #176	; 0xb0
 8006166:	009b      	lsls	r3, r3, #2
 8006168:	58c0      	ldr	r0, [r0, r3]
{
 800616a:	b510      	push	{r4, lr}
  hal_status = HAL_PCD_Start(pdev->pData);
 800616c:	f7fc fb20 	bl	80027b0 <HAL_PCD_Start>
 8006170:	0003      	movs	r3, r0
 8006172:	2002      	movs	r0, #2
 8006174:	2b03      	cmp	r3, #3
 8006176:	d801      	bhi.n	800617c <USBD_LL_Start+0x18>
 8006178:	4a01      	ldr	r2, [pc, #4]	; (8006180 <USBD_LL_Start+0x1c>)
 800617a:	5cd0      	ldrb	r0, [r2, r3]
}
 800617c:	bd10      	pop	{r4, pc}
 800617e:	46c0      	nop			; (mov r8, r8)
 8006180:	08007231 	.word	0x08007231

08006184 <USBD_LL_OpenEP>:
{
 8006184:	b510      	push	{r4, lr}
 8006186:	0014      	movs	r4, r2
 8006188:	001a      	movs	r2, r3
  hal_status = HAL_PCD_EP_Open(pdev->pData, ep_addr, ep_mps, ep_type);
 800618a:	0023      	movs	r3, r4
 800618c:	24b0      	movs	r4, #176	; 0xb0
 800618e:	00a4      	lsls	r4, r4, #2
 8006190:	5900      	ldr	r0, [r0, r4]
 8006192:	f7fd f849 	bl	8003228 <HAL_PCD_EP_Open>
 8006196:	0003      	movs	r3, r0
 8006198:	2002      	movs	r0, #2
 800619a:	2b03      	cmp	r3, #3
 800619c:	d801      	bhi.n	80061a2 <USBD_LL_OpenEP+0x1e>
 800619e:	4a01      	ldr	r2, [pc, #4]	; (80061a4 <USBD_LL_OpenEP+0x20>)
 80061a0:	5cd0      	ldrb	r0, [r2, r3]
}
 80061a2:	bd10      	pop	{r4, pc}
 80061a4:	08007231 	.word	0x08007231

080061a8 <USBD_LL_CloseEP>:
  hal_status = HAL_PCD_EP_Close(pdev->pData, ep_addr);
 80061a8:	23b0      	movs	r3, #176	; 0xb0
 80061aa:	009b      	lsls	r3, r3, #2
 80061ac:	58c0      	ldr	r0, [r0, r3]
{
 80061ae:	b510      	push	{r4, lr}
  hal_status = HAL_PCD_EP_Close(pdev->pData, ep_addr);
 80061b0:	f7fd f86b 	bl	800328a <HAL_PCD_EP_Close>
 80061b4:	0003      	movs	r3, r0
 80061b6:	2002      	movs	r0, #2
 80061b8:	2b03      	cmp	r3, #3
 80061ba:	d801      	bhi.n	80061c0 <USBD_LL_CloseEP+0x18>
 80061bc:	4a01      	ldr	r2, [pc, #4]	; (80061c4 <USBD_LL_CloseEP+0x1c>)
 80061be:	5cd0      	ldrb	r0, [r2, r3]
}
 80061c0:	bd10      	pop	{r4, pc}
 80061c2:	46c0      	nop			; (mov r8, r8)
 80061c4:	08007231 	.word	0x08007231

080061c8 <USBD_LL_StallEP>:
  hal_status = HAL_PCD_EP_SetStall(pdev->pData, ep_addr);
 80061c8:	23b0      	movs	r3, #176	; 0xb0
 80061ca:	009b      	lsls	r3, r3, #2
 80061cc:	58c0      	ldr	r0, [r0, r3]
{
 80061ce:	b510      	push	{r4, lr}
  hal_status = HAL_PCD_EP_SetStall(pdev->pData, ep_addr);
 80061d0:	f7fd f8c9 	bl	8003366 <HAL_PCD_EP_SetStall>
 80061d4:	0003      	movs	r3, r0
 80061d6:	2002      	movs	r0, #2
 80061d8:	2b03      	cmp	r3, #3
 80061da:	d801      	bhi.n	80061e0 <USBD_LL_StallEP+0x18>
 80061dc:	4a01      	ldr	r2, [pc, #4]	; (80061e4 <USBD_LL_StallEP+0x1c>)
 80061de:	5cd0      	ldrb	r0, [r2, r3]
}
 80061e0:	bd10      	pop	{r4, pc}
 80061e2:	46c0      	nop			; (mov r8, r8)
 80061e4:	08007231 	.word	0x08007231

080061e8 <USBD_LL_ClearStallEP>:
  hal_status = HAL_PCD_EP_ClrStall(pdev->pData, ep_addr);
 80061e8:	23b0      	movs	r3, #176	; 0xb0
 80061ea:	009b      	lsls	r3, r3, #2
 80061ec:	58c0      	ldr	r0, [r0, r3]
{
 80061ee:	b510      	push	{r4, lr}
  hal_status = HAL_PCD_EP_ClrStall(pdev->pData, ep_addr);
 80061f0:	f7fd f8e4 	bl	80033bc <HAL_PCD_EP_ClrStall>
 80061f4:	0003      	movs	r3, r0
 80061f6:	2002      	movs	r0, #2
 80061f8:	2b03      	cmp	r3, #3
 80061fa:	d801      	bhi.n	8006200 <USBD_LL_ClearStallEP+0x18>
 80061fc:	4a01      	ldr	r2, [pc, #4]	; (8006204 <USBD_LL_ClearStallEP+0x1c>)
 80061fe:	5cd0      	ldrb	r0, [r2, r3]
}
 8006200:	bd10      	pop	{r4, pc}
 8006202:	46c0      	nop			; (mov r8, r8)
 8006204:	08007231 	.word	0x08007231

08006208 <USBD_LL_IsStallEP>:
  PCD_HandleTypeDef *hpcd = (PCD_HandleTypeDef*) pdev->pData;
 8006208:	23b0      	movs	r3, #176	; 0xb0
  if((ep_addr & 0x80) == 0x80)
 800620a:	b24a      	sxtb	r2, r1
  PCD_HandleTypeDef *hpcd = (PCD_HandleTypeDef*) pdev->pData;
 800620c:	009b      	lsls	r3, r3, #2
 800620e:	58c3      	ldr	r3, [r0, r3]
  if((ep_addr & 0x80) == 0x80)
 8006210:	2a00      	cmp	r2, #0
 8006212:	da07      	bge.n	8006224 <USBD_LL_IsStallEP+0x1c>
    return hpcd->IN_ep[ep_addr & 0x7F].is_stall;
 8006214:	227f      	movs	r2, #127	; 0x7f
 8006216:	4011      	ands	r1, r2
 8006218:	3101      	adds	r1, #1
 800621a:	3a57      	subs	r2, #87	; 0x57
 800621c:	4351      	muls	r1, r2
 800621e:	185b      	adds	r3, r3, r1
 8006220:	7898      	ldrb	r0, [r3, #2]
}
 8006222:	4770      	bx	lr
    return hpcd->OUT_ep[ep_addr & 0x7F].is_stall;
 8006224:	2228      	movs	r2, #40	; 0x28
 8006226:	4351      	muls	r1, r2
 8006228:	185b      	adds	r3, r3, r1
 800622a:	336b      	adds	r3, #107	; 0x6b
 800622c:	33ff      	adds	r3, #255	; 0xff
 800622e:	7818      	ldrb	r0, [r3, #0]
 8006230:	e7f7      	b.n	8006222 <USBD_LL_IsStallEP+0x1a>
	...

08006234 <USBD_LL_SetUSBAddress>:
  hal_status = HAL_PCD_SetAddress(pdev->pData, dev_addr);
 8006234:	23b0      	movs	r3, #176	; 0xb0
 8006236:	009b      	lsls	r3, r3, #2
 8006238:	58c0      	ldr	r0, [r0, r3]
{
 800623a:	b510      	push	{r4, lr}
  hal_status = HAL_PCD_SetAddress(pdev->pData, dev_addr);
 800623c:	f7fc facb 	bl	80027d6 <HAL_PCD_SetAddress>
 8006240:	0003      	movs	r3, r0
 8006242:	2002      	movs	r0, #2
 8006244:	2b03      	cmp	r3, #3
 8006246:	d801      	bhi.n	800624c <USBD_LL_SetUSBAddress+0x18>
 8006248:	4a01      	ldr	r2, [pc, #4]	; (8006250 <USBD_LL_SetUSBAddress+0x1c>)
 800624a:	5cd0      	ldrb	r0, [r2, r3]
}
 800624c:	bd10      	pop	{r4, pc}
 800624e:	46c0      	nop			; (mov r8, r8)
 8006250:	08007231 	.word	0x08007231

08006254 <USBD_LL_Transmit>:
{
 8006254:	b510      	push	{r4, lr}
  hal_status = HAL_PCD_EP_Transmit(pdev->pData, ep_addr, pbuf, size);
 8006256:	24b0      	movs	r4, #176	; 0xb0
 8006258:	00a4      	lsls	r4, r4, #2
 800625a:	5900      	ldr	r0, [r0, r4]
 800625c:	f7fd f866 	bl	800332c <HAL_PCD_EP_Transmit>
 8006260:	0003      	movs	r3, r0
 8006262:	2002      	movs	r0, #2
 8006264:	2b03      	cmp	r3, #3
 8006266:	d801      	bhi.n	800626c <USBD_LL_Transmit+0x18>
 8006268:	4a01      	ldr	r2, [pc, #4]	; (8006270 <USBD_LL_Transmit+0x1c>)
 800626a:	5cd0      	ldrb	r0, [r2, r3]
}
 800626c:	bd10      	pop	{r4, pc}
 800626e:	46c0      	nop			; (mov r8, r8)
 8006270:	08007231 	.word	0x08007231

08006274 <USBD_LL_PrepareReceive>:
{
 8006274:	b510      	push	{r4, lr}
  hal_status = HAL_PCD_EP_Receive(pdev->pData, ep_addr, pbuf, size);
 8006276:	24b0      	movs	r4, #176	; 0xb0
 8006278:	00a4      	lsls	r4, r4, #2
 800627a:	5900      	ldr	r0, [r0, r4]
 800627c:	f7fd f82c 	bl	80032d8 <HAL_PCD_EP_Receive>
 8006280:	0003      	movs	r3, r0
 8006282:	2002      	movs	r0, #2
 8006284:	2b03      	cmp	r3, #3
 8006286:	d801      	bhi.n	800628c <USBD_LL_PrepareReceive+0x18>
 8006288:	4a01      	ldr	r2, [pc, #4]	; (8006290 <USBD_LL_PrepareReceive+0x1c>)
 800628a:	5cd0      	ldrb	r0, [r2, r3]
}
 800628c:	bd10      	pop	{r4, pc}
 800628e:	46c0      	nop			; (mov r8, r8)
 8006290:	08007231 	.word	0x08007231

08006294 <USBD_LL_GetRxDataSize>:
  return HAL_PCD_EP_GetRxCount((PCD_HandleTypeDef*) pdev->pData, ep_addr);
 8006294:	23b0      	movs	r3, #176	; 0xb0
{
 8006296:	b510      	push	{r4, lr}
  return HAL_PCD_EP_GetRxCount((PCD_HandleTypeDef*) pdev->pData, ep_addr);
 8006298:	009b      	lsls	r3, r3, #2
 800629a:	58c0      	ldr	r0, [r0, r3]
 800629c:	f7fd f83d 	bl	800331a <HAL_PCD_EP_GetRxCount>
}
 80062a0:	bd10      	pop	{r4, pc}
	...

080062a4 <USBD_static_malloc>:
}
 80062a4:	4800      	ldr	r0, [pc, #0]	; (80062a8 <USBD_static_malloc+0x4>)
 80062a6:	4770      	bx	lr
 80062a8:	2000024c 	.word	0x2000024c

080062ac <USBD_static_free>:
}
 80062ac:	4770      	bx	lr

080062ae <atoi>:
 80062ae:	b510      	push	{r4, lr}
 80062b0:	220a      	movs	r2, #10
 80062b2:	2100      	movs	r1, #0
 80062b4:	f000 f8f4 	bl	80064a0 <strtol>
 80062b8:	bd10      	pop	{r4, pc}
	...

080062bc <__errno>:
 80062bc:	4b01      	ldr	r3, [pc, #4]	; (80062c4 <__errno+0x8>)
 80062be:	6818      	ldr	r0, [r3, #0]
 80062c0:	4770      	bx	lr
 80062c2:	46c0      	nop			; (mov r8, r8)
 80062c4:	200001c0 	.word	0x200001c0

080062c8 <__libc_init_array>:
 80062c8:	b570      	push	{r4, r5, r6, lr}
 80062ca:	2600      	movs	r6, #0
 80062cc:	4d0c      	ldr	r5, [pc, #48]	; (8006300 <__libc_init_array+0x38>)
 80062ce:	4c0d      	ldr	r4, [pc, #52]	; (8006304 <__libc_init_array+0x3c>)
 80062d0:	1b64      	subs	r4, r4, r5
 80062d2:	10a4      	asrs	r4, r4, #2
 80062d4:	42a6      	cmp	r6, r4
 80062d6:	d109      	bne.n	80062ec <__libc_init_array+0x24>
 80062d8:	2600      	movs	r6, #0
 80062da:	f000 fce9 	bl	8006cb0 <_init>
 80062de:	4d0a      	ldr	r5, [pc, #40]	; (8006308 <__libc_init_array+0x40>)
 80062e0:	4c0a      	ldr	r4, [pc, #40]	; (800630c <__libc_init_array+0x44>)
 80062e2:	1b64      	subs	r4, r4, r5
 80062e4:	10a4      	asrs	r4, r4, #2
 80062e6:	42a6      	cmp	r6, r4
 80062e8:	d105      	bne.n	80062f6 <__libc_init_array+0x2e>
 80062ea:	bd70      	pop	{r4, r5, r6, pc}
 80062ec:	00b3      	lsls	r3, r6, #2
 80062ee:	58eb      	ldr	r3, [r5, r3]
 80062f0:	4798      	blx	r3
 80062f2:	3601      	adds	r6, #1
 80062f4:	e7ee      	b.n	80062d4 <__libc_init_array+0xc>
 80062f6:	00b3      	lsls	r3, r6, #2
 80062f8:	58eb      	ldr	r3, [r5, r3]
 80062fa:	4798      	blx	r3
 80062fc:	3601      	adds	r6, #1
 80062fe:	e7f2      	b.n	80062e6 <__libc_init_array+0x1e>
 8006300:	0800736c 	.word	0x0800736c
 8006304:	0800736c 	.word	0x0800736c
 8006308:	0800736c 	.word	0x0800736c
 800630c:	08007370 	.word	0x08007370

08006310 <memcpy>:
 8006310:	2300      	movs	r3, #0
 8006312:	b510      	push	{r4, lr}
 8006314:	429a      	cmp	r2, r3
 8006316:	d100      	bne.n	800631a <memcpy+0xa>
 8006318:	bd10      	pop	{r4, pc}
 800631a:	5ccc      	ldrb	r4, [r1, r3]
 800631c:	54c4      	strb	r4, [r0, r3]
 800631e:	3301      	adds	r3, #1
 8006320:	e7f8      	b.n	8006314 <memcpy+0x4>

08006322 <memset>:
 8006322:	0003      	movs	r3, r0
 8006324:	1882      	adds	r2, r0, r2
 8006326:	4293      	cmp	r3, r2
 8006328:	d100      	bne.n	800632c <memset+0xa>
 800632a:	4770      	bx	lr
 800632c:	7019      	strb	r1, [r3, #0]
 800632e:	3301      	adds	r3, #1
 8006330:	e7f9      	b.n	8006326 <memset+0x4>
	...

08006334 <siprintf>:
 8006334:	b40e      	push	{r1, r2, r3}
 8006336:	b500      	push	{lr}
 8006338:	490b      	ldr	r1, [pc, #44]	; (8006368 <siprintf+0x34>)
 800633a:	b09c      	sub	sp, #112	; 0x70
 800633c:	ab1d      	add	r3, sp, #116	; 0x74
 800633e:	9002      	str	r0, [sp, #8]
 8006340:	9006      	str	r0, [sp, #24]
 8006342:	9107      	str	r1, [sp, #28]
 8006344:	9104      	str	r1, [sp, #16]
 8006346:	4809      	ldr	r0, [pc, #36]	; (800636c <siprintf+0x38>)
 8006348:	4909      	ldr	r1, [pc, #36]	; (8006370 <siprintf+0x3c>)
 800634a:	cb04      	ldmia	r3!, {r2}
 800634c:	9105      	str	r1, [sp, #20]
 800634e:	6800      	ldr	r0, [r0, #0]
 8006350:	a902      	add	r1, sp, #8
 8006352:	9301      	str	r3, [sp, #4]
 8006354:	f000 f912 	bl	800657c <_svfiprintf_r>
 8006358:	2300      	movs	r3, #0
 800635a:	9a02      	ldr	r2, [sp, #8]
 800635c:	7013      	strb	r3, [r2, #0]
 800635e:	b01c      	add	sp, #112	; 0x70
 8006360:	bc08      	pop	{r3}
 8006362:	b003      	add	sp, #12
 8006364:	4718      	bx	r3
 8006366:	46c0      	nop			; (mov r8, r8)
 8006368:	7fffffff 	.word	0x7fffffff
 800636c:	200001c0 	.word	0x200001c0
 8006370:	ffff0208 	.word	0xffff0208

08006374 <strcpy>:
 8006374:	0003      	movs	r3, r0
 8006376:	780a      	ldrb	r2, [r1, #0]
 8006378:	3101      	adds	r1, #1
 800637a:	701a      	strb	r2, [r3, #0]
 800637c:	3301      	adds	r3, #1
 800637e:	2a00      	cmp	r2, #0
 8006380:	d1f9      	bne.n	8006376 <strcpy+0x2>
 8006382:	4770      	bx	lr

08006384 <_strtol_l.isra.0>:
 8006384:	b5f0      	push	{r4, r5, r6, r7, lr}
 8006386:	b087      	sub	sp, #28
 8006388:	001e      	movs	r6, r3
 800638a:	9005      	str	r0, [sp, #20]
 800638c:	9101      	str	r1, [sp, #4]
 800638e:	9202      	str	r2, [sp, #8]
 8006390:	2b01      	cmp	r3, #1
 8006392:	d045      	beq.n	8006420 <_strtol_l.isra.0+0x9c>
 8006394:	0008      	movs	r0, r1
 8006396:	2b24      	cmp	r3, #36	; 0x24
 8006398:	d842      	bhi.n	8006420 <_strtol_l.isra.0+0x9c>
 800639a:	4b3f      	ldr	r3, [pc, #252]	; (8006498 <_strtol_l.isra.0+0x114>)
 800639c:	2208      	movs	r2, #8
 800639e:	469c      	mov	ip, r3
 80063a0:	0003      	movs	r3, r0
 80063a2:	4661      	mov	r1, ip
 80063a4:	781c      	ldrb	r4, [r3, #0]
 80063a6:	1c45      	adds	r5, r0, #1
 80063a8:	5d09      	ldrb	r1, [r1, r4]
 80063aa:	0028      	movs	r0, r5
 80063ac:	000f      	movs	r7, r1
 80063ae:	4017      	ands	r7, r2
 80063b0:	4211      	tst	r1, r2
 80063b2:	d1f5      	bne.n	80063a0 <_strtol_l.isra.0+0x1c>
 80063b4:	2c2d      	cmp	r4, #45	; 0x2d
 80063b6:	d13a      	bne.n	800642e <_strtol_l.isra.0+0xaa>
 80063b8:	2701      	movs	r7, #1
 80063ba:	782c      	ldrb	r4, [r5, #0]
 80063bc:	1c9d      	adds	r5, r3, #2
 80063be:	2e00      	cmp	r6, #0
 80063c0:	d065      	beq.n	800648e <_strtol_l.isra.0+0x10a>
 80063c2:	2e10      	cmp	r6, #16
 80063c4:	d109      	bne.n	80063da <_strtol_l.isra.0+0x56>
 80063c6:	2c30      	cmp	r4, #48	; 0x30
 80063c8:	d107      	bne.n	80063da <_strtol_l.isra.0+0x56>
 80063ca:	2220      	movs	r2, #32
 80063cc:	782b      	ldrb	r3, [r5, #0]
 80063ce:	4393      	bics	r3, r2
 80063d0:	2b58      	cmp	r3, #88	; 0x58
 80063d2:	d157      	bne.n	8006484 <_strtol_l.isra.0+0x100>
 80063d4:	2610      	movs	r6, #16
 80063d6:	786c      	ldrb	r4, [r5, #1]
 80063d8:	3502      	adds	r5, #2
 80063da:	4b30      	ldr	r3, [pc, #192]	; (800649c <_strtol_l.isra.0+0x118>)
 80063dc:	0031      	movs	r1, r6
 80063de:	18fb      	adds	r3, r7, r3
 80063e0:	0018      	movs	r0, r3
 80063e2:	9303      	str	r3, [sp, #12]
 80063e4:	f7f9 ff46 	bl	8000274 <__aeabi_uidivmod>
 80063e8:	2300      	movs	r3, #0
 80063ea:	2201      	movs	r2, #1
 80063ec:	4684      	mov	ip, r0
 80063ee:	0018      	movs	r0, r3
 80063f0:	9104      	str	r1, [sp, #16]
 80063f2:	4252      	negs	r2, r2
 80063f4:	0021      	movs	r1, r4
 80063f6:	3930      	subs	r1, #48	; 0x30
 80063f8:	2909      	cmp	r1, #9
 80063fa:	d81d      	bhi.n	8006438 <_strtol_l.isra.0+0xb4>
 80063fc:	000c      	movs	r4, r1
 80063fe:	42a6      	cmp	r6, r4
 8006400:	dd28      	ble.n	8006454 <_strtol_l.isra.0+0xd0>
 8006402:	2b00      	cmp	r3, #0
 8006404:	db24      	blt.n	8006450 <_strtol_l.isra.0+0xcc>
 8006406:	0013      	movs	r3, r2
 8006408:	4584      	cmp	ip, r0
 800640a:	d306      	bcc.n	800641a <_strtol_l.isra.0+0x96>
 800640c:	d102      	bne.n	8006414 <_strtol_l.isra.0+0x90>
 800640e:	9904      	ldr	r1, [sp, #16]
 8006410:	42a1      	cmp	r1, r4
 8006412:	db02      	blt.n	800641a <_strtol_l.isra.0+0x96>
 8006414:	2301      	movs	r3, #1
 8006416:	4370      	muls	r0, r6
 8006418:	1820      	adds	r0, r4, r0
 800641a:	782c      	ldrb	r4, [r5, #0]
 800641c:	3501      	adds	r5, #1
 800641e:	e7e9      	b.n	80063f4 <_strtol_l.isra.0+0x70>
 8006420:	f7ff ff4c 	bl	80062bc <__errno>
 8006424:	2316      	movs	r3, #22
 8006426:	6003      	str	r3, [r0, #0]
 8006428:	2000      	movs	r0, #0
 800642a:	b007      	add	sp, #28
 800642c:	bdf0      	pop	{r4, r5, r6, r7, pc}
 800642e:	2c2b      	cmp	r4, #43	; 0x2b
 8006430:	d1c5      	bne.n	80063be <_strtol_l.isra.0+0x3a>
 8006432:	782c      	ldrb	r4, [r5, #0]
 8006434:	1c9d      	adds	r5, r3, #2
 8006436:	e7c2      	b.n	80063be <_strtol_l.isra.0+0x3a>
 8006438:	0021      	movs	r1, r4
 800643a:	3941      	subs	r1, #65	; 0x41
 800643c:	2919      	cmp	r1, #25
 800643e:	d801      	bhi.n	8006444 <_strtol_l.isra.0+0xc0>
 8006440:	3c37      	subs	r4, #55	; 0x37
 8006442:	e7dc      	b.n	80063fe <_strtol_l.isra.0+0x7a>
 8006444:	0021      	movs	r1, r4
 8006446:	3961      	subs	r1, #97	; 0x61
 8006448:	2919      	cmp	r1, #25
 800644a:	d803      	bhi.n	8006454 <_strtol_l.isra.0+0xd0>
 800644c:	3c57      	subs	r4, #87	; 0x57
 800644e:	e7d6      	b.n	80063fe <_strtol_l.isra.0+0x7a>
 8006450:	0013      	movs	r3, r2
 8006452:	e7e2      	b.n	800641a <_strtol_l.isra.0+0x96>
 8006454:	2b00      	cmp	r3, #0
 8006456:	da09      	bge.n	800646c <_strtol_l.isra.0+0xe8>
 8006458:	2322      	movs	r3, #34	; 0x22
 800645a:	9a05      	ldr	r2, [sp, #20]
 800645c:	9803      	ldr	r0, [sp, #12]
 800645e:	6013      	str	r3, [r2, #0]
 8006460:	9b02      	ldr	r3, [sp, #8]
 8006462:	2b00      	cmp	r3, #0
 8006464:	d0e1      	beq.n	800642a <_strtol_l.isra.0+0xa6>
 8006466:	1e6b      	subs	r3, r5, #1
 8006468:	9301      	str	r3, [sp, #4]
 800646a:	e007      	b.n	800647c <_strtol_l.isra.0+0xf8>
 800646c:	2f00      	cmp	r7, #0
 800646e:	d000      	beq.n	8006472 <_strtol_l.isra.0+0xee>
 8006470:	4240      	negs	r0, r0
 8006472:	9a02      	ldr	r2, [sp, #8]
 8006474:	2a00      	cmp	r2, #0
 8006476:	d0d8      	beq.n	800642a <_strtol_l.isra.0+0xa6>
 8006478:	2b00      	cmp	r3, #0
 800647a:	d1f4      	bne.n	8006466 <_strtol_l.isra.0+0xe2>
 800647c:	9b02      	ldr	r3, [sp, #8]
 800647e:	9a01      	ldr	r2, [sp, #4]
 8006480:	601a      	str	r2, [r3, #0]
 8006482:	e7d2      	b.n	800642a <_strtol_l.isra.0+0xa6>
 8006484:	2430      	movs	r4, #48	; 0x30
 8006486:	2e00      	cmp	r6, #0
 8006488:	d1a7      	bne.n	80063da <_strtol_l.isra.0+0x56>
 800648a:	3608      	adds	r6, #8
 800648c:	e7a5      	b.n	80063da <_strtol_l.isra.0+0x56>
 800648e:	2c30      	cmp	r4, #48	; 0x30
 8006490:	d09b      	beq.n	80063ca <_strtol_l.isra.0+0x46>
 8006492:	260a      	movs	r6, #10
 8006494:	e7a1      	b.n	80063da <_strtol_l.isra.0+0x56>
 8006496:	46c0      	nop			; (mov r8, r8)
 8006498:	08007236 	.word	0x08007236
 800649c:	7fffffff 	.word	0x7fffffff

080064a0 <strtol>:
 80064a0:	b510      	push	{r4, lr}
 80064a2:	0013      	movs	r3, r2
 80064a4:	000a      	movs	r2, r1
 80064a6:	0001      	movs	r1, r0
 80064a8:	4802      	ldr	r0, [pc, #8]	; (80064b4 <strtol+0x14>)
 80064aa:	6800      	ldr	r0, [r0, #0]
 80064ac:	f7ff ff6a 	bl	8006384 <_strtol_l.isra.0>
 80064b0:	bd10      	pop	{r4, pc}
 80064b2:	46c0      	nop			; (mov r8, r8)
 80064b4:	200001c0 	.word	0x200001c0

080064b8 <__ssputs_r>:
 80064b8:	b5f0      	push	{r4, r5, r6, r7, lr}
 80064ba:	688e      	ldr	r6, [r1, #8]
 80064bc:	b085      	sub	sp, #20
 80064be:	0007      	movs	r7, r0
 80064c0:	000c      	movs	r4, r1
 80064c2:	9203      	str	r2, [sp, #12]
 80064c4:	9301      	str	r3, [sp, #4]
 80064c6:	429e      	cmp	r6, r3
 80064c8:	d83c      	bhi.n	8006544 <__ssputs_r+0x8c>
 80064ca:	2390      	movs	r3, #144	; 0x90
 80064cc:	898a      	ldrh	r2, [r1, #12]
 80064ce:	00db      	lsls	r3, r3, #3
 80064d0:	421a      	tst	r2, r3
 80064d2:	d034      	beq.n	800653e <__ssputs_r+0x86>
 80064d4:	2503      	movs	r5, #3
 80064d6:	6909      	ldr	r1, [r1, #16]
 80064d8:	6823      	ldr	r3, [r4, #0]
 80064da:	1a5b      	subs	r3, r3, r1
 80064dc:	9302      	str	r3, [sp, #8]
 80064de:	6963      	ldr	r3, [r4, #20]
 80064e0:	9802      	ldr	r0, [sp, #8]
 80064e2:	435d      	muls	r5, r3
 80064e4:	0feb      	lsrs	r3, r5, #31
 80064e6:	195d      	adds	r5, r3, r5
 80064e8:	9b01      	ldr	r3, [sp, #4]
 80064ea:	106d      	asrs	r5, r5, #1
 80064ec:	3301      	adds	r3, #1
 80064ee:	181b      	adds	r3, r3, r0
 80064f0:	42ab      	cmp	r3, r5
 80064f2:	d900      	bls.n	80064f6 <__ssputs_r+0x3e>
 80064f4:	001d      	movs	r5, r3
 80064f6:	0553      	lsls	r3, r2, #21
 80064f8:	d532      	bpl.n	8006560 <__ssputs_r+0xa8>
 80064fa:	0029      	movs	r1, r5
 80064fc:	0038      	movs	r0, r7
 80064fe:	f000 fb27 	bl	8006b50 <_malloc_r>
 8006502:	1e06      	subs	r6, r0, #0
 8006504:	d109      	bne.n	800651a <__ssputs_r+0x62>
 8006506:	230c      	movs	r3, #12
 8006508:	603b      	str	r3, [r7, #0]
 800650a:	2340      	movs	r3, #64	; 0x40
 800650c:	2001      	movs	r0, #1
 800650e:	89a2      	ldrh	r2, [r4, #12]
 8006510:	4240      	negs	r0, r0
 8006512:	4313      	orrs	r3, r2
 8006514:	81a3      	strh	r3, [r4, #12]
 8006516:	b005      	add	sp, #20
 8006518:	bdf0      	pop	{r4, r5, r6, r7, pc}
 800651a:	9a02      	ldr	r2, [sp, #8]
 800651c:	6921      	ldr	r1, [r4, #16]
 800651e:	f7ff fef7 	bl	8006310 <memcpy>
 8006522:	89a3      	ldrh	r3, [r4, #12]
 8006524:	4a14      	ldr	r2, [pc, #80]	; (8006578 <__ssputs_r+0xc0>)
 8006526:	401a      	ands	r2, r3
 8006528:	2380      	movs	r3, #128	; 0x80
 800652a:	4313      	orrs	r3, r2
 800652c:	81a3      	strh	r3, [r4, #12]
 800652e:	9b02      	ldr	r3, [sp, #8]
 8006530:	6126      	str	r6, [r4, #16]
 8006532:	18f6      	adds	r6, r6, r3
 8006534:	6026      	str	r6, [r4, #0]
 8006536:	6165      	str	r5, [r4, #20]
 8006538:	9e01      	ldr	r6, [sp, #4]
 800653a:	1aed      	subs	r5, r5, r3
 800653c:	60a5      	str	r5, [r4, #8]
 800653e:	9b01      	ldr	r3, [sp, #4]
 8006540:	429e      	cmp	r6, r3
 8006542:	d900      	bls.n	8006546 <__ssputs_r+0x8e>
 8006544:	9e01      	ldr	r6, [sp, #4]
 8006546:	0032      	movs	r2, r6
 8006548:	9903      	ldr	r1, [sp, #12]
 800654a:	6820      	ldr	r0, [r4, #0]
 800654c:	f000 faa3 	bl	8006a96 <memmove>
 8006550:	68a3      	ldr	r3, [r4, #8]
 8006552:	2000      	movs	r0, #0
 8006554:	1b9b      	subs	r3, r3, r6
 8006556:	60a3      	str	r3, [r4, #8]
 8006558:	6823      	ldr	r3, [r4, #0]
 800655a:	199e      	adds	r6, r3, r6
 800655c:	6026      	str	r6, [r4, #0]
 800655e:	e7da      	b.n	8006516 <__ssputs_r+0x5e>
 8006560:	002a      	movs	r2, r5
 8006562:	0038      	movs	r0, r7
 8006564:	f000 fb52 	bl	8006c0c <_realloc_r>
 8006568:	1e06      	subs	r6, r0, #0
 800656a:	d1e0      	bne.n	800652e <__ssputs_r+0x76>
 800656c:	0038      	movs	r0, r7
 800656e:	6921      	ldr	r1, [r4, #16]
 8006570:	f000 faa4 	bl	8006abc <_free_r>
 8006574:	e7c7      	b.n	8006506 <__ssputs_r+0x4e>
 8006576:	46c0      	nop			; (mov r8, r8)
 8006578:	fffffb7f 	.word	0xfffffb7f

0800657c <_svfiprintf_r>:
 800657c:	b5f0      	push	{r4, r5, r6, r7, lr}
 800657e:	b0a1      	sub	sp, #132	; 0x84
 8006580:	9003      	str	r0, [sp, #12]
 8006582:	001d      	movs	r5, r3
 8006584:	898b      	ldrh	r3, [r1, #12]
 8006586:	000f      	movs	r7, r1
 8006588:	0016      	movs	r6, r2
 800658a:	061b      	lsls	r3, r3, #24
 800658c:	d511      	bpl.n	80065b2 <_svfiprintf_r+0x36>
 800658e:	690b      	ldr	r3, [r1, #16]
 8006590:	2b00      	cmp	r3, #0
 8006592:	d10e      	bne.n	80065b2 <_svfiprintf_r+0x36>
 8006594:	2140      	movs	r1, #64	; 0x40
 8006596:	f000 fadb 	bl	8006b50 <_malloc_r>
 800659a:	6038      	str	r0, [r7, #0]
 800659c:	6138      	str	r0, [r7, #16]
 800659e:	2800      	cmp	r0, #0
 80065a0:	d105      	bne.n	80065ae <_svfiprintf_r+0x32>
 80065a2:	230c      	movs	r3, #12
 80065a4:	9a03      	ldr	r2, [sp, #12]
 80065a6:	3801      	subs	r0, #1
 80065a8:	6013      	str	r3, [r2, #0]
 80065aa:	b021      	add	sp, #132	; 0x84
 80065ac:	bdf0      	pop	{r4, r5, r6, r7, pc}
 80065ae:	2340      	movs	r3, #64	; 0x40
 80065b0:	617b      	str	r3, [r7, #20]
 80065b2:	2300      	movs	r3, #0
 80065b4:	ac08      	add	r4, sp, #32
 80065b6:	6163      	str	r3, [r4, #20]
 80065b8:	3320      	adds	r3, #32
 80065ba:	7663      	strb	r3, [r4, #25]
 80065bc:	3310      	adds	r3, #16
 80065be:	76a3      	strb	r3, [r4, #26]
 80065c0:	9507      	str	r5, [sp, #28]
 80065c2:	0035      	movs	r5, r6
 80065c4:	782b      	ldrb	r3, [r5, #0]
 80065c6:	2b00      	cmp	r3, #0
 80065c8:	d001      	beq.n	80065ce <_svfiprintf_r+0x52>
 80065ca:	2b25      	cmp	r3, #37	; 0x25
 80065cc:	d147      	bne.n	800665e <_svfiprintf_r+0xe2>
 80065ce:	1bab      	subs	r3, r5, r6
 80065d0:	9305      	str	r3, [sp, #20]
 80065d2:	42b5      	cmp	r5, r6
 80065d4:	d00c      	beq.n	80065f0 <_svfiprintf_r+0x74>
 80065d6:	0032      	movs	r2, r6
 80065d8:	0039      	movs	r1, r7
 80065da:	9803      	ldr	r0, [sp, #12]
 80065dc:	f7ff ff6c 	bl	80064b8 <__ssputs_r>
 80065e0:	1c43      	adds	r3, r0, #1
 80065e2:	d100      	bne.n	80065e6 <_svfiprintf_r+0x6a>
 80065e4:	e0ae      	b.n	8006744 <_svfiprintf_r+0x1c8>
 80065e6:	6962      	ldr	r2, [r4, #20]
 80065e8:	9b05      	ldr	r3, [sp, #20]
 80065ea:	4694      	mov	ip, r2
 80065ec:	4463      	add	r3, ip
 80065ee:	6163      	str	r3, [r4, #20]
 80065f0:	782b      	ldrb	r3, [r5, #0]
 80065f2:	2b00      	cmp	r3, #0
 80065f4:	d100      	bne.n	80065f8 <_svfiprintf_r+0x7c>
 80065f6:	e0a5      	b.n	8006744 <_svfiprintf_r+0x1c8>
 80065f8:	2201      	movs	r2, #1
 80065fa:	2300      	movs	r3, #0
 80065fc:	4252      	negs	r2, r2
 80065fe:	6062      	str	r2, [r4, #4]
 8006600:	a904      	add	r1, sp, #16
 8006602:	3254      	adds	r2, #84	; 0x54
 8006604:	1852      	adds	r2, r2, r1
 8006606:	1c6e      	adds	r6, r5, #1
 8006608:	6023      	str	r3, [r4, #0]
 800660a:	60e3      	str	r3, [r4, #12]
 800660c:	60a3      	str	r3, [r4, #8]
 800660e:	7013      	strb	r3, [r2, #0]
 8006610:	65a3      	str	r3, [r4, #88]	; 0x58
 8006612:	2205      	movs	r2, #5
 8006614:	7831      	ldrb	r1, [r6, #0]
 8006616:	4854      	ldr	r0, [pc, #336]	; (8006768 <_svfiprintf_r+0x1ec>)
 8006618:	f000 fa32 	bl	8006a80 <memchr>
 800661c:	1c75      	adds	r5, r6, #1
 800661e:	2800      	cmp	r0, #0
 8006620:	d11f      	bne.n	8006662 <_svfiprintf_r+0xe6>
 8006622:	6822      	ldr	r2, [r4, #0]
 8006624:	06d3      	lsls	r3, r2, #27
 8006626:	d504      	bpl.n	8006632 <_svfiprintf_r+0xb6>
 8006628:	2353      	movs	r3, #83	; 0x53
 800662a:	a904      	add	r1, sp, #16
 800662c:	185b      	adds	r3, r3, r1
 800662e:	2120      	movs	r1, #32
 8006630:	7019      	strb	r1, [r3, #0]
 8006632:	0713      	lsls	r3, r2, #28
 8006634:	d504      	bpl.n	8006640 <_svfiprintf_r+0xc4>
 8006636:	2353      	movs	r3, #83	; 0x53
 8006638:	a904      	add	r1, sp, #16
 800663a:	185b      	adds	r3, r3, r1
 800663c:	212b      	movs	r1, #43	; 0x2b
 800663e:	7019      	strb	r1, [r3, #0]
 8006640:	7833      	ldrb	r3, [r6, #0]
 8006642:	2b2a      	cmp	r3, #42	; 0x2a
 8006644:	d016      	beq.n	8006674 <_svfiprintf_r+0xf8>
 8006646:	0035      	movs	r5, r6
 8006648:	2100      	movs	r1, #0
 800664a:	200a      	movs	r0, #10
 800664c:	68e3      	ldr	r3, [r4, #12]
 800664e:	782a      	ldrb	r2, [r5, #0]
 8006650:	1c6e      	adds	r6, r5, #1
 8006652:	3a30      	subs	r2, #48	; 0x30
 8006654:	2a09      	cmp	r2, #9
 8006656:	d94e      	bls.n	80066f6 <_svfiprintf_r+0x17a>
 8006658:	2900      	cmp	r1, #0
 800665a:	d111      	bne.n	8006680 <_svfiprintf_r+0x104>
 800665c:	e017      	b.n	800668e <_svfiprintf_r+0x112>
 800665e:	3501      	adds	r5, #1
 8006660:	e7b0      	b.n	80065c4 <_svfiprintf_r+0x48>
 8006662:	4b41      	ldr	r3, [pc, #260]	; (8006768 <_svfiprintf_r+0x1ec>)
 8006664:	6822      	ldr	r2, [r4, #0]
 8006666:	1ac0      	subs	r0, r0, r3
 8006668:	2301      	movs	r3, #1
 800666a:	4083      	lsls	r3, r0
 800666c:	4313      	orrs	r3, r2
 800666e:	002e      	movs	r6, r5
 8006670:	6023      	str	r3, [r4, #0]
 8006672:	e7ce      	b.n	8006612 <_svfiprintf_r+0x96>
 8006674:	9b07      	ldr	r3, [sp, #28]
 8006676:	1d19      	adds	r1, r3, #4
 8006678:	681b      	ldr	r3, [r3, #0]
 800667a:	9107      	str	r1, [sp, #28]
 800667c:	2b00      	cmp	r3, #0
 800667e:	db01      	blt.n	8006684 <_svfiprintf_r+0x108>
 8006680:	930b      	str	r3, [sp, #44]	; 0x2c
 8006682:	e004      	b.n	800668e <_svfiprintf_r+0x112>
 8006684:	425b      	negs	r3, r3
 8006686:	60e3      	str	r3, [r4, #12]
 8006688:	2302      	movs	r3, #2
 800668a:	4313      	orrs	r3, r2
 800668c:	6023      	str	r3, [r4, #0]
 800668e:	782b      	ldrb	r3, [r5, #0]
 8006690:	2b2e      	cmp	r3, #46	; 0x2e
 8006692:	d10a      	bne.n	80066aa <_svfiprintf_r+0x12e>
 8006694:	786b      	ldrb	r3, [r5, #1]
 8006696:	2b2a      	cmp	r3, #42	; 0x2a
 8006698:	d135      	bne.n	8006706 <_svfiprintf_r+0x18a>
 800669a:	9b07      	ldr	r3, [sp, #28]
 800669c:	3502      	adds	r5, #2
 800669e:	1d1a      	adds	r2, r3, #4
 80066a0:	681b      	ldr	r3, [r3, #0]
 80066a2:	9207      	str	r2, [sp, #28]
 80066a4:	2b00      	cmp	r3, #0
 80066a6:	db2b      	blt.n	8006700 <_svfiprintf_r+0x184>
 80066a8:	9309      	str	r3, [sp, #36]	; 0x24
 80066aa:	4e30      	ldr	r6, [pc, #192]	; (800676c <_svfiprintf_r+0x1f0>)
 80066ac:	2203      	movs	r2, #3
 80066ae:	0030      	movs	r0, r6
 80066b0:	7829      	ldrb	r1, [r5, #0]
 80066b2:	f000 f9e5 	bl	8006a80 <memchr>
 80066b6:	2800      	cmp	r0, #0
 80066b8:	d006      	beq.n	80066c8 <_svfiprintf_r+0x14c>
 80066ba:	2340      	movs	r3, #64	; 0x40
 80066bc:	1b80      	subs	r0, r0, r6
 80066be:	4083      	lsls	r3, r0
 80066c0:	6822      	ldr	r2, [r4, #0]
 80066c2:	3501      	adds	r5, #1
 80066c4:	4313      	orrs	r3, r2
 80066c6:	6023      	str	r3, [r4, #0]
 80066c8:	7829      	ldrb	r1, [r5, #0]
 80066ca:	2206      	movs	r2, #6
 80066cc:	4828      	ldr	r0, [pc, #160]	; (8006770 <_svfiprintf_r+0x1f4>)
 80066ce:	1c6e      	adds	r6, r5, #1
 80066d0:	7621      	strb	r1, [r4, #24]
 80066d2:	f000 f9d5 	bl	8006a80 <memchr>
 80066d6:	2800      	cmp	r0, #0
 80066d8:	d03c      	beq.n	8006754 <_svfiprintf_r+0x1d8>
 80066da:	4b26      	ldr	r3, [pc, #152]	; (8006774 <_svfiprintf_r+0x1f8>)
 80066dc:	2b00      	cmp	r3, #0
 80066de:	d125      	bne.n	800672c <_svfiprintf_r+0x1b0>
 80066e0:	2207      	movs	r2, #7
 80066e2:	9b07      	ldr	r3, [sp, #28]
 80066e4:	3307      	adds	r3, #7
 80066e6:	4393      	bics	r3, r2
 80066e8:	3308      	adds	r3, #8
 80066ea:	9307      	str	r3, [sp, #28]
 80066ec:	6963      	ldr	r3, [r4, #20]
 80066ee:	9a04      	ldr	r2, [sp, #16]
 80066f0:	189b      	adds	r3, r3, r2
 80066f2:	6163      	str	r3, [r4, #20]
 80066f4:	e765      	b.n	80065c2 <_svfiprintf_r+0x46>
 80066f6:	4343      	muls	r3, r0
 80066f8:	0035      	movs	r5, r6
 80066fa:	2101      	movs	r1, #1
 80066fc:	189b      	adds	r3, r3, r2
 80066fe:	e7a6      	b.n	800664e <_svfiprintf_r+0xd2>
 8006700:	2301      	movs	r3, #1
 8006702:	425b      	negs	r3, r3
 8006704:	e7d0      	b.n	80066a8 <_svfiprintf_r+0x12c>
 8006706:	2300      	movs	r3, #0
 8006708:	200a      	movs	r0, #10
 800670a:	001a      	movs	r2, r3
 800670c:	3501      	adds	r5, #1
 800670e:	6063      	str	r3, [r4, #4]
 8006710:	7829      	ldrb	r1, [r5, #0]
 8006712:	1c6e      	adds	r6, r5, #1
 8006714:	3930      	subs	r1, #48	; 0x30
 8006716:	2909      	cmp	r1, #9
 8006718:	d903      	bls.n	8006722 <_svfiprintf_r+0x1a6>
 800671a:	2b00      	cmp	r3, #0
 800671c:	d0c5      	beq.n	80066aa <_svfiprintf_r+0x12e>
 800671e:	9209      	str	r2, [sp, #36]	; 0x24
 8006720:	e7c3      	b.n	80066aa <_svfiprintf_r+0x12e>
 8006722:	4342      	muls	r2, r0
 8006724:	0035      	movs	r5, r6
 8006726:	2301      	movs	r3, #1
 8006728:	1852      	adds	r2, r2, r1
 800672a:	e7f1      	b.n	8006710 <_svfiprintf_r+0x194>
 800672c:	ab07      	add	r3, sp, #28
 800672e:	9300      	str	r3, [sp, #0]
 8006730:	003a      	movs	r2, r7
 8006732:	0021      	movs	r1, r4
 8006734:	4b10      	ldr	r3, [pc, #64]	; (8006778 <_svfiprintf_r+0x1fc>)
 8006736:	9803      	ldr	r0, [sp, #12]
 8006738:	e000      	b.n	800673c <_svfiprintf_r+0x1c0>
 800673a:	bf00      	nop
 800673c:	9004      	str	r0, [sp, #16]
 800673e:	9b04      	ldr	r3, [sp, #16]
 8006740:	3301      	adds	r3, #1
 8006742:	d1d3      	bne.n	80066ec <_svfiprintf_r+0x170>
 8006744:	89bb      	ldrh	r3, [r7, #12]
 8006746:	980d      	ldr	r0, [sp, #52]	; 0x34
 8006748:	065b      	lsls	r3, r3, #25
 800674a:	d400      	bmi.n	800674e <_svfiprintf_r+0x1d2>
 800674c:	e72d      	b.n	80065aa <_svfiprintf_r+0x2e>
 800674e:	2001      	movs	r0, #1
 8006750:	4240      	negs	r0, r0
 8006752:	e72a      	b.n	80065aa <_svfiprintf_r+0x2e>
 8006754:	ab07      	add	r3, sp, #28
 8006756:	9300      	str	r3, [sp, #0]
 8006758:	003a      	movs	r2, r7
 800675a:	0021      	movs	r1, r4
 800675c:	4b06      	ldr	r3, [pc, #24]	; (8006778 <_svfiprintf_r+0x1fc>)
 800675e:	9803      	ldr	r0, [sp, #12]
 8006760:	f000 f87c 	bl	800685c <_printf_i>
 8006764:	e7ea      	b.n	800673c <_svfiprintf_r+0x1c0>
 8006766:	46c0      	nop			; (mov r8, r8)
 8006768:	08007336 	.word	0x08007336
 800676c:	0800733c 	.word	0x0800733c
 8006770:	08007340 	.word	0x08007340
 8006774:	00000000 	.word	0x00000000
 8006778:	080064b9 	.word	0x080064b9

0800677c <_printf_common>:
 800677c:	b5f7      	push	{r0, r1, r2, r4, r5, r6, r7, lr}
 800677e:	0015      	movs	r5, r2
 8006780:	9301      	str	r3, [sp, #4]
 8006782:	688a      	ldr	r2, [r1, #8]
 8006784:	690b      	ldr	r3, [r1, #16]
 8006786:	000c      	movs	r4, r1
 8006788:	9000      	str	r0, [sp, #0]
 800678a:	4293      	cmp	r3, r2
 800678c:	da00      	bge.n	8006790 <_printf_common+0x14>
 800678e:	0013      	movs	r3, r2
 8006790:	0022      	movs	r2, r4
 8006792:	602b      	str	r3, [r5, #0]
 8006794:	3243      	adds	r2, #67	; 0x43
 8006796:	7812      	ldrb	r2, [r2, #0]
 8006798:	2a00      	cmp	r2, #0
 800679a:	d001      	beq.n	80067a0 <_printf_common+0x24>
 800679c:	3301      	adds	r3, #1
 800679e:	602b      	str	r3, [r5, #0]
 80067a0:	6823      	ldr	r3, [r4, #0]
 80067a2:	069b      	lsls	r3, r3, #26
 80067a4:	d502      	bpl.n	80067ac <_printf_common+0x30>
 80067a6:	682b      	ldr	r3, [r5, #0]
 80067a8:	3302      	adds	r3, #2
 80067aa:	602b      	str	r3, [r5, #0]
 80067ac:	6822      	ldr	r2, [r4, #0]
 80067ae:	2306      	movs	r3, #6
 80067b0:	0017      	movs	r7, r2
 80067b2:	401f      	ands	r7, r3
 80067b4:	421a      	tst	r2, r3
 80067b6:	d027      	beq.n	8006808 <_printf_common+0x8c>
 80067b8:	0023      	movs	r3, r4
 80067ba:	3343      	adds	r3, #67	; 0x43
 80067bc:	781b      	ldrb	r3, [r3, #0]
 80067be:	1e5a      	subs	r2, r3, #1
 80067c0:	4193      	sbcs	r3, r2
 80067c2:	6822      	ldr	r2, [r4, #0]
 80067c4:	0692      	lsls	r2, r2, #26
 80067c6:	d430      	bmi.n	800682a <_printf_common+0xae>
 80067c8:	0022      	movs	r2, r4
 80067ca:	9901      	ldr	r1, [sp, #4]
 80067cc:	9800      	ldr	r0, [sp, #0]
 80067ce:	9e08      	ldr	r6, [sp, #32]
 80067d0:	3243      	adds	r2, #67	; 0x43
 80067d2:	47b0      	blx	r6
 80067d4:	1c43      	adds	r3, r0, #1
 80067d6:	d025      	beq.n	8006824 <_printf_common+0xa8>
 80067d8:	2306      	movs	r3, #6
 80067da:	6820      	ldr	r0, [r4, #0]
 80067dc:	682a      	ldr	r2, [r5, #0]
 80067de:	68e1      	ldr	r1, [r4, #12]
 80067e0:	2500      	movs	r5, #0
 80067e2:	4003      	ands	r3, r0
 80067e4:	2b04      	cmp	r3, #4
 80067e6:	d103      	bne.n	80067f0 <_printf_common+0x74>
 80067e8:	1a8d      	subs	r5, r1, r2
 80067ea:	43eb      	mvns	r3, r5
 80067ec:	17db      	asrs	r3, r3, #31
 80067ee:	401d      	ands	r5, r3
 80067f0:	68a3      	ldr	r3, [r4, #8]
 80067f2:	6922      	ldr	r2, [r4, #16]
 80067f4:	4293      	cmp	r3, r2
 80067f6:	dd01      	ble.n	80067fc <_printf_common+0x80>
 80067f8:	1a9b      	subs	r3, r3, r2
 80067fa:	18ed      	adds	r5, r5, r3
 80067fc:	2700      	movs	r7, #0
 80067fe:	42bd      	cmp	r5, r7
 8006800:	d120      	bne.n	8006844 <_printf_common+0xc8>
 8006802:	2000      	movs	r0, #0
 8006804:	e010      	b.n	8006828 <_printf_common+0xac>
 8006806:	3701      	adds	r7, #1
 8006808:	68e3      	ldr	r3, [r4, #12]
 800680a:	682a      	ldr	r2, [r5, #0]
 800680c:	1a9b      	subs	r3, r3, r2
 800680e:	42bb      	cmp	r3, r7
 8006810:	ddd2      	ble.n	80067b8 <_printf_common+0x3c>
 8006812:	0022      	movs	r2, r4
 8006814:	2301      	movs	r3, #1
 8006816:	9901      	ldr	r1, [sp, #4]
 8006818:	9800      	ldr	r0, [sp, #0]
 800681a:	9e08      	ldr	r6, [sp, #32]
 800681c:	3219      	adds	r2, #25
 800681e:	47b0      	blx	r6
 8006820:	1c43      	adds	r3, r0, #1
 8006822:	d1f0      	bne.n	8006806 <_printf_common+0x8a>
 8006824:	2001      	movs	r0, #1
 8006826:	4240      	negs	r0, r0
 8006828:	bdfe      	pop	{r1, r2, r3, r4, r5, r6, r7, pc}
 800682a:	2030      	movs	r0, #48	; 0x30
 800682c:	18e1      	adds	r1, r4, r3
 800682e:	3143      	adds	r1, #67	; 0x43
 8006830:	7008      	strb	r0, [r1, #0]
 8006832:	0021      	movs	r1, r4
 8006834:	1c5a      	adds	r2, r3, #1
 8006836:	3145      	adds	r1, #69	; 0x45
 8006838:	7809      	ldrb	r1, [r1, #0]
 800683a:	18a2      	adds	r2, r4, r2
 800683c:	3243      	adds	r2, #67	; 0x43
 800683e:	3302      	adds	r3, #2
 8006840:	7011      	strb	r1, [r2, #0]
 8006842:	e7c1      	b.n	80067c8 <_printf_common+0x4c>
 8006844:	0022      	movs	r2, r4
 8006846:	2301      	movs	r3, #1
 8006848:	9901      	ldr	r1, [sp, #4]
 800684a:	9800      	ldr	r0, [sp, #0]
 800684c:	9e08      	ldr	r6, [sp, #32]
 800684e:	321a      	adds	r2, #26
 8006850:	47b0      	blx	r6
 8006852:	1c43      	adds	r3, r0, #1
 8006854:	d0e6      	beq.n	8006824 <_printf_common+0xa8>
 8006856:	3701      	adds	r7, #1
 8006858:	e7d1      	b.n	80067fe <_printf_common+0x82>
	...

0800685c <_printf_i>:
 800685c:	b5f0      	push	{r4, r5, r6, r7, lr}
 800685e:	b08b      	sub	sp, #44	; 0x2c
 8006860:	9206      	str	r2, [sp, #24]
 8006862:	000a      	movs	r2, r1
 8006864:	3243      	adds	r2, #67	; 0x43
 8006866:	9307      	str	r3, [sp, #28]
 8006868:	9005      	str	r0, [sp, #20]
 800686a:	9204      	str	r2, [sp, #16]
 800686c:	7e0a      	ldrb	r2, [r1, #24]
 800686e:	000c      	movs	r4, r1
 8006870:	9b10      	ldr	r3, [sp, #64]	; 0x40
 8006872:	2a78      	cmp	r2, #120	; 0x78
 8006874:	d806      	bhi.n	8006884 <_printf_i+0x28>
 8006876:	2a62      	cmp	r2, #98	; 0x62
 8006878:	d808      	bhi.n	800688c <_printf_i+0x30>
 800687a:	2a00      	cmp	r2, #0
 800687c:	d100      	bne.n	8006880 <_printf_i+0x24>
 800687e:	e0c0      	b.n	8006a02 <_printf_i+0x1a6>
 8006880:	2a58      	cmp	r2, #88	; 0x58
 8006882:	d052      	beq.n	800692a <_printf_i+0xce>
 8006884:	0026      	movs	r6, r4
 8006886:	3642      	adds	r6, #66	; 0x42
 8006888:	7032      	strb	r2, [r6, #0]
 800688a:	e022      	b.n	80068d2 <_printf_i+0x76>
 800688c:	0010      	movs	r0, r2
 800688e:	3863      	subs	r0, #99	; 0x63
 8006890:	2815      	cmp	r0, #21
 8006892:	d8f7      	bhi.n	8006884 <_printf_i+0x28>
 8006894:	f7f9 fc54 	bl	8000140 <__gnu_thumb1_case_shi>
 8006898:	001f0016 	.word	0x001f0016
 800689c:	fff6fff6 	.word	0xfff6fff6
 80068a0:	fff6fff6 	.word	0xfff6fff6
 80068a4:	fff6001f 	.word	0xfff6001f
 80068a8:	fff6fff6 	.word	0xfff6fff6
 80068ac:	00a8fff6 	.word	0x00a8fff6
 80068b0:	009a0036 	.word	0x009a0036
 80068b4:	fff6fff6 	.word	0xfff6fff6
 80068b8:	fff600b9 	.word	0xfff600b9
 80068bc:	fff60036 	.word	0xfff60036
 80068c0:	009efff6 	.word	0x009efff6
 80068c4:	0026      	movs	r6, r4
 80068c6:	681a      	ldr	r2, [r3, #0]
 80068c8:	3642      	adds	r6, #66	; 0x42
 80068ca:	1d11      	adds	r1, r2, #4
 80068cc:	6019      	str	r1, [r3, #0]
 80068ce:	6813      	ldr	r3, [r2, #0]
 80068d0:	7033      	strb	r3, [r6, #0]
 80068d2:	2301      	movs	r3, #1
 80068d4:	e0a7      	b.n	8006a26 <_printf_i+0x1ca>
 80068d6:	6808      	ldr	r0, [r1, #0]
 80068d8:	6819      	ldr	r1, [r3, #0]
 80068da:	1d0a      	adds	r2, r1, #4
 80068dc:	0605      	lsls	r5, r0, #24
 80068de:	d50b      	bpl.n	80068f8 <_printf_i+0x9c>
 80068e0:	680d      	ldr	r5, [r1, #0]
 80068e2:	601a      	str	r2, [r3, #0]
 80068e4:	2d00      	cmp	r5, #0
 80068e6:	da03      	bge.n	80068f0 <_printf_i+0x94>
 80068e8:	232d      	movs	r3, #45	; 0x2d
 80068ea:	9a04      	ldr	r2, [sp, #16]
 80068ec:	426d      	negs	r5, r5
 80068ee:	7013      	strb	r3, [r2, #0]
 80068f0:	4b61      	ldr	r3, [pc, #388]	; (8006a78 <_printf_i+0x21c>)
 80068f2:	270a      	movs	r7, #10
 80068f4:	9303      	str	r3, [sp, #12]
 80068f6:	e032      	b.n	800695e <_printf_i+0x102>
 80068f8:	680d      	ldr	r5, [r1, #0]
 80068fa:	601a      	str	r2, [r3, #0]
 80068fc:	0641      	lsls	r1, r0, #25
 80068fe:	d5f1      	bpl.n	80068e4 <_printf_i+0x88>
 8006900:	b22d      	sxth	r5, r5
 8006902:	e7ef      	b.n	80068e4 <_printf_i+0x88>
 8006904:	680d      	ldr	r5, [r1, #0]
 8006906:	6819      	ldr	r1, [r3, #0]
 8006908:	1d08      	adds	r0, r1, #4
 800690a:	6018      	str	r0, [r3, #0]
 800690c:	062e      	lsls	r6, r5, #24
 800690e:	d501      	bpl.n	8006914 <_printf_i+0xb8>
 8006910:	680d      	ldr	r5, [r1, #0]
 8006912:	e003      	b.n	800691c <_printf_i+0xc0>
 8006914:	066d      	lsls	r5, r5, #25
 8006916:	d5fb      	bpl.n	8006910 <_printf_i+0xb4>
 8006918:	680d      	ldr	r5, [r1, #0]
 800691a:	b2ad      	uxth	r5, r5
 800691c:	4b56      	ldr	r3, [pc, #344]	; (8006a78 <_printf_i+0x21c>)
 800691e:	270a      	movs	r7, #10
 8006920:	9303      	str	r3, [sp, #12]
 8006922:	2a6f      	cmp	r2, #111	; 0x6f
 8006924:	d117      	bne.n	8006956 <_printf_i+0xfa>
 8006926:	2708      	movs	r7, #8
 8006928:	e015      	b.n	8006956 <_printf_i+0xfa>
 800692a:	3145      	adds	r1, #69	; 0x45
 800692c:	700a      	strb	r2, [r1, #0]
 800692e:	4a52      	ldr	r2, [pc, #328]	; (8006a78 <_printf_i+0x21c>)
 8006930:	9203      	str	r2, [sp, #12]
 8006932:	681a      	ldr	r2, [r3, #0]
 8006934:	6821      	ldr	r1, [r4, #0]
 8006936:	ca20      	ldmia	r2!, {r5}
 8006938:	601a      	str	r2, [r3, #0]
 800693a:	0608      	lsls	r0, r1, #24
 800693c:	d550      	bpl.n	80069e0 <_printf_i+0x184>
 800693e:	07cb      	lsls	r3, r1, #31
 8006940:	d502      	bpl.n	8006948 <_printf_i+0xec>
 8006942:	2320      	movs	r3, #32
 8006944:	4319      	orrs	r1, r3
 8006946:	6021      	str	r1, [r4, #0]
 8006948:	2710      	movs	r7, #16
 800694a:	2d00      	cmp	r5, #0
 800694c:	d103      	bne.n	8006956 <_printf_i+0xfa>
 800694e:	2320      	movs	r3, #32
 8006950:	6822      	ldr	r2, [r4, #0]
 8006952:	439a      	bics	r2, r3
 8006954:	6022      	str	r2, [r4, #0]
 8006956:	0023      	movs	r3, r4
 8006958:	2200      	movs	r2, #0
 800695a:	3343      	adds	r3, #67	; 0x43
 800695c:	701a      	strb	r2, [r3, #0]
 800695e:	6863      	ldr	r3, [r4, #4]
 8006960:	60a3      	str	r3, [r4, #8]
 8006962:	2b00      	cmp	r3, #0
 8006964:	db03      	blt.n	800696e <_printf_i+0x112>
 8006966:	2204      	movs	r2, #4
 8006968:	6821      	ldr	r1, [r4, #0]
 800696a:	4391      	bics	r1, r2
 800696c:	6021      	str	r1, [r4, #0]
 800696e:	2d00      	cmp	r5, #0
 8006970:	d102      	bne.n	8006978 <_printf_i+0x11c>
 8006972:	9e04      	ldr	r6, [sp, #16]
 8006974:	2b00      	cmp	r3, #0
 8006976:	d00c      	beq.n	8006992 <_printf_i+0x136>
 8006978:	9e04      	ldr	r6, [sp, #16]
 800697a:	0028      	movs	r0, r5
 800697c:	0039      	movs	r1, r7
 800697e:	f7f9 fc79 	bl	8000274 <__aeabi_uidivmod>
 8006982:	9b03      	ldr	r3, [sp, #12]
 8006984:	3e01      	subs	r6, #1
 8006986:	5c5b      	ldrb	r3, [r3, r1]
 8006988:	7033      	strb	r3, [r6, #0]
 800698a:	002b      	movs	r3, r5
 800698c:	0005      	movs	r5, r0
 800698e:	429f      	cmp	r7, r3
 8006990:	d9f3      	bls.n	800697a <_printf_i+0x11e>
 8006992:	2f08      	cmp	r7, #8
 8006994:	d109      	bne.n	80069aa <_printf_i+0x14e>
 8006996:	6823      	ldr	r3, [r4, #0]
 8006998:	07db      	lsls	r3, r3, #31
 800699a:	d506      	bpl.n	80069aa <_printf_i+0x14e>
 800699c:	6863      	ldr	r3, [r4, #4]
 800699e:	6922      	ldr	r2, [r4, #16]
 80069a0:	4293      	cmp	r3, r2
 80069a2:	dc02      	bgt.n	80069aa <_printf_i+0x14e>
 80069a4:	2330      	movs	r3, #48	; 0x30
 80069a6:	3e01      	subs	r6, #1
 80069a8:	7033      	strb	r3, [r6, #0]
 80069aa:	9b04      	ldr	r3, [sp, #16]
 80069ac:	1b9b      	subs	r3, r3, r6
 80069ae:	6123      	str	r3, [r4, #16]
 80069b0:	9b07      	ldr	r3, [sp, #28]
 80069b2:	0021      	movs	r1, r4
 80069b4:	9300      	str	r3, [sp, #0]
 80069b6:	9805      	ldr	r0, [sp, #20]
 80069b8:	9b06      	ldr	r3, [sp, #24]
 80069ba:	aa09      	add	r2, sp, #36	; 0x24
 80069bc:	f7ff fede 	bl	800677c <_printf_common>
 80069c0:	1c43      	adds	r3, r0, #1
 80069c2:	d135      	bne.n	8006a30 <_printf_i+0x1d4>
 80069c4:	2001      	movs	r0, #1
 80069c6:	4240      	negs	r0, r0
 80069c8:	b00b      	add	sp, #44	; 0x2c
 80069ca:	bdf0      	pop	{r4, r5, r6, r7, pc}
 80069cc:	2220      	movs	r2, #32
 80069ce:	6809      	ldr	r1, [r1, #0]
 80069d0:	430a      	orrs	r2, r1
 80069d2:	6022      	str	r2, [r4, #0]
 80069d4:	0022      	movs	r2, r4
 80069d6:	2178      	movs	r1, #120	; 0x78
 80069d8:	3245      	adds	r2, #69	; 0x45
 80069da:	7011      	strb	r1, [r2, #0]
 80069dc:	4a27      	ldr	r2, [pc, #156]	; (8006a7c <_printf_i+0x220>)
 80069de:	e7a7      	b.n	8006930 <_printf_i+0xd4>
 80069e0:	0648      	lsls	r0, r1, #25
 80069e2:	d5ac      	bpl.n	800693e <_printf_i+0xe2>
 80069e4:	b2ad      	uxth	r5, r5
 80069e6:	e7aa      	b.n	800693e <_printf_i+0xe2>
 80069e8:	681a      	ldr	r2, [r3, #0]
 80069ea:	680d      	ldr	r5, [r1, #0]
 80069ec:	1d10      	adds	r0, r2, #4
 80069ee:	6949      	ldr	r1, [r1, #20]
 80069f0:	6018      	str	r0, [r3, #0]
 80069f2:	6813      	ldr	r3, [r2, #0]
 80069f4:	062e      	lsls	r6, r5, #24
 80069f6:	d501      	bpl.n	80069fc <_printf_i+0x1a0>
 80069f8:	6019      	str	r1, [r3, #0]
 80069fa:	e002      	b.n	8006a02 <_printf_i+0x1a6>
 80069fc:	066d      	lsls	r5, r5, #25
 80069fe:	d5fb      	bpl.n	80069f8 <_printf_i+0x19c>
 8006a00:	8019      	strh	r1, [r3, #0]
 8006a02:	2300      	movs	r3, #0
 8006a04:	9e04      	ldr	r6, [sp, #16]
 8006a06:	6123      	str	r3, [r4, #16]
 8006a08:	e7d2      	b.n	80069b0 <_printf_i+0x154>
 8006a0a:	681a      	ldr	r2, [r3, #0]
 8006a0c:	1d11      	adds	r1, r2, #4
 8006a0e:	6019      	str	r1, [r3, #0]
 8006a10:	6816      	ldr	r6, [r2, #0]
 8006a12:	2100      	movs	r1, #0
 8006a14:	0030      	movs	r0, r6
 8006a16:	6862      	ldr	r2, [r4, #4]
 8006a18:	f000 f832 	bl	8006a80 <memchr>
 8006a1c:	2800      	cmp	r0, #0
 8006a1e:	d001      	beq.n	8006a24 <_printf_i+0x1c8>
 8006a20:	1b80      	subs	r0, r0, r6
 8006a22:	6060      	str	r0, [r4, #4]
 8006a24:	6863      	ldr	r3, [r4, #4]
 8006a26:	6123      	str	r3, [r4, #16]
 8006a28:	2300      	movs	r3, #0
 8006a2a:	9a04      	ldr	r2, [sp, #16]
 8006a2c:	7013      	strb	r3, [r2, #0]
 8006a2e:	e7bf      	b.n	80069b0 <_printf_i+0x154>
 8006a30:	6923      	ldr	r3, [r4, #16]
 8006a32:	0032      	movs	r2, r6
 8006a34:	9906      	ldr	r1, [sp, #24]
 8006a36:	9805      	ldr	r0, [sp, #20]
 8006a38:	9d07      	ldr	r5, [sp, #28]
 8006a3a:	47a8      	blx	r5
 8006a3c:	1c43      	adds	r3, r0, #1
 8006a3e:	d0c1      	beq.n	80069c4 <_printf_i+0x168>
 8006a40:	6823      	ldr	r3, [r4, #0]
 8006a42:	079b      	lsls	r3, r3, #30
 8006a44:	d415      	bmi.n	8006a72 <_printf_i+0x216>
 8006a46:	9b09      	ldr	r3, [sp, #36]	; 0x24
 8006a48:	68e0      	ldr	r0, [r4, #12]
 8006a4a:	4298      	cmp	r0, r3
 8006a4c:	dabc      	bge.n	80069c8 <_printf_i+0x16c>
 8006a4e:	0018      	movs	r0, r3
 8006a50:	e7ba      	b.n	80069c8 <_printf_i+0x16c>
 8006a52:	0022      	movs	r2, r4
 8006a54:	2301      	movs	r3, #1
 8006a56:	9906      	ldr	r1, [sp, #24]
 8006a58:	9805      	ldr	r0, [sp, #20]
 8006a5a:	9e07      	ldr	r6, [sp, #28]
 8006a5c:	3219      	adds	r2, #25
 8006a5e:	47b0      	blx	r6
 8006a60:	1c43      	adds	r3, r0, #1
 8006a62:	d0af      	beq.n	80069c4 <_printf_i+0x168>
 8006a64:	3501      	adds	r5, #1
 8006a66:	68e3      	ldr	r3, [r4, #12]
 8006a68:	9a09      	ldr	r2, [sp, #36]	; 0x24
 8006a6a:	1a9b      	subs	r3, r3, r2
 8006a6c:	42ab      	cmp	r3, r5
 8006a6e:	dcf0      	bgt.n	8006a52 <_printf_i+0x1f6>
 8006a70:	e7e9      	b.n	8006a46 <_printf_i+0x1ea>
 8006a72:	2500      	movs	r5, #0
 8006a74:	e7f7      	b.n	8006a66 <_printf_i+0x20a>
 8006a76:	46c0      	nop			; (mov r8, r8)
 8006a78:	08007347 	.word	0x08007347
 8006a7c:	08007358 	.word	0x08007358

08006a80 <memchr>:
 8006a80:	b2c9      	uxtb	r1, r1
 8006a82:	1882      	adds	r2, r0, r2
 8006a84:	4290      	cmp	r0, r2
 8006a86:	d101      	bne.n	8006a8c <memchr+0xc>
 8006a88:	2000      	movs	r0, #0
 8006a8a:	4770      	bx	lr
 8006a8c:	7803      	ldrb	r3, [r0, #0]
 8006a8e:	428b      	cmp	r3, r1
 8006a90:	d0fb      	beq.n	8006a8a <memchr+0xa>
 8006a92:	3001      	adds	r0, #1
 8006a94:	e7f6      	b.n	8006a84 <memchr+0x4>

08006a96 <memmove>:
 8006a96:	b510      	push	{r4, lr}
 8006a98:	4288      	cmp	r0, r1
 8006a9a:	d902      	bls.n	8006aa2 <memmove+0xc>
 8006a9c:	188b      	adds	r3, r1, r2
 8006a9e:	4298      	cmp	r0, r3
 8006aa0:	d303      	bcc.n	8006aaa <memmove+0x14>
 8006aa2:	2300      	movs	r3, #0
 8006aa4:	e007      	b.n	8006ab6 <memmove+0x20>
 8006aa6:	5c8b      	ldrb	r3, [r1, r2]
 8006aa8:	5483      	strb	r3, [r0, r2]
 8006aaa:	3a01      	subs	r2, #1
 8006aac:	d2fb      	bcs.n	8006aa6 <memmove+0x10>
 8006aae:	bd10      	pop	{r4, pc}
 8006ab0:	5ccc      	ldrb	r4, [r1, r3]
 8006ab2:	54c4      	strb	r4, [r0, r3]
 8006ab4:	3301      	adds	r3, #1
 8006ab6:	429a      	cmp	r2, r3
 8006ab8:	d1fa      	bne.n	8006ab0 <memmove+0x1a>
 8006aba:	e7f8      	b.n	8006aae <memmove+0x18>

08006abc <_free_r>:
 8006abc:	b570      	push	{r4, r5, r6, lr}
 8006abe:	0005      	movs	r5, r0
 8006ac0:	2900      	cmp	r1, #0
 8006ac2:	d010      	beq.n	8006ae6 <_free_r+0x2a>
 8006ac4:	1f0c      	subs	r4, r1, #4
 8006ac6:	6823      	ldr	r3, [r4, #0]
 8006ac8:	2b00      	cmp	r3, #0
 8006aca:	da00      	bge.n	8006ace <_free_r+0x12>
 8006acc:	18e4      	adds	r4, r4, r3
 8006ace:	0028      	movs	r0, r5
 8006ad0:	f000 f8d4 	bl	8006c7c <__malloc_lock>
 8006ad4:	4a1d      	ldr	r2, [pc, #116]	; (8006b4c <_free_r+0x90>)
 8006ad6:	6813      	ldr	r3, [r2, #0]
 8006ad8:	2b00      	cmp	r3, #0
 8006ada:	d105      	bne.n	8006ae8 <_free_r+0x2c>
 8006adc:	6063      	str	r3, [r4, #4]
 8006ade:	6014      	str	r4, [r2, #0]
 8006ae0:	0028      	movs	r0, r5
 8006ae2:	f000 f8d3 	bl	8006c8c <__malloc_unlock>
 8006ae6:	bd70      	pop	{r4, r5, r6, pc}
 8006ae8:	42a3      	cmp	r3, r4
 8006aea:	d908      	bls.n	8006afe <_free_r+0x42>
 8006aec:	6821      	ldr	r1, [r4, #0]
 8006aee:	1860      	adds	r0, r4, r1
 8006af0:	4283      	cmp	r3, r0
 8006af2:	d1f3      	bne.n	8006adc <_free_r+0x20>
 8006af4:	6818      	ldr	r0, [r3, #0]
 8006af6:	685b      	ldr	r3, [r3, #4]
 8006af8:	1841      	adds	r1, r0, r1
 8006afa:	6021      	str	r1, [r4, #0]
 8006afc:	e7ee      	b.n	8006adc <_free_r+0x20>
 8006afe:	001a      	movs	r2, r3
 8006b00:	685b      	ldr	r3, [r3, #4]
 8006b02:	2b00      	cmp	r3, #0
 8006b04:	d001      	beq.n	8006b0a <_free_r+0x4e>
 8006b06:	42a3      	cmp	r3, r4
 8006b08:	d9f9      	bls.n	8006afe <_free_r+0x42>
 8006b0a:	6811      	ldr	r1, [r2, #0]
 8006b0c:	1850      	adds	r0, r2, r1
 8006b0e:	42a0      	cmp	r0, r4
 8006b10:	d10b      	bne.n	8006b2a <_free_r+0x6e>
 8006b12:	6820      	ldr	r0, [r4, #0]
 8006b14:	1809      	adds	r1, r1, r0
 8006b16:	1850      	adds	r0, r2, r1
 8006b18:	6011      	str	r1, [r2, #0]
 8006b1a:	4283      	cmp	r3, r0
 8006b1c:	d1e0      	bne.n	8006ae0 <_free_r+0x24>
 8006b1e:	6818      	ldr	r0, [r3, #0]
 8006b20:	685b      	ldr	r3, [r3, #4]
 8006b22:	1841      	adds	r1, r0, r1
 8006b24:	6011      	str	r1, [r2, #0]
 8006b26:	6053      	str	r3, [r2, #4]
 8006b28:	e7da      	b.n	8006ae0 <_free_r+0x24>
 8006b2a:	42a0      	cmp	r0, r4
 8006b2c:	d902      	bls.n	8006b34 <_free_r+0x78>
 8006b2e:	230c      	movs	r3, #12
 8006b30:	602b      	str	r3, [r5, #0]
 8006b32:	e7d5      	b.n	8006ae0 <_free_r+0x24>
 8006b34:	6821      	ldr	r1, [r4, #0]
 8006b36:	1860      	adds	r0, r4, r1
 8006b38:	4283      	cmp	r3, r0
 8006b3a:	d103      	bne.n	8006b44 <_free_r+0x88>
 8006b3c:	6818      	ldr	r0, [r3, #0]
 8006b3e:	685b      	ldr	r3, [r3, #4]
 8006b40:	1841      	adds	r1, r0, r1
 8006b42:	6021      	str	r1, [r4, #0]
 8006b44:	6063      	str	r3, [r4, #4]
 8006b46:	6054      	str	r4, [r2, #4]
 8006b48:	e7ca      	b.n	8006ae0 <_free_r+0x24>
 8006b4a:	46c0      	nop			; (mov r8, r8)
 8006b4c:	2000046c 	.word	0x2000046c

08006b50 <_malloc_r>:
 8006b50:	b5f8      	push	{r3, r4, r5, r6, r7, lr}
 8006b52:	2303      	movs	r3, #3
 8006b54:	1ccd      	adds	r5, r1, #3
 8006b56:	439d      	bics	r5, r3
 8006b58:	3508      	adds	r5, #8
 8006b5a:	0006      	movs	r6, r0
 8006b5c:	2d0c      	cmp	r5, #12
 8006b5e:	d21f      	bcs.n	8006ba0 <_malloc_r+0x50>
 8006b60:	250c      	movs	r5, #12
 8006b62:	42a9      	cmp	r1, r5
 8006b64:	d81e      	bhi.n	8006ba4 <_malloc_r+0x54>
 8006b66:	0030      	movs	r0, r6
 8006b68:	f000 f888 	bl	8006c7c <__malloc_lock>
 8006b6c:	4925      	ldr	r1, [pc, #148]	; (8006c04 <_malloc_r+0xb4>)
 8006b6e:	680a      	ldr	r2, [r1, #0]
 8006b70:	0014      	movs	r4, r2
 8006b72:	2c00      	cmp	r4, #0
 8006b74:	d11a      	bne.n	8006bac <_malloc_r+0x5c>
 8006b76:	4f24      	ldr	r7, [pc, #144]	; (8006c08 <_malloc_r+0xb8>)
 8006b78:	683b      	ldr	r3, [r7, #0]
 8006b7a:	2b00      	cmp	r3, #0
 8006b7c:	d104      	bne.n	8006b88 <_malloc_r+0x38>
 8006b7e:	0021      	movs	r1, r4
 8006b80:	0030      	movs	r0, r6
 8006b82:	f000 f869 	bl	8006c58 <_sbrk_r>
 8006b86:	6038      	str	r0, [r7, #0]
 8006b88:	0029      	movs	r1, r5
 8006b8a:	0030      	movs	r0, r6
 8006b8c:	f000 f864 	bl	8006c58 <_sbrk_r>
 8006b90:	1c43      	adds	r3, r0, #1
 8006b92:	d12b      	bne.n	8006bec <_malloc_r+0x9c>
 8006b94:	230c      	movs	r3, #12
 8006b96:	0030      	movs	r0, r6
 8006b98:	6033      	str	r3, [r6, #0]
 8006b9a:	f000 f877 	bl	8006c8c <__malloc_unlock>
 8006b9e:	e003      	b.n	8006ba8 <_malloc_r+0x58>
 8006ba0:	2d00      	cmp	r5, #0
 8006ba2:	dade      	bge.n	8006b62 <_malloc_r+0x12>
 8006ba4:	230c      	movs	r3, #12
 8006ba6:	6033      	str	r3, [r6, #0]
 8006ba8:	2000      	movs	r0, #0
 8006baa:	bdf8      	pop	{r3, r4, r5, r6, r7, pc}
 8006bac:	6823      	ldr	r3, [r4, #0]
 8006bae:	1b5b      	subs	r3, r3, r5
 8006bb0:	d419      	bmi.n	8006be6 <_malloc_r+0x96>
 8006bb2:	2b0b      	cmp	r3, #11
 8006bb4:	d903      	bls.n	8006bbe <_malloc_r+0x6e>
 8006bb6:	6023      	str	r3, [r4, #0]
 8006bb8:	18e4      	adds	r4, r4, r3
 8006bba:	6025      	str	r5, [r4, #0]
 8006bbc:	e003      	b.n	8006bc6 <_malloc_r+0x76>
 8006bbe:	6863      	ldr	r3, [r4, #4]
 8006bc0:	42a2      	cmp	r2, r4
 8006bc2:	d10e      	bne.n	8006be2 <_malloc_r+0x92>
 8006bc4:	600b      	str	r3, [r1, #0]
 8006bc6:	0030      	movs	r0, r6
 8006bc8:	f000 f860 	bl	8006c8c <__malloc_unlock>
 8006bcc:	0020      	movs	r0, r4
 8006bce:	2207      	movs	r2, #7
 8006bd0:	300b      	adds	r0, #11
 8006bd2:	1d23      	adds	r3, r4, #4
 8006bd4:	4390      	bics	r0, r2
 8006bd6:	1ac2      	subs	r2, r0, r3
 8006bd8:	4298      	cmp	r0, r3
 8006bda:	d0e6      	beq.n	8006baa <_malloc_r+0x5a>
 8006bdc:	1a1b      	subs	r3, r3, r0
 8006bde:	50a3      	str	r3, [r4, r2]
 8006be0:	e7e3      	b.n	8006baa <_malloc_r+0x5a>
 8006be2:	6053      	str	r3, [r2, #4]
 8006be4:	e7ef      	b.n	8006bc6 <_malloc_r+0x76>
 8006be6:	0022      	movs	r2, r4
 8006be8:	6864      	ldr	r4, [r4, #4]
 8006bea:	e7c2      	b.n	8006b72 <_malloc_r+0x22>
 8006bec:	2303      	movs	r3, #3
 8006bee:	1cc4      	adds	r4, r0, #3
 8006bf0:	439c      	bics	r4, r3
 8006bf2:	42a0      	cmp	r0, r4
 8006bf4:	d0e1      	beq.n	8006bba <_malloc_r+0x6a>
 8006bf6:	1a21      	subs	r1, r4, r0
 8006bf8:	0030      	movs	r0, r6
 8006bfa:	f000 f82d 	bl	8006c58 <_sbrk_r>
 8006bfe:	1c43      	adds	r3, r0, #1
 8006c00:	d1db      	bne.n	8006bba <_malloc_r+0x6a>
 8006c02:	e7c7      	b.n	8006b94 <_malloc_r+0x44>
 8006c04:	2000046c 	.word	0x2000046c
 8006c08:	20000470 	.word	0x20000470

08006c0c <_realloc_r>:
 8006c0c:	b5f8      	push	{r3, r4, r5, r6, r7, lr}
 8006c0e:	0007      	movs	r7, r0
 8006c10:	000d      	movs	r5, r1
 8006c12:	0016      	movs	r6, r2
 8006c14:	2900      	cmp	r1, #0
 8006c16:	d105      	bne.n	8006c24 <_realloc_r+0x18>
 8006c18:	0011      	movs	r1, r2
 8006c1a:	f7ff ff99 	bl	8006b50 <_malloc_r>
 8006c1e:	0004      	movs	r4, r0
 8006c20:	0020      	movs	r0, r4
 8006c22:	bdf8      	pop	{r3, r4, r5, r6, r7, pc}
 8006c24:	2a00      	cmp	r2, #0
 8006c26:	d103      	bne.n	8006c30 <_realloc_r+0x24>
 8006c28:	f7ff ff48 	bl	8006abc <_free_r>
 8006c2c:	0034      	movs	r4, r6
 8006c2e:	e7f7      	b.n	8006c20 <_realloc_r+0x14>
 8006c30:	f000 f834 	bl	8006c9c <_malloc_usable_size_r>
 8006c34:	002c      	movs	r4, r5
 8006c36:	42b0      	cmp	r0, r6
 8006c38:	d2f2      	bcs.n	8006c20 <_realloc_r+0x14>
 8006c3a:	0031      	movs	r1, r6
 8006c3c:	0038      	movs	r0, r7
 8006c3e:	f7ff ff87 	bl	8006b50 <_malloc_r>
 8006c42:	1e04      	subs	r4, r0, #0
 8006c44:	d0ec      	beq.n	8006c20 <_realloc_r+0x14>
 8006c46:	0029      	movs	r1, r5
 8006c48:	0032      	movs	r2, r6
 8006c4a:	f7ff fb61 	bl	8006310 <memcpy>
 8006c4e:	0029      	movs	r1, r5
 8006c50:	0038      	movs	r0, r7
 8006c52:	f7ff ff33 	bl	8006abc <_free_r>
 8006c56:	e7e3      	b.n	8006c20 <_realloc_r+0x14>

08006c58 <_sbrk_r>:
 8006c58:	2300      	movs	r3, #0
 8006c5a:	b570      	push	{r4, r5, r6, lr}
 8006c5c:	4d06      	ldr	r5, [pc, #24]	; (8006c78 <_sbrk_r+0x20>)
 8006c5e:	0004      	movs	r4, r0
 8006c60:	0008      	movs	r0, r1
 8006c62:	602b      	str	r3, [r5, #0]
 8006c64:	f7fb f846 	bl	8001cf4 <_sbrk>
 8006c68:	1c43      	adds	r3, r0, #1
 8006c6a:	d103      	bne.n	8006c74 <_sbrk_r+0x1c>
 8006c6c:	682b      	ldr	r3, [r5, #0]
 8006c6e:	2b00      	cmp	r3, #0
 8006c70:	d000      	beq.n	8006c74 <_sbrk_r+0x1c>
 8006c72:	6023      	str	r3, [r4, #0]
 8006c74:	bd70      	pop	{r4, r5, r6, pc}
 8006c76:	46c0      	nop			; (mov r8, r8)
 8006c78:	200012b0 	.word	0x200012b0

08006c7c <__malloc_lock>:
 8006c7c:	b510      	push	{r4, lr}
 8006c7e:	4802      	ldr	r0, [pc, #8]	; (8006c88 <__malloc_lock+0xc>)
 8006c80:	f000 f814 	bl	8006cac <__retarget_lock_acquire_recursive>
 8006c84:	bd10      	pop	{r4, pc}
 8006c86:	46c0      	nop			; (mov r8, r8)
 8006c88:	200012b8 	.word	0x200012b8

08006c8c <__malloc_unlock>:
 8006c8c:	b510      	push	{r4, lr}
 8006c8e:	4802      	ldr	r0, [pc, #8]	; (8006c98 <__malloc_unlock+0xc>)
 8006c90:	f000 f80d 	bl	8006cae <__retarget_lock_release_recursive>
 8006c94:	bd10      	pop	{r4, pc}
 8006c96:	46c0      	nop			; (mov r8, r8)
 8006c98:	200012b8 	.word	0x200012b8

08006c9c <_malloc_usable_size_r>:
 8006c9c:	1f0b      	subs	r3, r1, #4
 8006c9e:	681b      	ldr	r3, [r3, #0]
 8006ca0:	1f18      	subs	r0, r3, #4
 8006ca2:	2b00      	cmp	r3, #0
 8006ca4:	da01      	bge.n	8006caa <_malloc_usable_size_r+0xe>
 8006ca6:	580b      	ldr	r3, [r1, r0]
 8006ca8:	18c0      	adds	r0, r0, r3
 8006caa:	4770      	bx	lr

08006cac <__retarget_lock_acquire_recursive>:
 8006cac:	4770      	bx	lr

08006cae <__retarget_lock_release_recursive>:
 8006cae:	4770      	bx	lr

08006cb0 <_init>:
 8006cb0:	b5f8      	push	{r3, r4, r5, r6, r7, lr}
 8006cb2:	46c0      	nop			; (mov r8, r8)
 8006cb4:	bcf8      	pop	{r3, r4, r5, r6, r7}
 8006cb6:	bc08      	pop	{r3}
 8006cb8:	469e      	mov	lr, r3
 8006cba:	4770      	bx	lr

08006cbc <_fini>:
 8006cbc:	b5f8      	push	{r3, r4, r5, r6, r7, lr}
 8006cbe:	46c0      	nop			; (mov r8, r8)
 8006cc0:	bcf8      	pop	{r3, r4, r5, r6, r7}
 8006cc2:	bc08      	pop	{r3}
 8006cc4:	469e      	mov	lr, r3
 8006cc6:	4770      	bx	lr
